     1                                  [org 100h]
     2                                  
     3 00000000 E90C5C                                                 JMP main
     4                                  ;;//////////////////////////////////////////NAME BUFFER///////////////////////////////////////
     5                                  ;;///////////////////////////////////////////////////////////////////////////////////////////
     6 00000003 00<rep 14h>             NAME_OF_PLAYER: times 20 db 0
     7 00000017 0000                    NAME_BUFFER_COUNTER: dw 0
     8                                  
     9 00000019 0000                    Ballon_pop: dw 0
    10 0000001B 0000<rep FA0h>          BG_BUFFER: times 4000 dw 0
    11 00001F5B 0000<rep FA0h>          PAUSE_BUUFER: times 4000 dw 0
    12                                  ; STRAT_SCREEN_BUUFER: times 4000 dw 0
    13                                  ; GAME_OVER_SCREEN_BUUFER: times 4000 dw 0
    14 00003E9B 00<rep 28h>             PLAYER_SCORE_BUFFER: times 40 db 0
    15                                  
    16 00003EC3 0000                    SCORE_BUFFER_COUNTER: dw 0 					   
    17                                  ;;;==============END BACKSPACE CHECK FOR ENTER YOUR NAME LABEL ON NAME INPUT SCREEN============
    18                                  ;;;============================================================================================								   
    19                                  							   
    20 00003EC5 0000                    END_SPACE: dw 0							   
    21                                  							   
    22                                  ;;;=============================LABEL/VARIABLES FOR INSTRUCTION SCREEN============================
    23                                  ;;;===============================================================================================
    24                                  
    25 00003EC7 41424F55542047414D-     GUIDELINE_MSG1: db 'ABOUT GAME',0	
    25 00003ED0 4500               
    26 00003ED2 312E42616C6C6F6E73-     GUIDELINE_MSG2: db '1.Ballons will float from bottom with a character at centre.',0 
    26 00003EDB 2077696C6C20666C6F-
    26 00003EE4 61742066726F6D2062-
    26 00003EED 6F74746F6D20776974-
    26 00003EF6 682061206368617261-
    26 00003EFF 637465722061742063-
    26 00003F08 656E7472652E00     
    27 00003F0F 322E506F736974696F-     GUIDELINE_MSG3: db '2.Position of Ballon is random.',0 
    27 00003F18 6E206F662042616C6C-
    27 00003F21 6F6E2069732072616E-
    27 00003F2A 646F6D2E00         
    28 00003F2F 332E456E7465722063-     GUIDELINE_MSG4: db '3.Enter character to pop ballon.',0 
    28 00003F38 686172616374657220-
    28 00003F41 746F20706F70206261-
    28 00003F4A 6C6C6F6E2E00       
    29 00003F50 342E596F7572207363-     GUIDELINE_MSG5: db '4.Your score will increased by 1 for every pop.',0
    29 00003F59 6F72652077696C6C20-
    29 00003F62 696E63726561736564-
    29 00003F6B 206279203120666F72-
    29 00003F74 20657665727920706F-
    29 00003F7D 702E00             
    30 00003F80 352E596F7572206861-     GUIDELINE_MSG6: db '5.Your have total of 2:00 minutes for 1 game.',0
    30 00003F89 766520746F74616C20-
    30 00003F92 6F6620323A3030206D-
    30 00003F9B 696E7574657320666F-
    30 00003FA4 7220312067616D652E-
    30 00003FAD 00                 
    31 00003FAE 362E54686520636861-     GUIDELINE_MSG7: db '6.The characters in Baloon are Lower case.',0  	 
    31 00003FB7 726163746572732069-
    31 00003FC0 6E2042616C6F6F6E20-
    31 00003FC9 617265204C6F776572-
    31 00003FD2 20636173652E00     
    32 00003FD9 486F706520796F7520-     GUIDELINE_MSG8: db 'Hope you guys will enjoy the game.',0 
    32 00003FE2 677579732077696C6C-
    32 00003FEB 20656E6A6F79207468-
    32 00003FF4 652067616D652E00   
    33 00003FFC 425241434520594F55-     GUIDELINE_MSG9: db 'BRACE YOURSELF- An epic Adventure Awaits for you.',0
    33 00004005 5253454C462D20416E-
    33 0000400E 206570696320416476-
    33 00004017 656E74757265204177-
    33 00004020 6169747320666F7220-
    33 00004029 796F752E00         
    34 0000402E 507265737320456E74-     GUIDELINE_MSG10: db 'Press Enter To Countinue.',0  	 	 					
    34 00004037 657220546F20436F75-
    34 00004040 6E74696E75652E00   
    35                                  							   
    36                                  ;;;=============================LABEL/VARIABLES FOR GET NAME OF PLAYER SCREEN============================
    37                                  ;;;======================================================================================================	
    38                                  							   
    39 00004048 454E54455220594F55-     get_name: db 'ENTER YOUR NAME:'				
    39 00004051 52204E414D453A     
    40 00004058 0F00                    len_input: dw 15
    41                                  
    42                                  ;;;=============================THANK YOU MSG FOR AFTER EXIT SCREEN============================
    43                                  ;;;============================================================================================		
    44                                  
    45 0000405A 5468616E6B20596F75      thank: db 'Thank You'
    46                                  
    47                                  ;;;=============================NAVIGATION FOR END SCREEN=============================
    48                                  ;;;====================================================================================		
    49                                  
    50 00004063 0F                      navigation1end: db 0x0F
    51 00004064 2F                      navigation2end: db 0x2F
    52 00004065 2F                      navigation12end: db 0x2F
    53 00004066 0F                      navigation22end: db 0x0F
    54 00004067 00                      nav_countend: db 0
    55 00004068 00                      first_movementend: db 0
    56                                  
    57                                  ;;;=============================NAVIGATION FOR START SCREEN============================
    58                                  ;;;====================================================================================		
    59                                  
    60 00004069 00                      navigation1: db 0x00
    61 0000406A 40                      navigation2: db 0x40
    62 0000406B 4F                      navigation12: db 0x4F
    63 0000406C 0F                      navigation22: db 0x0F
    64 0000406D 00                      nav_count: db 0
    65 0000406E 00                      first_movement: db 0
    66                                  
    67                                  ;;;=============================GAME SCREEN WORDS============================
    68                                  ;;;==========================================================================		
    69                                  
    70                                  ; Variables
    71 0000406F 00                      minutes: db 0
    72 00004070 01                      seconds: db 1
    73 00004071 0000                    score: dw 0
    74                                  
    75                                  ; Messages
    76 00004073 54494D453A2000          timeMsg: db 'TIME: ', 0
    77 0000407A 53434F52453A2000        scoreMsg: db 'SCORE: ', 0
    78                                  
    79                                  
    80                                  ;;;====================START/EXIT/INSTRUCTION---RESTART/EXIT/PLAYER_SCORE/ISTRUCTION=====================
    81                                  ;;;======================================================================================================		
    82                                  
    83 00004082 52657374617274          msg1_: db 'Restart'
    84 00004089 0600                    size1_: dw 6
    85 0000408B 45786974                msg2_: db 'Exit'
    86 0000408F 0300                    size2_: dw 3
    87 00004091 506C65617365207365-     msg3_: db 'Please select an option and Press Enter'
    87 0000409A 6C65637420616E206F-
    87 000040A3 7074696F6E20616E64-
    87 000040AC 20507265737320456E-
    87 000040B5 746572             
    88 000040B8 2600                    size3_: dw 38
    89 000040BA 594F55525F53434F52-     msg4_: db 'YOUR_SCORE:'
    89 000040C3 453A               
    90 000040C5 0A00                    size4_: dw 10
    91 000040C7 5374617274              msg1: db 'Start'
    92 000040CC 0400                    size1: dw 4
    93 000040CE 45786974                msg2: db 'Exit'
    94 000040D2 0300                    size2: dw 3
    95 000040D4 506C65617365207365-     msg3: db 'Please select an option and Press Enter'
    95 000040DD 6C65637420616E206F-
    95 000040E6 7074696F6E20616E64-
    95 000040EF 20507265737320456E-
    95 000040F8 746572             
    96 000040FB 2600                    size3: dw 38
    97                                  
    98                                  
    99                                  ;;;=============================INPUT FUNCTION TO GET INPUT FROM USER============================
   100                                  ;;;==============================================================================================		
   101                                  
   102                                  
   103                                  input: 
   104 000040FD B401                           mov ah,0x01
   105 000040FF CD16                           int 0x16
   106 00004101 7502                    	   jnz get
   107 00004103 7404                    	   jz doneinput
   108                                  	   
   109 00004105 B400                    get:   mov ah,0x00
   110 00004107 CD16                    	   int 0x16
   111                                  	   
   112                                  doneinput:
   113 00004109 C3                                   ret	
   114                                  
   115                                  ;;;=============================SLEEP FUNCTION FOR DELAY============================
   116                                  ;;;=================================================================================		
   117                                  
   118 0000410A 60                      sleep: pusha
   119 0000410B B9FFFF                         mov cx,0xFFFF
   120                                  delay:
   121 0000410E 83E901                        sub cx,1
   122 00004111 83F900                  	  cmp cx,0
   123 00004114 75F8                    	  jne delay
   124 00004116 61                      	  popa
   125 00004117 C3                      	  ret
   126                                  	  
   127                                  ;;;=============================CLEAR SCREEN FOR INSTRUCTION SCREEN============================
   128                                  ;;;============================================================================================		 
   129                                  	  
   130 00004118 06                      clearscreen_GUIDELINE: push ES
   131 00004119 50                      					 push AX
   132 0000411A 57                      					 push di
   133                                  					 
   134 0000411B B800B8                  				MOV		AX, 0xB800
   135 0000411E 8EC0                    				MOV		ES, AX
   136 00004120 BF0000                  				mov di,0
   137                                  				
   138 00004123 26C7052007              nextloc_GUIDELINE:    mov word[es:di]	,0x0720
   139 00004128 83C702                  					add di,2
   140 0000412B 81FFA00F                					cmp di,4000
   141 0000412F 75F2                    					jne nextloc_GUIDELINE
   142                                  
   143                                  
   144 00004131 5F                      					pop di
   145 00004132 58                      					pop AX
   146 00004133 07                      					pop ES
   147                                  
   148 00004134 C3                      					ret			
   149                                  	  
   150                                   
   151                                  ;;;=============================CLEAR SCREEN FOR START SCREEN============================
   152                                  ;;;======================================================================================		 
   153                                  
   154 00004135 60                      clrscr:pusha
   155 00004136 50                      	push ax
   156 00004137 06                      	push es
   157                                  	
   158 00004138 57                      	push di
   159                                  	
   160 00004139 B800B8                  	mov ax , 0xb800
   161 0000413C BF0000                  	mov di , 0
   162 0000413F 8EC0                    	mov es , ax
   163                                  	
   164                                  	nextchar:
   165 00004141 B8DB00                  		mov ax , 0x00DB
   166 00004144 268905                  		mov word [es:di] , ax
   167 00004147 83C702                  		add di , 2
   168 0000414A 81FFA00F                		cmp di , 4000
   169 0000414E 75F1                    		jne nextchar	
   170                                  
   171 00004150 5F                            pop di
   172 00004151 07                      	  pop es
   173 00004152 58                      	  pop ax
   174 00004153 61                      	  popa
   175 00004154 C3                            ret  
   176                                  	  
   177                                  ;;;=============================CLEAR SCREEN FOR NAME INPUT SCREEN============================
   178                                  ;;;===========================================================================================		  
   179                                  	  
   180 00004155 06                       clearscreen_input: push ES
   181 00004156 50                      					 push AX
   182 00004157 57                      					 push di
   183                                  					 
   184 00004158 B800B8                  				MOV		AX, 0xB800
   185 0000415B 8EC0                    				MOV		ES, AX
   186 0000415D BF0000                  				mov di,0
   187                                  				
   188 00004160 26C705DB0E              		nextloc_input:    mov word[es:di]	,0x0EDB
   189 00004165 83C702                  					add di,2
   190 00004168 81FFA00F                					cmp di,4000
   191 0000416C 75F2                    					jne nextloc_input
   192                                  
   193                                  
   194 0000416E 5F                      					pop di
   195 0000416F 58                      					pop AX
   196 00004170 07                      					pop ES
   197                                  
   198 00004171 C3                      					ret	 
   199                                  
   200                                  ;;;=============================START SCREEN LETTERS============================
   201                                  ;;;=============================================================================			  
   202                                  	  
   203                                  print_P1:
   204 00004172 60                              pusha
   205                                  		
   206                                  		
   207                                  		
   208 00004173 B40E                    		mov ah,0x0E
   209 00004175 B0DB                    		mov al,0xDB
   210                                  		
   211 00004177 BE00B8                  		mov si,0xb800
   212 0000417A 8EC6                    		mov es,si
   213                                  		
   214 0000417C 26A3EA01                		mov word[es:490],ax
   215 00004180 26A3EC01                		mov word[es:492],ax
   216 00004184 26A3EE01                		mov word[es:494],ax
   217 00004188 26A3F001                		mov word[es:496],ax
   218 0000418C 26A3F201                		mov word[es:498],ax
   219 00004190 26A3F401                		mov word[es:500],ax
   220                                  		
   221 00004194 26A38A02                		mov word[es:650],ax
   222 00004198 26A38C02                		mov word[es:652],ax
   223 0000419C 26A39802                		mov word[es:664],ax
   224 000041A0 26A39402                		mov word[es:660],ax
   225 000041A4 26A39602                		mov word[es:662],ax
   226                                  		
   227 000041A8 26A32A03                		mov word[es:810],ax
   228 000041AC 26A32C03                		mov word[es:812],ax
   229 000041B0 26A33403                		mov word[es:820],ax
   230 000041B4 26A33603                		mov word[es:822],ax
   231 000041B8 26A33803                		mov word[es:824],ax
   232 000041BC 26A33A03                		mov word[es:826],ax
   233                                  		
   234 000041C0 26A3CA03                		mov word[es:970],ax
   235 000041C4 26A3CC03                		mov word[es:972],ax
   236 000041C8 26A3CE03                		mov word[es:974],ax
   237 000041CC 26A3D003                		mov word[es:976],ax
   238 000041D0 26A3D203                		mov word[es:978],ax
   239 000041D4 26A3D403                		mov word[es:980],ax
   240 000041D8 26A3D603                		mov word[es:982],ax
   241 000041DC 26A3D803                		mov word[es:984],ax
   242                                  		
   243 000041E0 26A36A04                		mov word[es:1130],ax
   244 000041E4 26A36C04                		mov word[es:1132],ax
   245 000041E8 26A36E04                		mov word[es:1134],ax
   246 000041EC 26A37004                		mov word[es:1136],ax
   247 000041F0 26A37204                		mov word[es:1138],ax
   248 000041F4 26A37404                		mov word[es:1140],ax
   249                                  		
   250 000041F8 26A30A05                		mov word[es:1290],ax
   251 000041FC 26A30C05                		mov word[es:1292],ax
   252                                  		
   253                                  
   254 00004200 26A3AA05                		mov word[es:1450],ax
   255 00004204 26A3AC05                		mov word[es:1452],ax
   256                                  		
   257                                  		
   258 00004208 26A34A06                		mov word[es:1610],ax
   259 0000420C 26A34C06                		mov word[es:1612],ax
   260                                  		
   261 00004210 61                      	  popa
   262 00004211 C3                      	  ret
   263                                  	  
   264                                  print_O:
   265 00004212 60                              pusha
   266                                  		
   267                                  		
   268                                  		
   269 00004213 B40E                    		mov ah,0x0E
   270 00004215 B0DB                    		mov al,0xDB
   271                                  		
   272 00004217 BE00B8                  		mov si,0xb800
   273 0000421A 8EC6                    		mov es,si
   274 0000421C BF1600                  		mov di,22
   275 0000421F 268985EE01              		mov word[es:di+494],ax
   276 00004224 268985F001              		mov word[es:di+496],ax
   277 00004229 268985F201              		mov word[es:di+498],ax
   278 0000422E 268985F401              		mov word[es:di+500],ax
   279                                  		
   280 00004233 2689858C02              		mov word[es:di+652],ax
   281 00004238 2689859602              		mov word[es:di+662],ax
   282                                  		
   283 0000423D 2689852A03              		mov word[es:di+810],ax
   284 00004242 2689852C03              		mov word[es:di+812],ax
   285 00004247 2689853603              		mov word[es:di+822],ax
   286 0000424C 2689853803              		mov word[es:di+824],ax
   287                                  		
   288 00004251 268985CA03              		mov word[es:di+970],ax
   289 00004256 268985CC03              		mov word[es:di+972],ax
   290 0000425B 268985C803              		mov word[es:di+968],ax
   291 00004260 268985DA03              		mov word[es:di+986],ax
   292 00004265 268985D603              		mov word[es:di+982],ax
   293 0000426A 268985D803              		mov word[es:di+984],ax
   294                                  		
   295 0000426F 2689856A04              		mov word[es:di+1130],ax
   296 00004274 2689856C04              		mov word[es:di+1132],ax
   297 00004279 2689856804              		mov word[es:di+1128],ax
   298 0000427E 2689857A04              		mov word[es:di+1146],ax
   299 00004283 2689857604              		mov word[es:di+1142],ax
   300 00004288 2689857804              		mov word[es:di+1144],ax
   301                                  		
   302 0000428D 2689850A05              		mov word[es:di+1290],ax
   303 00004292 2689850C05              		mov word[es:di+1292],ax
   304 00004297 2689851605              		mov word[es:di+1302],ax
   305 0000429C 2689851805              		mov word[es:di+1304],ax
   306 000042A1 268985AC05              		mov word[es:di+1452],ax
   307 000042A6 268985B605              		mov word[es:di+1462],ax
   308                                  		
   309 000042AB 2689854E06              		mov word[es:di+1614],ax
   310 000042B0 2689855006              		mov word[es:di+1616],ax
   311 000042B5 2689855206              		mov word[es:di+1618],ax
   312 000042BA 2689855406              		mov word[es:di+1620],ax
   313 000042BF 61                      	  popa
   314 000042C0 C3                      	  ret
   315                                  	  
   316                                  print_P2:
   317 000042C1 60                              pusha
   318                                  		
   319 000042C2 B44E                    		mov ah,0x4E
   320 000042C4 B0DB                    		mov al,0xDB
   321                                  		
   322 000042C6 BE00B8                  		mov si,0xb800
   323 000042C9 8EC6                    		mov es,si
   324 000042CB BF2C00                  		mov di,44
   325 000042CE 268985EA01              		mov word[es:di+490],ax
   326 000042D3 268985EC01              		mov word[es:di+492],ax
   327 000042D8 268985EE01              		mov word[es:di+494],ax
   328 000042DD 268985F001              		mov word[es:di+496],ax
   329 000042E2 268985F201              		mov word[es:di+498],ax
   330 000042E7 268985F401              		mov word[es:di+500],ax
   331                                  		
   332 000042EC 2689858A02              		mov word[es:di+650],ax
   333 000042F1 2689858C02              		mov word[es:di+652],ax
   334 000042F6 2689859802              		mov word[es:di+664],ax
   335 000042FB 2689859402              		mov word[es:di+660],ax
   336 00004300 2689859602              		mov word[es:di+662],ax
   337                                  		
   338 00004305 2689852A03              		mov word[es:di+810],ax
   339 0000430A 2689852C03              		mov word[es:di+812],ax
   340 0000430F 2689853403              		mov word[es:di+820],ax
   341 00004314 2689853603              		mov word[es:di+822],ax
   342 00004319 2689853803              		mov word[es:di+824],ax
   343 0000431E 2689853A03              		mov word[es:di+826],ax
   344                                  		
   345 00004323 268985CA03              		mov word[es:di+970],ax
   346 00004328 268985CC03              		mov word[es:di+972],ax
   347 0000432D 268985CE03              		mov word[es:di+974],ax
   348 00004332 268985D003              		mov word[es:di+976],ax
   349 00004337 268985D203              		mov word[es:di+978],ax
   350 0000433C 268985D403              		mov word[es:di+980],ax
   351 00004341 268985D603              		mov word[es:di+982],ax
   352 00004346 268985D803              		mov word[es:di+984],ax
   353                                  		
   354 0000434B 2689856A04              		mov word[es:di+1130],ax
   355 00004350 2689856C04              		mov word[es:di+1132],ax
   356 00004355 2689856E04              		mov word[es:di+1134],ax
   357 0000435A 2689857004              		mov word[es:di+1136],ax
   358 0000435F 2689857204              		mov word[es:di+1138],ax
   359 00004364 2689857404              		mov word[es:di+1140],ax
   360                                  		
   361 00004369 2689850A05              		mov word[es:di+1290],ax
   362 0000436E 2689850C05              		mov word[es:di+1292],ax
   363                                  
   364 00004373 268985AA05              		mov word[es:di+1450],ax
   365 00004378 268985AC05              		mov word[es:di+1452],ax
   366                                  		
   367                                  		
   368 0000437D 2689854A06              		mov word[es:di+1610],ax
   369 00004382 2689854C06              		mov word[es:di+1612],ax
   370                                  
   371                                  		
   372 00004387 61                      	  popa
   373 00004388 C3                      	  ret
   374                                  	  
   375                                  print_R:
   376 00004389 60                              pusha
   377                                  		
   378 0000438A B409                    		mov ah,0x09
   379 0000438C B0DB                    		mov al,0xDB
   380                                  		
   381 0000438E BE00B8                  		mov si,0xb800
   382 00004391 8EC6                    		mov es,si
   383 00004393 BFA805                  		mov di,1448
   384 00004396 268985EA01              		mov word[es:di+490],ax
   385 0000439B 268985EC01              		mov word[es:di+492],ax
   386 000043A0 268985EE01              		mov word[es:di+494],ax
   387 000043A5 268985F001              		mov word[es:di+496],ax
   388 000043AA 268985F201              		mov word[es:di+498],ax
   389 000043AF 268985F401              		mov word[es:di+500],ax
   390                                  		
   391 000043B4 2689858A02              		mov word[es:di+650],ax
   392 000043B9 2689858C02              		mov word[es:di+652],ax
   393 000043BE 2689859802              		mov word[es:di+664],ax
   394 000043C3 2689859402              		mov word[es:di+660],ax
   395 000043C8 2689859602              		mov word[es:di+662],ax
   396                                  		
   397 000043CD 2689852A03              		mov word[es:di+810],ax
   398 000043D2 2689852C03              		mov word[es:di+812],ax
   399 000043D7 2689853403              		mov word[es:di+820],ax
   400 000043DC 2689853603              		mov word[es:di+822],ax
   401 000043E1 2689853803              		mov word[es:di+824],ax
   402 000043E6 2689853A03              		mov word[es:di+826],ax
   403                                  		
   404 000043EB 268985CA03              		mov word[es:di+970],ax
   405 000043F0 268985CC03              		mov word[es:di+972],ax
   406 000043F5 268985CE03              		mov word[es:di+974],ax
   407 000043FA 268985D003              		mov word[es:di+976],ax
   408 000043FF 268985D203              		mov word[es:di+978],ax
   409 00004404 268985D403              		mov word[es:di+980],ax
   410 00004409 268985D603              		mov word[es:di+982],ax
   411 0000440E 268985D803              		mov word[es:di+984],ax
   412                                  		
   413 00004413 2689856A04              		mov word[es:di+1130],ax
   414 00004418 2689856C04              		mov word[es:di+1132],ax
   415 0000441D 2689856E04              		mov word[es:di+1134],ax
   416 00004422 2689857004              		mov word[es:di+1136],ax
   417 00004427 2689857204              		mov word[es:di+1138],ax
   418 0000442C 2689857404              		mov word[es:di+1140],ax
   419 00004431 2689857604              		mov word[es:di+1142],ax
   420                                  		
   421 00004436 2689850A05              		mov word[es:di+1290],ax
   422 0000443B 2689850C05              		mov word[es:di+1292],ax
   423 00004440 2689851205              		mov word[es:di+1298],ax
   424 00004445 2689851405              		mov word[es:di+1300],ax
   425                                  
   426 0000444A 268985AA05              		mov word[es:di+1450],ax
   427 0000444F 268985AC05              		mov word[es:di+1452],ax
   428 00004454 268985B405              		mov word[es:di+1460],ax
   429 00004459 268985B605              		mov word[es:di+1462],ax
   430                                  		
   431                                  		
   432 0000445E 2689854A06              		mov word[es:di+1610],ax
   433 00004463 2689854C06              		mov word[es:di+1612],ax
   434 00004468 2689855606              		mov word[es:di+1622],ax
   435 0000446D 2689855806              		mov word[es:di+1624],ax
   436                                  		
   437 00004472 61                      	  popa
   438 00004473 C3                      	  ret
   439                                  	  	  
   440                                  print_U:
   441 00004474 60                              pusha
   442                                  		
   443 00004475 B409                    		mov ah,0x09
   444 00004477 B0DB                    		mov al,0xDB
   445                                  		
   446 00004479 BE00B8                  		mov si,0xb800
   447 0000447C 8EC6                    		mov es,si
   448 0000447E BFBE05                  		mov di,1470
   449 00004481 268985EA01              		mov word[es:di+490],ax
   450 00004486 268985EC01              		mov word[es:di+492],ax
   451 0000448B 268985F601              		mov word[es:di+502],ax
   452 00004490 268985F801              		mov word[es:di+504],ax
   453                                  		
   454 00004495 2689858A02              		mov word[es:di+650],ax
   455 0000449A 2689858C02              		mov word[es:di+652],ax
   456 0000449F 2689859602              		mov word[es:di+662],ax
   457 000044A4 2689859802              		mov word[es:di+664],ax
   458                                  		
   459 000044A9 2689852A03              		mov word[es:di+810],ax
   460 000044AE 2689852C03              		mov word[es:di+812],ax
   461 000044B3 2689853603              		mov word[es:di+822],ax
   462 000044B8 2689853803              		mov word[es:di+824],ax
   463                                  		
   464 000044BD 268985CA03              		mov word[es:di+970],ax
   465 000044C2 268985CC03              		mov word[es:di+972],ax
   466 000044C7 268985D603              		mov word[es:di+982],ax
   467 000044CC 268985D803              		mov word[es:di+984],ax
   468                                  		
   469 000044D1 2689856A04              		mov word[es:di+1130],ax
   470 000044D6 2689856C04              		mov word[es:di+1132],ax
   471 000044DB 2689857604              		mov word[es:di+1142],ax
   472 000044E0 2689857804              		mov word[es:di+1144],ax
   473                                  		
   474 000044E5 2689850A05              		mov word[es:di+1290],ax
   475 000044EA 2689850C05              		mov word[es:di+1292],ax
   476 000044EF 2689851605              		mov word[es:di+1302],ax
   477 000044F4 2689851805              		mov word[es:di+1304],ax
   478                                  		
   479                                  		
   480 000044F9 268985AC05              		mov word[es:di+1452],ax
   481                                  
   482 000044FE 268985B605              		mov word[es:di+1462],ax
   483                                  
   484                                  		
   485 00004503 2689854E06              		mov word[es:di+1614],ax
   486 00004508 2689855006              		mov word[es:di+1616],ax
   487 0000450D 2689855206              		mov word[es:di+1618],ax
   488 00004512 2689855406              		mov word[es:di+1620],ax
   489                                  
   490 00004517 61                      	  popa
   491 00004518 C3                      	  ret
   492                                  	  
   493                                  print_S:
   494 00004519 60                              pusha
   495                                  		
   496 0000451A B409                    		mov ah,0x09
   497 0000451C B0DB                    		mov al,0xDB
   498                                  		
   499 0000451E BE00B8                  		mov si,0xb800
   500 00004521 8EC6                    		mov es,si
   501 00004523 BFD405                  		mov di,1492
   502 00004526 268985EC01              		mov word[es:di+492],ax
   503 0000452B 268985EE01              		mov word[es:di+494],ax
   504 00004530 268985F001              		mov word[es:di+496],ax
   505 00004535 268985F201              		mov word[es:di+498],ax
   506 0000453A 268985F401              		mov word[es:di+500],ax
   507                                  		
   508 0000453F 2689858A02              		mov word[es:di+650],ax
   509 00004544 2689858C02              		mov word[es:di+652],ax
   510 00004549 2689859402              		mov word[es:di+660],ax
   511 0000454E 2689859602              		mov word[es:di+662],ax
   512                                  		
   513 00004553 2689852A03              		mov word[es:di+810],ax
   514 00004558 2689852C03              		mov word[es:di+812],ax
   515 0000455D 2689852803              		mov word[es:di+808],ax
   516                                  		
   517 00004562 268985CA03              		mov word[es:di+970],ax
   518 00004567 268985CC03              		mov word[es:di+972],ax
   519 0000456C 268985CE03              		mov word[es:di+974],ax
   520 00004571 268985D003              		mov word[es:di+976],ax
   521 00004576 268985D203              		mov word[es:di+978],ax
   522 0000457B 268985D403              		mov word[es:di+980],ax
   523 00004580 2689857204              		mov word[es:di+1138],ax
   524 00004585 2689857404              		mov word[es:di+1140],ax
   525 0000458A 2689857604              		mov word[es:di+1142],ax
   526                                  		
   527                                  		
   528 0000458F 2689851605              		mov word[es:di+1302],ax
   529 00004594 2689851405              		mov word[es:di+1300],ax
   530 00004599 2689851805              		mov word[es:di+1304],ax
   531                                  
   532 0000459E 268985AA05              		mov word[es:di+1450],ax
   533 000045A3 268985AC05              		mov word[es:di+1452],ax
   534 000045A8 268985B405              		mov word[es:di+1460],ax
   535 000045AD 268985B605              		mov word[es:di+1462],ax
   536                                  		
   537                                  		
   538 000045B2 2689854C06              		mov word[es:di+1612],ax
   539 000045B7 2689854E06              		mov word[es:di+1614],ax
   540 000045BC 2689855006              		mov word[es:di+1616],ax
   541 000045C1 2689855406              		mov word[es:di+1620],ax
   542 000045C6 2689855206              		mov word[es:di+1618],ax
   543                                  		
   544 000045CB 61                      	  popa
   545 000045CC C3                      	  ret
   546                                  	  
   547                                  print_H:
   548 000045CD 60                              pusha
   549                                  		
   550 000045CE B409                    		mov ah,0x09
   551 000045D0 B0DB                    		mov al,0xDB
   552                                  		
   553 000045D2 BE00B8                  		mov si,0xb800
   554 000045D5 8EC6                    		mov es,si
   555 000045D7 BFE805                  		mov di,1512
   556 000045DA 268985EA01              		mov word[es:di+490],ax
   557 000045DF 268985EC01              		mov word[es:di+492],ax
   558 000045E4 268985F601              		mov word[es:di+502],ax
   559 000045E9 268985F801              		mov word[es:di+504],ax
   560                                  		
   561 000045EE 2689858A02              		mov word[es:di+650],ax
   562 000045F3 2689858C02              		mov word[es:di+652],ax
   563 000045F8 2689859602              		mov word[es:di+662],ax
   564 000045FD 2689859802              		mov word[es:di+664],ax
   565                                  		
   566 00004602 2689852A03              		mov word[es:di+810],ax
   567 00004607 2689852C03              		mov word[es:di+812],ax
   568 0000460C 2689853603              		mov word[es:di+822],ax
   569 00004611 2689853803              		mov word[es:di+824],ax
   570                                  		
   571 00004616 268985CA03              		mov word[es:di+970],ax
   572 0000461B 268985CC03              		mov word[es:di+972],ax
   573 00004620 268985CE03              		mov word[es:di+974],ax
   574 00004625 268985D003              		mov word[es:di+976],ax
   575 0000462A 268985D203              		mov word[es:di+978],ax
   576 0000462F 268985D403              		mov word[es:di+980],ax
   577 00004634 268985D603              		mov word[es:di+982],ax
   578 00004639 268985D803              		mov word[es:di+984],ax
   579                                  		
   580 0000463E 2689856A04              		mov word[es:di+1130],ax
   581 00004643 2689856C04              		mov word[es:di+1132],ax
   582 00004648 2689856E04              		mov word[es:di+1134],ax
   583 0000464D 2689857004              		mov word[es:di+1136],ax
   584 00004652 2689857204              		mov word[es:di+1138],ax
   585 00004657 2689857404              		mov word[es:di+1140],ax
   586 0000465C 2689857604              		mov word[es:di+1142],ax
   587 00004661 2689857804              		mov word[es:di+1144],ax
   588                                  		
   589 00004666 2689850A05              		mov word[es:di+1290],ax
   590 0000466B 2689850C05              		mov word[es:di+1292],ax
   591 00004670 2689851605              		mov word[es:di+1302],ax
   592 00004675 2689851805              		mov word[es:di+1304],ax
   593                                  
   594 0000467A 268985AA05              		mov word[es:di+1450],ax
   595 0000467F 268985AC05              		mov word[es:di+1452],ax
   596 00004684 268985B605              		mov word[es:di+1462],ax
   597 00004689 268985B805              		mov word[es:di+1464],ax
   598                                  		
   599                                  		
   600 0000468E 2689854A06              		mov word[es:di+1610],ax
   601 00004693 2689854C06              		mov word[es:di+1612],ax
   602 00004698 2689855606              		mov word[es:di+1622],ax
   603 0000469D 2689855806              		mov word[es:di+1624],ax
   604                                  		
   605                                  		
   606 000046A2 61                      	  popa
   607 000046A3 C3                      	  ret
   608                                  	  
   609 000046A4 0000                    TITLE_BALLON_CURR_POS: dw 0	  
   610 000046A6 60                      TITLE_BALOON_CLEAR:pusha
   611                                  
   612 000046A7 8B3E[A446]                       mov di,[TITLE_BALLON_CURR_POS]
   613 000046AB 81C7A000                		 add di,160
   614 000046AF B82007                           mov ax,0x0720
   615 000046B2 B92007                  		 mov cx,0x0720
   616 000046B5 BA2007                  		 mov dx,0x0720
   617 000046B8 268985EC01                   	mov word[es:di+492],ax
   618 000046BD 268985EE01              		mov word[es:di+494],ax
   619 000046C2 268985F001              		mov word[es:di+496],ax
   620 000046C7 268985F601              		mov word[es:di+502],ax
   621 000046CC 268985F201              		mov word[es:di+498],ax
   622 000046D1 268985F401              		mov word[es:di+500],ax
   623                                  		
   624 000046D6 2689858802              		mov word[es:di+648],ax
   625 000046DB 2689858A02              		mov word[es:di+650],ax
   626 000046E0 2689859402              		mov word[es:di+660],ax
   627 000046E5 2689858C02              		mov word[es:di+652],ax
   628 000046EA 2689958E02              		mov word[es:di+654],dx
   629 000046EF 2689959002              		mov word[es:di+656],dx
   630 000046F4 2689859802              		mov word[es:di+664],ax
   631 000046F9 2689859602              		mov word[es:di+662],ax
   632 000046FE 2689959202              		mov word[es:di+658],dx
   633 00004703 2689859A02              		mov word[es:di+666],ax
   634                                  		
   635 00004708 2689852603              		mov word[es:di+806],ax
   636 0000470D 2689852803              		mov word[es:di+808],ax
   637 00004712 2689852A03              		mov word[es:di+810],ax
   638 00004717 2689952C03              		mov word[es:di+812],dx
   639 0000471C 2689952E03              		mov word[es:di+814],dx
   640 00004721 2689953003              		mov word[es:di+816],dx
   641 00004726 2689853203              		mov word[es:di+818],ax
   642 0000472B 2689853403              		mov word[es:di+820],ax
   643 00004730 2689853603              		mov word[es:di+822],ax
   644 00004735 2689853603              		mov word[es:di+822],ax
   645 0000473A 2689853803              		mov word[es:di+824],ax
   646 0000473F 2689853A03              		mov word[es:di+826],ax
   647 00004744 2689853C03              		mov word[es:di+828],ax
   648                                  		
   649 00004749 268985C603              		mov word[es:di+966],ax
   650 0000474E 268995CA03              		mov word[es:di+970],dx
   651 00004753 268995CE03              		mov word[es:di+974],dx
   652 00004758 268995CC03              		mov word[es:di+972],dx
   653 0000475D 268985C803              		mov word[es:di+968],ax
   654 00004762 268985D003              		mov word[es:di+976],ax
   655 00004767 268985D203              		mov word[es:di+978],ax
   656 0000476C 268985DA03              		mov word[es:di+986],ax
   657 00004771 268985D603              		mov word[es:di+982],ax
   658 00004776 268985D803              		mov word[es:di+984],ax
   659 0000477B 268985D403              		mov word[es:di+980],ax
   660 00004780 268985DC03              		mov word[es:di+988],ax
   661                                  		
   662 00004785 2689856A04              		mov word[es:di+1130],ax
   663 0000478A 2689856C04              		mov word[es:di+1132],ax
   664 0000478F 2689856804              		mov word[es:di+1128],ax
   665 00004794 2689857204              		mov word[es:di+1138],ax
   666 00004799 2689856E04              		mov word[es:di+1134],ax
   667 0000479E 2689857004              		mov word[es:di+1136],ax
   668 000047A3 2689857404              		mov word[es:di+1140],ax
   669 000047A8 2689857A04              		mov word[es:di+1146],ax
   670 000047AD 2689857604              		mov word[es:di+1142],ax
   671 000047B2 2689857804              		mov word[es:di+1144],ax
   672                                  		
   673 000047B7 2689850A05              		mov word[es:di+1290],ax
   674 000047BC 2689850C05              		mov word[es:di+1292],ax
   675 000047C1 2689850E05              		mov word[es:di+1294],ax
   676 000047C6 2689851005              		mov word[es:di+1296],ax
   677 000047CB 2689851205              		mov word[es:di+1298],ax
   678 000047D0 2689851405              		mov word[es:di+1300],ax
   679 000047D5 2689851605              		mov word[es:di+1302],ax
   680 000047DA 2689851805              		mov word[es:di+1304],ax
   681                                  
   682 000047DF 268985AC05              		mov word[es:di+1452],ax
   683                                  		
   684 000047E4 268985AE05              		mov word[es:di+1454],ax
   685 000047E9 268985B005              		mov word[es:di+1456],ax
   686 000047EE 268985B205              		mov word[es:di+1458],ax
   687                                  		
   688 000047F3 268985B405              		mov word[es:di+1460],ax
   689 000047F8 268985B605              		mov word[es:di+1462],ax
   690                                  		
   691 000047FD 2689855006              		mov word[es:di+1616],ax
   692 00004802 2689855206              		mov word[es:di+1618],ax
   693                                  		
   694 00004807 26898DF006                      mov word[es:di+1776],cx
   695 0000480C 26898D8A07              		mov word[es:di+1774+160-4],cx
   696 00004811 26898D8C07              		mov word[es:di+1774+160-2],cx
   697 00004816 26898D8E07              		mov word[es:di+1774+160],cx
   698 0000481B 26898D3008              		mov word[es:di+1776+320],cx
   699 00004820 26898DD608              		mov word[es:di+1778+480+4],cx
   700 00004825 26898DD408              		mov word[es:di+1778+480+2],cx
   701 0000482A 26898DD208              		mov word[es:di+1778+480],cx
   702 0000482F 26898D7009              		mov word[es:di+1776+640],cx
   703 00004834 26898D6C09              		mov word[es:di+1776+640-4],cx
   704 00004839 26898D6E09              		mov word[es:di+1776+640-2],cx
   705 0000483E 26898D7209              		mov word[es:di+1776+640+2],cx
   706 00004843 26898D7409              		mov word[es:di+1776+640+4],cx
   707                                  
   708 00004848 61                      popa 
   709 00004849 C3                      ret		
   710                                  ;;;=============================START SCREEN============================
   711                                  ;;;=====================================================================			  
   712                                  	  
   713                                  Draw_title_Baloon:	
   714 0000484A 60                        pusha
   715                                  		
   716 0000484B B405                    		mov ah,0x05
   717 0000484D B0DB                    		mov al,0xDB
   718 0000484F B60F                    		mov dh,0x0f
   719 00004851 B2DB                    		mov dl,0xDB
   720 00004853 B50F                    		mov ch,0x0f
   721 00004855 B105                    		mov cl,0x05
   722 00004857 BE00B8                  		mov si,0xb800
   723 0000485A 8EC6                    		mov es,si
   724 0000485C C706[A446]24FF          		mov word[TITLE_BALLON_CURR_POS],-220
   725                                  		
   726 00004862 BB0000                  		mov bx,0
   727 00004865 BD0000                  		mov bp,0
   728                                  	;call sleep
   729                                  		
   730 00004868 E8CAF8                          call clrscr
   731 0000486B E804F9                         	call print_P1
   732 0000486E E8A1F9                  			call print_O
   733 00004871 E84DFA                  			call print_P2
   734 00004874 E812FB                  			call  print_R
   735 00004877 E8FAFB                  			call print_U
   736 0000487A E89CFC                  			call print_S
   737 0000487D E84DFD                  			call print_H
   738 00004880 E8A202                  			call Instruction
   739                                  redraw:			
   740 00004883 E83502                  			call START
   741 00004886 E86902                  			call EXIT
   742                                  
   743 00004889 E81AFE                  		call TITLE_BALOON_CLEAR	
   744 0000488C 8B3E[A446]              		mov di,[TITLE_BALLON_CURR_POS]
   745 00004890 B405                             mov ah,0x05
   746 00004892 B0DB                    		mov al,0xDB
   747 00004894 268985EC01                   	mov word[es:di+492],ax
   748 00004899 268985EE01              		mov word[es:di+494],ax
   749 0000489E 268985F001              		mov word[es:di+496],ax
   750 000048A3 268985F601              		mov word[es:di+502],ax
   751 000048A8 268985F201              		mov word[es:di+498],ax
   752 000048AD 268985F401              		mov word[es:di+500],ax
   753                                  		
   754 000048B2 2689858802              		mov word[es:di+648],ax
   755 000048B7 2689858A02              		mov word[es:di+650],ax
   756 000048BC 2689859402              		mov word[es:di+660],ax
   757 000048C1 2689858C02              		mov word[es:di+652],ax
   758 000048C6 2689958E02              		mov word[es:di+654],dx
   759 000048CB 2689959002              		mov word[es:di+656],dx
   760 000048D0 2689859802              		mov word[es:di+664],ax
   761 000048D5 2689859602              		mov word[es:di+662],ax
   762 000048DA 2689959202              		mov word[es:di+658],dx
   763 000048DF 2689859A02              		mov word[es:di+666],ax
   764                                  		
   765 000048E4 2689852603              		mov word[es:di+806],ax
   766 000048E9 2689852803              		mov word[es:di+808],ax
   767 000048EE 2689852A03              		mov word[es:di+810],ax
   768 000048F3 2689952C03              		mov word[es:di+812],dx
   769 000048F8 2689952E03              		mov word[es:di+814],dx
   770 000048FD 2689953003              		mov word[es:di+816],dx
   771 00004902 2689853203              		mov word[es:di+818],ax
   772 00004907 2689853403              		mov word[es:di+820],ax
   773 0000490C 2689853603              		mov word[es:di+822],ax
   774 00004911 2689853603              		mov word[es:di+822],ax
   775 00004916 2689853803              		mov word[es:di+824],ax
   776 0000491B 2689853A03              		mov word[es:di+826],ax
   777 00004920 2689853C03              		mov word[es:di+828],ax
   778                                  		
   779 00004925 268985C603              		mov word[es:di+966],ax
   780 0000492A 268995CA03              		mov word[es:di+970],dx
   781 0000492F 268995CE03              		mov word[es:di+974],dx
   782 00004934 268995CC03              		mov word[es:di+972],dx
   783 00004939 268985C803              		mov word[es:di+968],ax
   784 0000493E 268985D003              		mov word[es:di+976],ax
   785 00004943 268985D203              		mov word[es:di+978],ax
   786 00004948 268985DA03              		mov word[es:di+986],ax
   787 0000494D 268985D603              		mov word[es:di+982],ax
   788 00004952 268985D803              		mov word[es:di+984],ax
   789 00004957 268985D403              		mov word[es:di+980],ax
   790 0000495C 268985DC03              		mov word[es:di+988],ax
   791                                  		
   792 00004961 2689856A04              		mov word[es:di+1130],ax
   793 00004966 2689856C04              		mov word[es:di+1132],ax
   794 0000496B 2689856804              		mov word[es:di+1128],ax
   795 00004970 2689857204              		mov word[es:di+1138],ax
   796 00004975 2689856E04              		mov word[es:di+1134],ax
   797 0000497A 2689857004              		mov word[es:di+1136],ax
   798 0000497F 2689857404              		mov word[es:di+1140],ax
   799 00004984 2689857A04              		mov word[es:di+1146],ax
   800 00004989 2689857604              		mov word[es:di+1142],ax
   801 0000498E 2689857804              		mov word[es:di+1144],ax
   802                                  		
   803 00004993 2689850A05              		mov word[es:di+1290],ax
   804 00004998 2689850C05              		mov word[es:di+1292],ax
   805 0000499D 2689850E05              		mov word[es:di+1294],ax
   806 000049A2 2689851005              		mov word[es:di+1296],ax
   807 000049A7 2689851205              		mov word[es:di+1298],ax
   808 000049AC 2689851405              		mov word[es:di+1300],ax
   809 000049B1 2689851605              		mov word[es:di+1302],ax
   810 000049B6 2689851805              		mov word[es:di+1304],ax
   811                                  
   812 000049BB 268985AC05              		mov word[es:di+1452],ax
   813                                  		
   814 000049C0 268985AE05              		mov word[es:di+1454],ax
   815 000049C5 268985B005              		mov word[es:di+1456],ax
   816 000049CA 268985B205              		mov word[es:di+1458],ax
   817                                  		
   818 000049CF 268985B405              		mov word[es:di+1460],ax
   819 000049D4 268985B605              		mov word[es:di+1462],ax
   820                                  		
   821 000049D9 2689855006              		mov word[es:di+1616],ax
   822 000049DE 2689855206              		mov word[es:di+1618],ax
   823                                  		
   824 000049E3 26898DF006                      mov word[es:di+1776],cx
   825 000049E8 2689898E07              		mov word[es:di+1774+160+bx],cx
   826 000049ED 26898D3008              		mov word[es:di+1776+320],cx
   827 000049F2 26898BD208              		mov word[es:di+1778+480+bp],cx
   828 000049F7 26898D7009              		mov word[es:di+1776+640],cx
   829                                  		
   830 000049FC E80BF7                  		call sleep
   831 000049FF 812E[A446]A000                  sub word[TITLE_BALLON_CURR_POS],160
   832 00004A05 83ED04                  		sub bp,4
   833 00004A08 83C304                  		add bx,4
   834 00004A0B E8FCF6                  		call sleep
   835                                  		
   836 00004A0E E8ECF6                  		call input
   837 00004A11 3C0D                    		cmp al,13
   838 00004A13 0F849900                		je done
   839 00004A17 3C73                    		cmp al,'s'
   840 00004A19 743C                    		je update_nav
   841 00004A1B 3C77                    		cmp al,'w'
   842 00004A1D 7438                    		je update_nav
   843 00004A1F E8E8F6                  retu1:		call sleep
   844 00004A22 3C0D                    cmp al,13
   845 00004A24 752F                    		jne up
   846 00004A26 83FB04                  retu:		cmp bx,4
   847 00004A29 7F25                    		jg update_BX
   848 00004A2B 83FDFC                  again1:		cmp bp,-4
   849 00004A2E 7C1B                    		jl update_BP
   850 00004A30 813E[A446]64F6          again:		cmp word[TITLE_BALLON_CURR_POS],-2460
   851 00004A36 0F8D49FE                		jge redraw
   852 00004A3A 813E[A446]64F6          		cmp word[TITLE_BALLON_CURR_POS],-2460
   853 00004A40 7400                    		je update_DI
   854 00004A42 C706[A446]C40E          update_DI: mov word[TITLE_BALLON_CURR_POS],3780
   855 00004A48 E938FE                             jmp redraw		
   856 00004A4B BD0000                  update_BP: mov bp,0
   857 00004A4E EBE0                               jmp  again    
   858 00004A50 BB0000                  update_BX: mov bx,0
   859 00004A53 EBD6                               jmp  again1   		   
   860 00004A55 EBCF                    up:jmp retu
   861 00004A57 803E[6E40]00            	 update_nav: cmp byte[first_movement],0
   862 00004A5C 740E                    	 je lets_start
   863 00004A5E 803E[6E40]01            	 cmp byte[first_movement],1
   864 00004A63 7D12                    	 jge lets_start2
   865 00004A65 803E[6D40]01            				 cmp byte[nav_count],1
   866 00004A6A 7425                    				 je last
   867 00004A6C 3C73                    	lets_start:			cmp al,'s'
   868 00004A6E 7423                    				je count_inc
   869 00004A70 803E[6D40]00            	back_to_1:	cmp byte[nav_count],0
   870 00004A75 741A                    				 je last
   871 00004A77 3C77                    	lets_start2:            cmp al,'w'
   872 00004A79 7424                    				je count_dec
   873 00004A7B 50                      	back_to_2:     push ax
   874 00004A7C A0[6C40]                			   mov al,byte[navigation22]	  
   875 00004A7F 8606[6B40]              			  XCHG al,[navigation12]
   876 00004A83 A2[6C40]                			  mov byte[navigation22],al
   877 00004A86 A0[6A40]                			   mov al,byte[navigation2]	  
   878 00004A89 8606[6940]              			  XCHG al,[navigation1]
   879 00004A8D A2[6A40]                			  mov byte[navigation2],al
   880 00004A90 58                      			  pop ax
   881 00004A91 EB8C                    	last:		  jmp  retu1
   882 00004A93 C606[6D40]01            	count_inc:  mov byte[nav_count],1
   883 00004A98 8006[6E40]01            				add byte[first_movement],1
   884 00004A9D EBD1                    			   jmp back_to_1
   885 00004A9F 803E[6E40]01            	 count_dec:cmp byte[first_movement],1
   886 00004AA4 C606[6D40]00            				 mov byte[nav_count],0
   887 00004AA9 C606[6E40]00            				 mov byte[first_movement],0
   888 00004AAE EBCB                    			   jmp back_to_2
   889                                  		   
   890 00004AB0 61                      done: popa
   891 00004AB1 803E[6E40]01                  cmp byte[first_movement],1
   892 00004AB6 0F8DC111                	  jge the_end
   893 00004ABA C3                      	  ret  
   894                                  
   895                                  ;;;=============================START MSG ON SCREEN============================
   896                                  ;;;============================================================================			  
   897                                  	  
   898                                  START:
   899 00004ABB 60                              pusha
   900 00004ABC BFF009                  		mov di,2544
   901 00004ABF BE0000                  		mov si,0
   902 00004AC2 B800B8                  		mov ax,0xb800
   903 00004AC5 8EC0                    		mov es,ax
   904 00004AC7 8A2E[6A40]              		mov ch,[navigation2]
   905 00004ACB B120                    		mov cl,' '
   906 00004ACD 26894D0A                		mov  word[es:di+10],cx
   907 00004AD1 26894D01                		mov  word[es:di+1],cx
   908 00004AD5 26894DFE                		mov  word[es:di-2],cx
   909 00004AD9 8A2E[6B40]              		mov ch,[navigation12]
   910 00004ADD 8A8C[C740]              loop1:		mov cl,[msg1+si]
   911 00004AE1 26890D                  		mov  word[es:di],cx
   912 00004AE4 83C702                  		add di,2
   913 00004AE7 83C601                  		add si,1
   914 00004AEA 3B36[CC40]              		cmp si,[size1]
   915 00004AEE 7EED                    		jle loop1
   916 00004AF0 61                           popa 
   917 00004AF1 C3                           ret	 
   918                                  
   919                                  ;;;=============================EXIT MSG ON START SCREEN============================
   920                                  ;;;=================================================================================		
   921                                  	 
   922                                  EXIT:
   923 00004AF2 60                              pusha
   924 00004AF3 BF320B                  		mov di,2866
   925 00004AF6 BE0000                  		mov si,0
   926 00004AF9 B800B8                  		mov ax,0xb800
   927 00004AFC 8EC0                    		mov es,ax
   928 00004AFE 8A2E[6940]              		mov ch,[navigation1]
   929 00004B02 B120                    		mov cl,' '
   930 00004B04 26894D08                		mov  word[es:di+8],cx
   931 00004B08 26894DFE                		mov  word[es:di-2],cx
   932 00004B0C 8A2E[6C40]              		mov ch,[navigation22]
   933 00004B10 8A8C[CE40]              loop2:		mov cl,[msg2+si]
   934 00004B14 26890D                  		mov  word[es:di],cx
   935 00004B17 83C702                  		add di,2
   936 00004B1A 83C601                  		add si,1
   937 00004B1D 3B36[D240]              		cmp si,[size2]
   938 00004B21 7EED                    		jle loop2
   939 00004B23 61                           popa 
   940 00004B24 C3                           ret
   941                                  	 
   942                                  ;;;=============================INSTRUCTION ON START SCREEN============================
   943                                  ;;;====================================================================================		
   944                                  	 
   945                                  Instruction:
   946 00004B25 60                              pusha
   947 00004B26 BF6C0E                  		mov di,3692
   948 00004B29 BE0000                  		mov si,0
   949 00004B2C B800B8                  		mov ax,0xb800
   950 00004B2F 8EC0                    		mov es,ax
   951 00004B31 B50A                    		mov ch,0x0A
   952 00004B33 8A8C[D440]              loop3:		mov cl,[msg3+si]
   953 00004B37 26890D                  		mov  word[es:di],cx
   954 00004B3A 83C702                  		add di,2
   955 00004B3D 83C601                  		add si,1
   956 00004B40 3B36[FB40]              		cmp si,[size3]
   957 00004B44 7EED                    		jle loop3
   958 00004B46 61                           popa 
   959 00004B47 C3                           ret 
   960                                  
   961                                  ;;;=============================CLEAR SCREEN FOR GAME OVER============================
   962                                  ;;;===================================================================================		
   963                                  
   964                                  clrscr_:
   965 00004B48 50                      	push ax
   966 00004B49 06                      	push es
   967                                  	
   968 00004B4A 57                      	push di
   969                                  	
   970 00004B4B B800B8                  	mov ax , 0xb800
   971 00004B4E BF0000                  	mov di , 0
   972 00004B51 8EC0                    	mov es , ax
   973                                  	
   974                                  	nextchar_:
   975 00004B53 B400                    		mov ah , 0x00
   976 00004B55 B020                    		mov al,' '
   977 00004B57 268905                  		mov word [es:di] , ax
   978 00004B5A 83C702                  		add di , 2
   979 00004B5D 81FFA00F                		cmp di , 4000
   980 00004B61 75F0                    		jne nextchar_	
   981                                  
   982 00004B63 5F                            pop di
   983 00004B64 07                      	  pop es
   984 00004B65 58                      	  pop ax
   985 00004B66 C3                            ret  
   986                                  	  
   987                                  	  
   988                                  ;;;=============================GAME OVER SCREEN LETTERS============================
   989                                  ;;;=================================================================================
   990                                  
   991                                  			  
   992                                  print_G_:
   993 00004B67 60                              pusha
   994                                  		
   995 00004B68 B40F                    		mov ah,0x0F
   996 00004B6A B0DB                    		mov al,0xDB
   997                                  		
   998 00004B6C BE00B8                  		mov si,0xb800
   999 00004B6F 8EC6                    		mov es,si
  1000 00004B71 BFA8FF                  		mov di,-88
  1001 00004B74 268985EC01              		mov word[es:di+492],ax
  1002 00004B79 268985EE01              		mov word[es:di+494],ax
  1003 00004B7E 268985F001              		mov word[es:di+496],ax
  1004 00004B83 268985F201              		mov word[es:di+498],ax
  1005 00004B88 268985F401              		mov word[es:di+500],ax
  1006                                  		
  1007 00004B8D 2689858A02              		mov word[es:di+650],ax
  1008 00004B92 2689858C02              		mov word[es:di+652],ax
  1009 00004B97 2689859602              		mov word[es:di+662],ax
  1010 00004B9C 2689859802              		mov word[es:di+664],ax
  1011                                  		
  1012                                  		
  1013 00004BA1 2689852A03              		mov word[es:di+810],ax
  1014 00004BA6 2689852C03              		mov word[es:di+812],ax
  1015 00004BAB 2689852803              		mov word[es:di+808],ax
  1016                                  		
  1017 00004BB0 268985CA03              		mov word[es:di+970],ax
  1018 00004BB5 268985CC03              		mov word[es:di+972],ax
  1019 00004BBA 268985D803              		mov word[es:di+984],ax
  1020 00004BBF 268985C803              		mov word[es:di+968],ax
  1021 00004BC4 268985D603              		mov word[es:di+982],ax
  1022 00004BC9 268985D403              		mov word[es:di+980],ax
  1023 00004BCE 268985D203              		mov word[es:di+978],ax
  1024                                  		
  1025 00004BD3 2689856C04              		 mov word[es:di+1132],ax
  1026 00004BD8 2689856A04              		 mov word[es:di+1130],ax
  1027 00004BDD 2689857604              		 mov word[es:di+1142],ax
  1028 00004BE2 2689857804              		 mov word[es:di+1144],ax
  1029                                  		
  1030 00004BE7 2689850E05              		 mov word[es:di+1294],ax
  1031 00004BEC 2689851005              		 mov word[es:di+1296],ax
  1032 00004BF1 2689851205              		 mov word[es:di+1298],ax
  1033 00004BF6 2689851405              		 mov word[es:di+1300],ax
  1034                                  
  1035                                  		
  1036 00004BFB 61                      	  popa
  1037 00004BFC C3                      	  ret
  1038                                  	  
  1039                                  print_A_:
  1040 00004BFD 60                              pusha
  1041                                  		
  1042 00004BFE B40F                    		mov ah,0x0F
  1043 00004C00 B0DB                    		mov al,0xDB
  1044                                  		
  1045 00004C02 BE00B8                  		mov si,0xb800
  1046 00004C05 8EC6                    		mov es,si
  1047 00004C07 BF1AFF                  		mov di,-230
  1048                                  	
  1049 00004C0A 2689858C02              		mov word[es:di+652],ax
  1050 00004C0F 2689858E02              		mov word[es:di+654],ax
  1051 00004C14 2689859002              		mov word[es:di+656],ax
  1052 00004C19 2689859202              		mov word[es:di+658],ax
  1053 00004C1E 2689859402              		mov word[es:di+660],ax
  1054 00004C23 2689859602              		mov word[es:di+662],ax
  1055                                  		
  1056 00004C28 2689852A03              		mov word[es:di+810],ax
  1057 00004C2D 2689852C03              		mov word[es:di+812],ax
  1058 00004C32 2689853603              		mov word[es:di+822],ax
  1059 00004C37 2689853803              		mov word[es:di+824],ax
  1060                                  		
  1061 00004C3C 268985CA03              		mov word[es:di+970],ax
  1062 00004C41 268985CC03              		mov word[es:di+972],ax
  1063 00004C46 268985D603              		mov word[es:di+982],ax
  1064 00004C4B 268985D803              		mov word[es:di+984],ax
  1065                                  		
  1066 00004C50 2689856A04              		mov word[es:di+1130],ax
  1067 00004C55 2689856C04              		mov word[es:di+1132],ax
  1068 00004C5A 2689856E04              		mov word[es:di+1134],ax
  1069 00004C5F 2689857004              		mov word[es:di+1136],ax
  1070 00004C64 2689857204              		mov word[es:di+1138],ax
  1071 00004C69 2689857404              		mov word[es:di+1140],ax
  1072 00004C6E 2689857604              		mov word[es:di+1142],ax
  1073 00004C73 2689857804              		mov word[es:di+1144],ax
  1074                                  		
  1075 00004C78 2689850A05              		mov word[es:di+1290],ax
  1076 00004C7D 2689850C05              		mov word[es:di+1292],ax
  1077 00004C82 2689851605              		mov word[es:di+1302],ax
  1078 00004C87 2689851805              		mov word[es:di+1304],ax
  1079                                  
  1080 00004C8C 268985AA05              		mov word[es:di+1450],ax
  1081 00004C91 268985AC05              		mov word[es:di+1452],ax
  1082 00004C96 268985B605              		mov word[es:di+1462],ax
  1083 00004C9B 268985B805              		mov word[es:di+1464],ax
  1084                                  
  1085                                  		
  1086 00004CA0 61                      	  popa
  1087 00004CA1 C3                      	  ret	  
  1088                                  print_M_:
  1089 00004CA2 60                              pusha
  1090                                  		
  1091 00004CA3 B40F                    		mov ah,0x0F
  1092 00004CA5 B0DB                    		mov al,0xDB
  1093                                  		
  1094 00004CA7 BE00B8                  		mov si,0xb800
  1095 00004CAA 8EC6                    		mov es,si
  1096 00004CAC BF2EFF                  		mov di,-210
  1097                                  	    
  1098 00004CAF 2689858802              		mov word[es:di+648],ax
  1099 00004CB4 2689858A02              		mov word[es:di+650],ax
  1100 00004CB9 2689858C02              		 mov word[es:di+652],ax
  1101 00004CBE 2689852C03              		 mov word[es:di+652+160],ax
  1102 00004CC3 2689852E03              		 mov word[es:di+654+160],ax
  1103 00004CC8 268985D003              		 mov word[es:di+656+320],ax
  1104 00004CCD 268985D203              		 mov word[es:di+658+320],ax
  1105 00004CD2 2689853403              		 mov word[es:di+660+160],ax
  1106 00004CD7 2689853603              		 mov word[es:di+662+160],ax
  1107 00004CDC 2689853803              		 mov word[es:di+664+160],ax
  1108 00004CE1 2689859602              		  mov word[es:di+662],ax
  1109 00004CE6 2689859802              		mov word[es:di+664],ax
  1110 00004CEB 2689859A02              		mov word[es:di+666],ax
  1111                                  		
  1112 00004CF0 2689852803              		mov word[es:di+808],ax
  1113 00004CF5 2689852A03              		mov word[es:di+810],ax
  1114 00004CFA 2689853803              		mov word[es:di+824],ax
  1115 00004CFF 2689853A03              		mov word[es:di+826],ax
  1116                                  		
  1117 00004D04 268985C803              		mov word[es:di+968],ax
  1118 00004D09 268985CA03              		mov word[es:di+970],ax
  1119 00004D0E 268985D803              		mov word[es:di+984],ax
  1120 00004D13 268985DA03              		mov word[es:di+986],ax
  1121                                  		
  1122 00004D18 2689856804              		mov word[es:di+1128],ax
  1123 00004D1D 2689856A04              		mov word[es:di+1130],ax
  1124 00004D22 2689857804              		mov word[es:di+1144],ax
  1125 00004D27 2689857A04              		mov word[es:di+1146],ax
  1126                                  		
  1127 00004D2C 2689850805              		mov word[es:di+1288],ax
  1128 00004D31 2689850A05              		mov word[es:di+1290],ax
  1129 00004D36 2689851805              		mov word[es:di+1304],ax
  1130 00004D3B 2689851A05              		mov word[es:di+1306],ax
  1131                                  
  1132 00004D40 268985A805              		mov word[es:di+1448],ax
  1133 00004D45 268985AA05              		mov word[es:di+1450],ax
  1134 00004D4A 268985B805              		mov word[es:di+1464],ax
  1135 00004D4F 268985BA05              		mov word[es:di+1466],ax
  1136                                  		
  1137                                  		
  1138 00004D54 61                      	  popa
  1139 00004D55 C3                      	  ret	  	  
  1140                                  	  
  1141                                  print_E1_:
  1142 00004D56 60                              pusha
  1143                                  		
  1144 00004D57 B40F                    		mov ah,0x0F
  1145 00004D59 B0DB                    		mov al,0xDB
  1146                                  		
  1147 00004D5B BE00B8                  		mov si,0xb800
  1148 00004D5E 8EC6                    		mov es,si
  1149 00004D60 BF42FF                  		mov di,-190
  1150                                          
  1151 00004D63 2689858A02                      mov word[es:di+650],ax		
  1152 00004D68 2689858C02              		mov word[es:di+652],ax
  1153 00004D6D 2689858E02              		mov word[es:di+654],ax
  1154 00004D72 2689859002              		mov word[es:di+656],ax
  1155 00004D77 2689859202              		mov word[es:di+658],ax
  1156 00004D7C 2689859402              		mov word[es:di+660],ax
  1157 00004D81 2689859602              		mov word[es:di+662],ax
  1158 00004D86 2689859802              		mov word[es:di+664],ax
  1159                                  		
  1160 00004D8B 2689852A03              		mov word[es:di+810],ax
  1161 00004D90 2689852C03              		mov word[es:di+812],ax
  1162                                  		
  1163 00004D95 268985CA03              		mov word[es:di+970],ax
  1164 00004D9A 268985CC03              		mov word[es:di+972],ax
  1165                                  		
  1166                                  		
  1167 00004D9F 2689856A04              		mov word[es:di+1130],ax
  1168 00004DA4 2689856C04              		mov word[es:di+1132],ax
  1169 00004DA9 2689856E04              		mov word[es:di+1134],ax
  1170 00004DAE 2689857004              		mov word[es:di+1136],ax
  1171 00004DB3 2689857204              		mov word[es:di+1138],ax
  1172 00004DB8 2689857404              		mov word[es:di+1140],ax
  1173                                  		
  1174                                  		
  1175 00004DBD 2689850A05              		mov word[es:di+1290],ax
  1176 00004DC2 2689850C05              		mov word[es:di+1292],ax
  1177                                  
  1178 00004DC7 268985AA05              		mov word[es:di+1450],ax
  1179 00004DCC 268985AC05              		mov word[es:di+1452],ax
  1180 00004DD1 268985AE05              		mov word[es:di+1454],ax
  1181 00004DD6 268985B005              		mov word[es:di+1456],ax
  1182 00004DDB 268985B205              		mov word[es:di+1458],ax
  1183 00004DE0 268985B405              		mov word[es:di+1460],ax
  1184 00004DE5 268985B605              		mov word[es:di+1462],ax
  1185 00004DEA 268985B805              		mov word[es:di+1464],ax
  1186                                  
  1187                                  		
  1188 00004DEF 61                      	  popa
  1189 00004DF0 C3                      	  ret	  
  1190                                  	  
  1191                                  print_O_:
  1192 00004DF1 60                              pusha
  1193                                  		
  1194                                  		
  1195                                  		
  1196 00004DF2 B40E                    		mov ah,0x0E
  1197 00004DF4 B0DB                    		mov al,0xDB
  1198                                  		
  1199 00004DF6 BE00B8                  		mov si,0xb800
  1200 00004DF9 8EC6                    		mov es,si
  1201 00004DFB BFFC03                  		mov di,1020
  1202 00004DFE 2689858E02              		mov word[es:di+494+160],ax
  1203 00004E03 2689859002              		mov word[es:di+496+160],ax
  1204 00004E08 2689859202              		mov word[es:di+498+160],ax
  1205 00004E0D 2689859402              		mov word[es:di+500+160],ax
  1206                                  		
  1207 00004E12 2689852A03              		mov word[es:di+810],ax
  1208 00004E17 2689852C03              		mov word[es:di+812],ax
  1209 00004E1C 2689853603              		mov word[es:di+822],ax
  1210 00004E21 2689853803              		mov word[es:di+824],ax
  1211                                  		
  1212 00004E26 268985CA03              		mov word[es:di+970],ax
  1213 00004E2B 268985CC03              		mov word[es:di+972],ax
  1214 00004E30 268985C803              		mov word[es:di+968],ax
  1215 00004E35 268985DA03              		mov word[es:di+986],ax
  1216 00004E3A 268985D603              		mov word[es:di+982],ax
  1217 00004E3F 268985D803              		mov word[es:di+984],ax
  1218                                  		
  1219 00004E44 2689856A04              		mov word[es:di+1130],ax
  1220 00004E49 2689856C04              		mov word[es:di+1132],ax
  1221 00004E4E 2689856804              		mov word[es:di+1128],ax
  1222 00004E53 2689857A04              		mov word[es:di+1146],ax
  1223 00004E58 2689857604              		mov word[es:di+1142],ax
  1224 00004E5D 2689857804              		mov word[es:di+1144],ax
  1225                                  		
  1226 00004E62 2689850A05              		 mov word[es:di+1290],ax
  1227 00004E67 2689850C05              		 mov word[es:di+1292],ax
  1228 00004E6C 2689851605              		 mov word[es:di+1302],ax
  1229 00004E71 2689851805              		 mov word[es:di+1304],ax
  1230                                  
  1231                                  		
  1232 00004E76 268985AE05              		mov word[es:di+1614-160],ax
  1233 00004E7B 268985B005              		mov word[es:di+1616-160],ax
  1234 00004E80 268985B205              		mov word[es:di+1618-160],ax
  1235 00004E85 268985B405              		mov word[es:di+1620-160],ax
  1236 00004E8A 61                      	  popa
  1237 00004E8B C3                      	  ret
  1238                                  
  1239                                  print_V_:
  1240 00004E8C 60                              pusha
  1241                                  		
  1242 00004E8D B40E                    		mov ah,0x0E
  1243 00004E8F B0DB                    		mov al,0xDB
  1244                                  		
  1245 00004E91 BE00B8                  		mov si,0xb800
  1246 00004E94 8EC6                    		mov es,si
  1247 00004E96 BF1004                  		mov di,1040
  1248                                  		
  1249 00004E99 2689858A02              		mov word[es:di+650],ax
  1250 00004E9E 2689858C02              		mov word[es:di+652],ax
  1251 00004EA3 2689859602              		mov word[es:di+662],ax
  1252 00004EA8 2689859802              		mov word[es:di+664],ax
  1253                                  		
  1254 00004EAD 2689852A03              		mov word[es:di+810],ax
  1255 00004EB2 2689852C03              		mov word[es:di+812],ax
  1256 00004EB7 2689853603              		mov word[es:di+822],ax
  1257 00004EBC 2689853803              		mov word[es:di+824],ax
  1258                                  		
  1259 00004EC1 268985CA03              		mov word[es:di+970],ax
  1260 00004EC6 268985CC03              		mov word[es:di+972],ax
  1261 00004ECB 268985D603              		mov word[es:di+982],ax
  1262 00004ED0 268985D803              		mov word[es:di+984],ax
  1263                                  		
  1264 00004ED5 2689856A04              		mov word[es:di+1130],ax
  1265 00004EDA 2689856C04              		mov word[es:di+1132],ax
  1266 00004EDF 2689857604              		mov word[es:di+1142],ax
  1267 00004EE4 2689857804              		mov word[es:di+1144],ax
  1268                                  		
  1269 00004EE9 2689850C05              		 mov word[es:di+1292],ax
  1270 00004EEE 2689851605              		 mov word[es:di+1302],ax
  1271 00004EF3 2689850E05                      mov word[es:di+1454-160],ax
  1272 00004EF8 2689851405              		mov word[es:di+1460-160],ax
  1273                                  
  1274 00004EFD 268985B005              		mov word[es:di+1616-160],ax
  1275 00004F02 268985B205              		mov word[es:di+1618-160],ax
  1276                                  		
  1277                                  
  1278 00004F07 61                      	  popa
  1279 00004F08 C3                      	  ret
  1280                                  	  
  1281                                  print_E2_:
  1282 00004F09 60                              pusha
  1283                                  		
  1284 00004F0A B40E                    		mov ah,0x0E
  1285 00004F0C B0DB                    		mov al,0xDB
  1286                                  		
  1287 00004F0E BE00B8                  		mov si,0xb800
  1288 00004F11 8EC6                    		mov es,si
  1289 00004F13 BF2204                  		mov di,1058
  1290                                          
  1291 00004F16 2689858A02                      mov word[es:di+650],ax		
  1292 00004F1B 2689858C02              		mov word[es:di+652],ax
  1293 00004F20 2689858E02              		mov word[es:di+654],ax
  1294 00004F25 2689859002              		mov word[es:di+656],ax
  1295 00004F2A 2689859202              		mov word[es:di+658],ax
  1296 00004F2F 2689859402              		mov word[es:di+660],ax
  1297 00004F34 2689859602              		mov word[es:di+662],ax
  1298 00004F39 2689859802              		mov word[es:di+664],ax
  1299                                  		
  1300 00004F3E 2689852A03              		mov word[es:di+810],ax
  1301 00004F43 2689852C03              		mov word[es:di+812],ax
  1302                                  		
  1303 00004F48 268985CA03              		mov word[es:di+970],ax
  1304 00004F4D 268985CC03              		mov word[es:di+972],ax
  1305                                  		
  1306                                  		
  1307 00004F52 2689856A04              		mov word[es:di+1130],ax
  1308 00004F57 2689856C04              		mov word[es:di+1132],ax
  1309 00004F5C 2689856E04              		mov word[es:di+1134],ax
  1310 00004F61 2689857004              		mov word[es:di+1136],ax
  1311 00004F66 2689857204              		mov word[es:di+1138],ax
  1312 00004F6B 2689857404              		mov word[es:di+1140],ax
  1313                                  		
  1314                                  		
  1315 00004F70 2689850A05              		mov word[es:di+1290],ax
  1316 00004F75 2689850C05              		mov word[es:di+1292],ax
  1317                                  
  1318 00004F7A 268985AA05              		mov word[es:di+1450],ax
  1319 00004F7F 268985AC05              		mov word[es:di+1452],ax
  1320 00004F84 268985AE05              		mov word[es:di+1454],ax
  1321 00004F89 268985B005              		mov word[es:di+1456],ax
  1322 00004F8E 268985B205              		mov word[es:di+1458],ax
  1323 00004F93 268985B405              		mov word[es:di+1460],ax
  1324 00004F98 268985B605              		mov word[es:di+1462],ax
  1325 00004F9D 268985B805              		mov word[es:di+1464],ax
  1326                                  
  1327                                  		
  1328 00004FA2 61                      	  popa
  1329 00004FA3 C3                      	  ret	
  1330                                  
  1331                                  print_R_:
  1332 00004FA4 60                              pusha
  1333                                  		
  1334 00004FA5 B40E                    		mov ah,0x0E
  1335 00004FA7 B0DB                    		mov al,0xDB
  1336                                  		
  1337 00004FA9 BE00B8                  		mov si,0xb800
  1338 00004FAC 8EC6                    		mov es,si
  1339 00004FAE BF3604                  		mov di,1078
  1340 00004FB1 2689858A02              		mov word[es:di+490+160],ax
  1341 00004FB6 2689858C02              		mov word[es:di+492+160],ax
  1342 00004FBB 2689858E02              		mov word[es:di+494+160],ax
  1343 00004FC0 2689859002              		mov word[es:di+496+160],ax
  1344 00004FC5 2689859202              		mov word[es:di+498+160],ax
  1345 00004FCA 2689859402              		mov word[es:di+500+160],ax
  1346 00004FCF 2689859602              		mov word[es:di+662],ax
  1347                                  		
  1348 00004FD4 2689852A03              		mov word[es:di+810],ax
  1349 00004FD9 2689852C03              		mov word[es:di+812],ax
  1350 00004FDE 2689853603              		mov word[es:di+822],ax
  1351 00004FE3 2689853803              		mov word[es:di+824],ax
  1352                                  		
  1353 00004FE8 268985CA03              		mov word[es:di+970],ax
  1354 00004FED 268985CC03              		mov word[es:di+972],ax
  1355 00004FF2 268985D603              		mov word[es:di+982],ax
  1356 00004FF7 268985D803              		mov word[es:di+984],ax
  1357                                  		
  1358 00004FFC 2689856A04              		mov word[es:di+1130],ax
  1359 00005001 2689856C04              		mov word[es:di+1132],ax
  1360 00005006 2689856E04              		mov word[es:di+1134],ax
  1361 0000500B 2689857004              		mov word[es:di+1136],ax
  1362 00005010 2689857204              		mov word[es:di+1138],ax
  1363 00005015 2689857404              		mov word[es:di+1140],ax
  1364 0000501A 2689857604              		mov word[es:di+1142],ax
  1365                                  		
  1366 0000501F 2689850A05              		mov word[es:di+1290],ax
  1367 00005024 2689850C05              		mov word[es:di+1292],ax
  1368 00005029 2689851205              		mov word[es:di+1298],ax
  1369 0000502E 2689851405              		mov word[es:di+1300],ax
  1370                                  
  1371 00005033 268985AA05              		mov word[es:di+1450],ax
  1372 00005038 268985AC05              		mov word[es:di+1452],ax
  1373 0000503D 268985B405              		mov word[es:di+1460],ax
  1374 00005042 268985B605              		mov word[es:di+1462],ax
  1375                                  				
  1376 00005047 61                      	  popa
  1377 00005048 C3                      	  ret
  1378                                  
  1379                                  
  1380 00005049 0000                    END_BALLON_CURR_POS: dw 0	  
  1381 0000504B 60                      END_BALOON_CLEAR:pusha
  1382                                  
  1383 0000504C 8B3E[4950]                       mov di,[END_BALLON_CURR_POS]
  1384 00005050 81C7A000                		 add di,160
  1385 00005054 B82007                           mov ax,0x0720
  1386 00005057 B92007                  		 mov cx,0x0720
  1387 0000505A BA2007                  		 mov dx,0x0720
  1388 0000505D 268985EC01                   	mov word[es:di+492],ax
  1389 00005062 268985EE01              		mov word[es:di+494],ax
  1390 00005067 268985F001              		mov word[es:di+496],ax
  1391 0000506C 268985F601              		mov word[es:di+502],ax
  1392 00005071 268985F201              		mov word[es:di+498],ax
  1393 00005076 268985F401              		mov word[es:di+500],ax
  1394                                  		
  1395 0000507B 2689858802              		mov word[es:di+648],ax
  1396 00005080 2689858A02              		mov word[es:di+650],ax
  1397 00005085 2689859402              		mov word[es:di+660],ax
  1398 0000508A 2689858C02              		mov word[es:di+652],ax
  1399 0000508F 2689958E02              		mov word[es:di+654],dx
  1400 00005094 2689959002              		mov word[es:di+656],dx
  1401 00005099 2689859802              		mov word[es:di+664],ax
  1402 0000509E 2689859602              		mov word[es:di+662],ax
  1403 000050A3 2689959202              		mov word[es:di+658],dx
  1404 000050A8 2689859A02              		mov word[es:di+666],ax
  1405                                  		
  1406 000050AD 2689852603              		mov word[es:di+806],ax
  1407 000050B2 2689852803              		mov word[es:di+808],ax
  1408 000050B7 2689852A03              		mov word[es:di+810],ax
  1409 000050BC 2689952C03              		mov word[es:di+812],dx
  1410 000050C1 2689952E03              		mov word[es:di+814],dx
  1411 000050C6 2689953003              		mov word[es:di+816],dx
  1412 000050CB 2689853203              		mov word[es:di+818],ax
  1413 000050D0 2689853403              		mov word[es:di+820],ax
  1414 000050D5 2689853603              		mov word[es:di+822],ax
  1415 000050DA 2689853603              		mov word[es:di+822],ax
  1416 000050DF 2689853803              		mov word[es:di+824],ax
  1417 000050E4 2689853A03              		mov word[es:di+826],ax
  1418 000050E9 2689853C03              		mov word[es:di+828],ax
  1419                                  		
  1420 000050EE 268985C603              		mov word[es:di+966],ax
  1421 000050F3 268995CA03              		mov word[es:di+970],dx
  1422 000050F8 268995CE03              		mov word[es:di+974],dx
  1423 000050FD 268995CC03              		mov word[es:di+972],dx
  1424 00005102 268985C803              		mov word[es:di+968],ax
  1425 00005107 268985D003              		mov word[es:di+976],ax
  1426 0000510C 268985D203              		mov word[es:di+978],ax
  1427 00005111 268985DA03              		mov word[es:di+986],ax
  1428 00005116 268985D603              		mov word[es:di+982],ax
  1429 0000511B 268985D803              		mov word[es:di+984],ax
  1430 00005120 268985D403              		mov word[es:di+980],ax
  1431 00005125 268985DC03              		mov word[es:di+988],ax
  1432                                  		
  1433 0000512A 2689856A04              		mov word[es:di+1130],ax
  1434 0000512F 2689856C04              		mov word[es:di+1132],ax
  1435 00005134 2689856804              		mov word[es:di+1128],ax
  1436 00005139 2689857204              		mov word[es:di+1138],ax
  1437 0000513E 2689856E04              		mov word[es:di+1134],ax
  1438 00005143 2689857004              		mov word[es:di+1136],ax
  1439 00005148 2689857404              		mov word[es:di+1140],ax
  1440 0000514D 2689857A04              		mov word[es:di+1146],ax
  1441 00005152 2689857604              		mov word[es:di+1142],ax
  1442 00005157 2689857804              		mov word[es:di+1144],ax
  1443                                  		
  1444 0000515C 2689850A05              		mov word[es:di+1290],ax
  1445 00005161 2689850C05              		mov word[es:di+1292],ax
  1446 00005166 2689850E05              		mov word[es:di+1294],ax
  1447 0000516B 2689851005              		mov word[es:di+1296],ax
  1448 00005170 2689851205              		mov word[es:di+1298],ax
  1449 00005175 2689851405              		mov word[es:di+1300],ax
  1450 0000517A 2689851605              		mov word[es:di+1302],ax
  1451 0000517F 2689851805              		mov word[es:di+1304],ax
  1452                                  
  1453 00005184 268985AC05              		mov word[es:di+1452],ax
  1454                                  		
  1455 00005189 268985AE05              		mov word[es:di+1454],ax
  1456 0000518E 268985B005              		mov word[es:di+1456],ax
  1457 00005193 268985B205              		mov word[es:di+1458],ax
  1458                                  		
  1459 00005198 268985B405              		mov word[es:di+1460],ax
  1460 0000519D 268985B605              		mov word[es:di+1462],ax
  1461                                  		
  1462 000051A2 2689855006              		mov word[es:di+1616],ax
  1463 000051A7 2689855206              		mov word[es:di+1618],ax
  1464                                  		
  1465 000051AC 26898DF006                      mov word[es:di+1776],cx
  1466 000051B1 26898D8A07              		mov word[es:di+1774+160-4],cx
  1467 000051B6 26898D8C07              		mov word[es:di+1774+160-2],cx
  1468 000051BB 26898D8E07              		mov word[es:di+1774+160],cx
  1469 000051C0 26898D3008              		mov word[es:di+1776+320],cx
  1470 000051C5 26898DD608              		mov word[es:di+1778+480+4],cx
  1471 000051CA 26898DD408              		mov word[es:di+1778+480+2],cx
  1472 000051CF 26898DD208              		mov word[es:di+1778+480],cx
  1473 000051D4 26898D7009              		mov word[es:di+1776+640],cx
  1474 000051D9 26898D6C09              		mov word[es:di+1776+640-4],cx
  1475 000051DE 26898D6E09              		mov word[es:di+1776+640-2],cx
  1476 000051E3 26898D7209              		mov word[es:di+1776+640+2],cx
  1477 000051E8 26898D7409              		mov word[es:di+1776+640+4],cx
  1478 000051ED 26898D140A              		mov word[es:di+1776+800+4],cx
  1479 000051F2 26898D120A              		mov word[es:di+1776+800+2],cx
  1480 000051F7 26898D100A              		mov word[es:di+1776+800],cx
  1481 000051FC 26898D0C0A              		mov word[es:di+1776+800-4],cx
  1482 00005201 26898D0E0A              		mov word[es:di+1776+800-2],cx
  1483                                  
  1484 00005206 61                      popa 
  1485 00005207 C3                      ret	
  1486                                  
  1487                                  ;;;=============================GAME OVER SCREEN============================
  1488                                  ;;;=========================================================================		
  1489                                  
  1490                                  Draw_end_Baloon:	
  1491 00005208 60                        pusha
  1492                                  		
  1493 00005209 B40C                    		mov ah,0x0C
  1494 0000520B B0DB                    		mov al,0xDB
  1495 0000520D B60F                    		mov dh,0x0f
  1496 0000520F B2DB                    		mov dl,0xDB
  1497 00005211 B50F                    		mov ch,0x0F
  1498 00005213 B106                    		mov cl,0x06
  1499 00005215 BE00B8                  		mov si,0xb800
  1500 00005218 8EC6                    		mov es,si
  1501 0000521A C706[4950]D4FE          		mov word[END_BALLON_CURR_POS],-300
  1502 00005220 BB0000                  		mov bx,0
  1503 00005223 BD0000                  		mov bp,0
  1504                                  	
  1505                                  
  1506                                  
  1507                                  
  1508                                  
  1509 00005226 E81FF9                          call clrscr_
  1510 00005229 E83BF9                         	call print_G_		  
  1511 0000522C E8CEF9                  	      call print_A_
  1512 0000522F E870FA                  		  call print_M_
  1513 00005232 E821FB                  		  call print_E1_
  1514 00005235 E8B9FB                  		  call print_O_
  1515 00005238 E851FC                  		  call print_V_
  1516 0000523B E8CBFC                  		  call print_E2_
  1517 0000523E E863FD                  		  call print_R_
  1518 00005241 E8B802                  		  call Y_S
  1519 00005244 E8F902                  			call Instruction_
  1520                                  redraw_:			
  1521 00005247 E84802                  			call START_
  1522 0000524A E87C02                  			call EXIT_
  1523 0000524D 8B3E[4950]              			mov di,[END_BALLON_CURR_POS]
  1524 00005251 E8F7FD                  			call END_BALOON_CLEAR
  1525 00005254 B40C                    			        mov ah,0x0C
  1526 00005256 B0DB                    		mov al,0xDB
  1527 00005258 268985EC01                   	mov word[es:di+492],ax
  1528 0000525D 268985EE01              		mov word[es:di+494],ax
  1529 00005262 268985F001              		mov word[es:di+496],ax
  1530 00005267 268985F601              		mov word[es:di+502],ax
  1531 0000526C 268985F201              		mov word[es:di+498],ax
  1532 00005271 268985F401              		mov word[es:di+500],ax
  1533                                  		
  1534 00005276 2689858802              		mov word[es:di+648],ax
  1535 0000527B 2689858A02              		mov word[es:di+650],ax
  1536 00005280 2689859402              		mov word[es:di+660],ax
  1537 00005285 2689858C02              		mov word[es:di+652],ax
  1538 0000528A 2689958E02              		mov word[es:di+654],dx
  1539 0000528F 2689959002              		mov word[es:di+656],dx
  1540 00005294 2689859802              		mov word[es:di+664],ax
  1541 00005299 2689859602              		mov word[es:di+662],ax
  1542 0000529E 2689959202              		mov word[es:di+658],dx
  1543 000052A3 2689859A02              		mov word[es:di+666],ax
  1544                                  		
  1545 000052A8 2689852603              		mov word[es:di+806],ax
  1546 000052AD 2689852803              		mov word[es:di+808],ax
  1547 000052B2 2689852A03              		mov word[es:di+810],ax
  1548 000052B7 2689952C03              		mov word[es:di+812],dx
  1549 000052BC 2689952E03              		mov word[es:di+814],dx
  1550 000052C1 2689953003              		mov word[es:di+816],dx
  1551 000052C6 2689853203              		mov word[es:di+818],ax
  1552 000052CB 2689853403              		mov word[es:di+820],ax
  1553 000052D0 2689853603              		mov word[es:di+822],ax
  1554 000052D5 2689853603              		mov word[es:di+822],ax
  1555 000052DA 2689853803              		mov word[es:di+824],ax
  1556 000052DF 2689853A03              		mov word[es:di+826],ax
  1557 000052E4 2689853C03              		mov word[es:di+828],ax
  1558                                  		
  1559 000052E9 268985C603              		mov word[es:di+966],ax
  1560 000052EE 268995CA03              		mov word[es:di+970],dx
  1561 000052F3 268995CE03              		mov word[es:di+974],dx
  1562 000052F8 268995CC03              		mov word[es:di+972],dx
  1563 000052FD 268985C803              		mov word[es:di+968],ax
  1564 00005302 268985D003              		mov word[es:di+976],ax
  1565 00005307 268985D203              		mov word[es:di+978],ax
  1566 0000530C 268985DA03              		mov word[es:di+986],ax
  1567 00005311 268985D603              		mov word[es:di+982],ax
  1568 00005316 268985D803              		mov word[es:di+984],ax
  1569 0000531B 268985D403              		mov word[es:di+980],ax
  1570 00005320 268985DC03              		mov word[es:di+988],ax
  1571                                  		
  1572 00005325 2689856A04              		mov word[es:di+1130],ax
  1573 0000532A 2689856C04              		mov word[es:di+1132],ax
  1574 0000532F 2689856804              		mov word[es:di+1128],ax
  1575 00005334 2689857204              		mov word[es:di+1138],ax
  1576 00005339 2689856E04              		mov word[es:di+1134],ax
  1577 0000533E 2689857004              		mov word[es:di+1136],ax
  1578 00005343 2689857404              		mov word[es:di+1140],ax
  1579 00005348 2689857A04              		mov word[es:di+1146],ax
  1580 0000534D 2689857604              		mov word[es:di+1142],ax
  1581 00005352 2689857804              		mov word[es:di+1144],ax
  1582                                  		
  1583 00005357 2689850A05              		mov word[es:di+1290],ax
  1584 0000535C 2689850C05              		mov word[es:di+1292],ax
  1585 00005361 2689850E05              		mov word[es:di+1294],ax
  1586 00005366 2689851005              		mov word[es:di+1296],ax
  1587 0000536B 2689851205              		mov word[es:di+1298],ax
  1588 00005370 2689851405              		mov word[es:di+1300],ax
  1589 00005375 2689851605              		mov word[es:di+1302],ax
  1590 0000537A 2689851805              		mov word[es:di+1304],ax
  1591                                  
  1592 0000537F 268985AC05              		mov word[es:di+1452],ax
  1593                                  		
  1594 00005384 268985AE05              		mov word[es:di+1454],ax
  1595 00005389 268985B005              		mov word[es:di+1456],ax
  1596 0000538E 268985B205              		mov word[es:di+1458],ax
  1597                                  		
  1598 00005393 268985B405              		mov word[es:di+1460],ax
  1599 00005398 268985B605              		mov word[es:di+1462],ax
  1600                                  		
  1601 0000539D 2689855006              		mov word[es:di+1616],ax
  1602 000053A2 2689855206              		mov word[es:di+1618],ax
  1603                                  	
  1604 000053A7 26898DF006              		mov word[es:di+1776],cx
  1605 000053AC 2689898E07              		mov word[es:di+1774+160+bx],cx
  1606 000053B1 26898D3008              		mov word[es:di+1778+318],cx
  1607 000053B6 26898BD208              		mov word[es:di+1780+478+bp],cx
  1608 000053BB 26898D7009              		mov word[es:di+1778+638],cx
  1609                                  		
  1610 000053C0 E847ED                  			 call sleep
  1611 000053C3 812E[4950]A000                  sub word[END_BALLON_CURR_POS],160
  1612 000053C9 83ED04                  		sub bp,4
  1613 000053CC 83C304                  		add bx,4
  1614 000053CF E838ED                          call sleep		
  1615 000053D2 E835ED                  	    call sleep
  1616 000053D5 E825ED                  		call input
  1617 000053D8 3C0D                    		cmp al,13
  1618 000053DA 0F84A900                		je doneend
  1619 000053DE 3C73                    		cmp al,'s'
  1620 000053E0 7444                    		je update_navend
  1621 000053E2 3C77                    		cmp al,'w'
  1622 000053E4 7440                    		je update_navend
  1623 000053E6 3C53                    		cmp al,'S'
  1624 000053E8 743C                    		je update_navend
  1625 000053EA 3C57                    		cmp al,'W'
  1626 000053EC 7438                    		je update_navend
  1627 000053EE 3C0D                    retu1end:		cmp al,13
  1628 000053F0 7532                    		jne upend
  1629 000053F2 E815ED                  		call sleep
  1630 000053F5 83FB04                  retuend:		cmp bx,4
  1631 000053F8 7F25                    		jg update_BXend
  1632 000053FA 83FDFC                  again1end:		cmp bp,-4
  1633 000053FD 7C1B                    		jl update_BPend
  1634 000053FF 813E[4950]88F5          againend:		cmp word[END_BALLON_CURR_POS],-2680
  1635 00005405 0F8D3EFE                		jge redraw_
  1636 00005409 813E[4950]28F6          		cmp word[END_BALLON_CURR_POS],-2520
  1637 0000540F 7400                    		je update_DIend
  1638 00005411 C706[4950]540B          update_DIend: mov word[END_BALLON_CURR_POS],2900
  1639 00005417 E92DFE                             jmp redraw_		
  1640 0000541A BD0000                  update_BPend: mov bp,0
  1641 0000541D EBE0                               jmp  againend    
  1642 0000541F BB0000                  update_BXend: mov bx,0
  1643 00005422 EBD6                               jmp  again1end   		   
  1644 00005424 EBCF                    upend:     jmp retuend
  1645 00005426 803E[6840]00            	 update_navend: cmp byte[first_movementend],0
  1646 0000542B 740E                    	 je lets_startend
  1647 0000542D 803E[6840]01            	 cmp byte[first_movementend],1
  1648 00005432 7D16                    	 jge lets_start2end
  1649 00005434 803E[6740]01            				 cmp byte[nav_countend],1
  1650 00005439 742D                    				 je lastend
  1651 0000543B 3C73                    	lets_startend:			cmp al,'s'
  1652 0000543D 742B                    				je count_incend
  1653 0000543F 3C53                    				cmp al,'S'
  1654 00005441 7427                    				je count_incend
  1655 00005443 803E[6D40]00            	back_to_1end:	cmp byte[nav_count],0
  1656 00005448 741E                    				 je lastend
  1657 0000544A 3C77                    	lets_start2end:            cmp al,'w'
  1658 0000544C 7428                    				je count_decend
  1659 0000544E 3C57                    				 cmp al,'W'
  1660 00005450 7424                    				je count_decend
  1661 00005452 50                      	back_to_2end:     push ax
  1662 00005453 A0[6640]                			   mov al,byte[navigation22end]	  
  1663 00005456 8606[6540]              			  XCHG al,[navigation12end]
  1664 0000545A A2[6640]                			  mov byte[navigation22end],al
  1665 0000545D A0[6440]                			   mov al,byte[navigation2end]	  
  1666 00005460 8606[6340]              			  XCHG al,[navigation1end]
  1667 00005464 A2[6440]                			  mov byte[navigation2end],al
  1668 00005467 58                      			  pop ax
  1669 00005468 EB84                    	lastend:		  jmp  retu1end
  1670 0000546A C606[6740]01            	count_incend:  mov byte[nav_countend],1
  1671 0000546F 8006[6840]01            				add byte[first_movementend],1
  1672 00005474 EBCD                    			   jmp back_to_1end
  1673 00005476 803E[6840]01            	 count_decend:cmp byte[first_movementend],1
  1674 0000547B C606[6740]00            				 mov byte[nav_countend],0
  1675 00005480 C606[6840]00            				 mov byte[first_movementend],0
  1676 00005485 EBCB                    			   jmp back_to_2end
  1677                                  		   
  1678 00005487 61                      doneend: popa
  1679 00005488 803E[6840]01                  cmp byte[first_movementend],1
  1680 0000548D 0F8DEA07                	  jge the_end
  1681 00005491 C3                      	  ret
  1682                                  
  1683                                  	  
  1684                                  ;;;=============================RE_START MSG ON SCREEN============================
  1685                                  ;;;===============================================================================			  
  1686                                  START_:
  1687 00005492 60                              pusha
  1688 00005493 BF6409                  		mov di,2404
  1689 00005496 BE0000                  		mov si,0
  1690 00005499 B800B8                  		mov ax,0xb800
  1691 0000549C 8EC0                    		mov es,ax
  1692 0000549E 8A2E[6440]              		mov ch,[navigation2end]
  1693 000054A2 B120                    		mov cl,' '
  1694 000054A4 26894D0A                		mov  word[es:di+10],cx
  1695 000054A8 26894D01                		mov  word[es:di+1],cx
  1696 000054AC 26894DFE                		mov  word[es:di-2],cx
  1697 000054B0 8A2E[6540]              		mov ch,[navigation12end]
  1698 000054B4 8A8C[8240]              loop1_:		mov cl,[msg1_+si]
  1699 000054B8 26890D                  		mov  word[es:di],cx
  1700 000054BB 83C702                  		add di,2
  1701 000054BE 83C601                  		add si,1
  1702 000054C1 3B36[8940]              		cmp si,[size1_]
  1703 000054C5 7EED                    		jle loop1_
  1704 000054C7 61                           popa 
  1705 000054C8 C3                           ret	 
  1706                                  ;;;=============================EXIT ON  SCREEN============================
  1707                                  ;;;========================================================================			 
  1708                                  EXIT_:
  1709 000054C9 60                              pusha
  1710 000054CA BFA60A                  		mov di,2726
  1711 000054CD BE0000                  		mov si,0
  1712 000054D0 B800B8                  		mov ax,0xb800
  1713 000054D3 8EC0                    		mov es,ax
  1714 000054D5 8A2E[6340]              		mov ch,[navigation1end]
  1715 000054D9 B120                    		mov cl,' '
  1716 000054DB 26894D08                		mov  word[es:di+8],cx
  1717 000054DF 26894DFE                		mov  word[es:di-2],cx
  1718 000054E3 8A2E[6640]              		mov ch,[navigation22end]
  1719 000054E7 8A8C[8B40]              loop2_:		mov cl,[msg2_+si]
  1720 000054EB 26890D                  		mov  word[es:di],cx
  1721 000054EE 83C702                  		add di,2
  1722 000054F1 83C601                  		add si,1
  1723 000054F4 3B36[8F40]              		cmp si,[size2_]
  1724 000054F8 7EED                    		jle loop2_
  1725 000054FA 61                           popa 
  1726 000054FB C3                           ret
  1727                                  	 
  1728                                  Y_S:
  1729 000054FC 60                              pusha
  1730 000054FD BF6E0D                  		mov di,3438
  1731 00005500 BE0000                  		mov si,0
  1732 00005503 B800B8                  		mov ax,0xb800
  1733 00005506 8EC0                    		mov es,ax
  1734 00005508 B501                    		mov ch,0x01
  1735 0000550A B120                    		mov cl,' '
  1736 0000550C 26894D08                		mov  word[es:di+8],cx
  1737 00005510 26894DFE                		mov  word[es:di-2],cx
  1738 00005514 B50E                    		mov ch,0xE
  1739 00005516 8A8C[BA40]              loop4_:		mov cl,[msg4_+si]
  1740 0000551A 26890D                  		mov  word[es:di],cx
  1741 0000551D 83C702                  		add di,2
  1742 00005520 83C601                  		add si,1
  1743 00005523 3B36[C540]              		cmp si,[size4_]
  1744 00005527 7EED                    		jle loop4_
  1745 00005529 BE0000                  		mov si,0
  1746 0000552C 8A8C[F05C]              loop4_1:		mov cl,[SCORE_digit_GAME+si]
  1747 00005530 26890D                  		mov  word[es:di],cx
  1748 00005533 83C702                  		add di,2
  1749 00005536 83C601                  		add si,1
  1750                                  		;cmp byte[SCORE_digit_GAME+si],0
  1751 00005539 83FE03                  		cmp si,3
  1752 0000553C 7CEE                    		jl loop4_1		
  1753                                  		
  1754 0000553E 61                           popa 
  1755 0000553F C3                           ret	 
  1756                                  Instruction_:
  1757 00005540 60                              pusha
  1758 00005541 BF260C                  		mov di,3110
  1759 00005544 BE0000                  		mov si,0
  1760 00005547 B800B8                  		mov ax,0xb800
  1761 0000554A 8EC0                    		mov es,ax
  1762 0000554C B50A                    		mov ch,0x0A
  1763 0000554E 8A8C[9140]              loop3_:		mov cl,[msg3_+si]
  1764 00005552 26890D                  		mov  word[es:di],cx
  1765 00005555 83C702                  		add di,2
  1766 00005558 83C601                  		add si,1
  1767 0000555B 3B36[B840]              		cmp si,[size3_]
  1768 0000555F 7EED                    		jle loop3_
  1769 00005561 61                           popa 
  1770 00005562 C3                           ret
  1771                                  
  1772                                  ;;;=============================GET NAME OF PLAYER SCREEN============================
  1773                                  ;;;==================================================================================
  1774                                  
  1775                                  print_input:
  1776 00005563 60                                pusha
  1777 00005564 B800B8                  		  	MOV		AX, 0xB800
  1778 00005567 8EC0                    			MOV		ES, AX
  1779 00005569 BE0000                  			mov si,0
  1780 0000556C BF0000                  			mov di,0
  1781                                  				
  1782 0000556F B70E                    next_input:         mov bh,0x0e
  1783 00005571 8A9C[4840]                       			mov bl,[get_name+si]
  1784 00005575 26899D7206                        			mov word[es:1650+di],bx
  1785 0000557A 83C702                  					add di,2
  1786 0000557D 83C601                  					add si,1
  1787 00005580 3B36[5840]              					cmp si,[len_input]
  1788 00005584 7EE9                    					jle next_input
  1789                                  					
  1790 00005586 61                                          popa
  1791 00005587 C3                                          ret
  1792 00005588 60                      GET_PLAYER_NAME:          pusha  
  1793 00005589 E8C9EB                  					      call clearscreen_input
  1794 0000558C E8D4FF                  						  call print_input
  1795 0000558F BF2000                  						  mov di,32
  1796                                  						 
  1797 00005592 E868EB                  retake:	            call input
  1798 00005595 74FB                    		   			jz retake
  1799 00005597 3C08                    					cmp al,8
  1800 00005599 7422                    					je DELETE
  1801 0000559B 3C0D                    					cmp al,13
  1802 0000559D 743B                    					je INPUT_END
  1803                                  print1:                 
  1804 0000559F B40F                                            mov ah,0x0f
  1805 000055A1 8B1E[1700]              						mov bx,[NAME_BUFFER_COUNTER]
  1806 000055A5 8887[0300]              						mov byte[NAME_OF_PLAYER+bx],al
  1807 000055A9 8306[1700]01            						add word[NAME_BUFFER_COUNTER],1
  1808 000055AE 2689857206                        				mov word[es:1650+di],ax
  1809 000055B3 83C702                  						add di,2
  1810 000055B6 8306[C53E]01            						add word[END_SPACE],1
  1811 000055BB EBD5                                            jmp retake						
  1812 000055BD 832E[1700]01            DELETE:    sub word[NAME_BUFFER_COUNTER],1
  1813 000055C2 833E[C53E]00                        cmp word[END_SPACE],0
  1814 000055C7 74C9                                je retake
  1815 000055C9 832E[C53E]01            			sub word[END_SPACE],1
  1816 000055CE 83EF02                            	sub di,2
  1817 000055D1 26C7857206DB0E                    	mov word[es:1650+di],0x0EDB
  1818 000055D8 EBB8                    		    jmp retake			
  1819 000055DA 61                      INPUT_END: popa 
  1820 000055DB C3                                 ret		
  1821                                  
  1822                                  ;;;=============================GAME INSTRUCTION SCREEN============================
  1823                                  ;;;================================================================================
  1824                                  
  1825                                  	 
  1826                                  PRINT_I_GUIDELINE:
  1827 000055DC 60                              pusha
  1828 000055DD B40F                          		mov ah,0x0F
  1829 000055DF B0DB                    		mov al,0xDB
  1830                                  		
  1831 000055E1 BE00B8                  		mov si,0xb800
  1832 000055E4 8EC6                    		mov es,si
  1833 000055E6 BFBAFE                  		mov di,-326
  1834                                  	
  1835                                  	
  1836 000055E9 2689858802              	    mov word[es:di+648],ax
  1837 000055EE 2689858A02              		mov word[es:di+650],ax
  1838 000055F3 2689858C02              		mov word[es:di+652],ax
  1839 000055F8 2689858E02              		mov word[es:di+654],ax
  1840                                  		
  1841 000055FD 2689852A03              		mov word[es:di+810],ax
  1842 00005602 2689852C03              		mov word[es:di+812],ax		
  1843                                  		
  1844 00005607 268985CA03              		mov word[es:di+970],ax
  1845 0000560C 268985CC03              		mov word[es:di+972],ax
  1846                                  		
  1847 00005611 2689856A04              		mov word[es:di+1130],ax
  1848 00005616 2689856C04              		mov word[es:di+1132],ax
  1849                                  		
  1850 0000561B 2689850A05              		mov word[es:di+1290],ax
  1851 00005620 2689850C05              		mov word[es:di+1292],ax
  1852                                  		
  1853 00005625 268985A805              		mov word[es:di+1448],ax
  1854 0000562A 268985AA05              		mov word[es:di+1450],ax
  1855 0000562F 268985AC05              		mov word[es:di+1452],ax
  1856 00005634 268985AE05              		mov word[es:di+1454],ax
  1857                                  		
  1858                                  		
  1859 00005639 61                      	  popa
  1860 0000563A C3                      	  ret	
  1861                                  
  1862                                  PRINT_N_GUIDELINE:	 
  1863 0000563B 60                      	   pusha
  1864                                  		
  1865 0000563C B40F                    		mov ah,0x0F
  1866 0000563E B0DB                    		mov al,0xDB
  1867                                  		
  1868 00005640 BE00B8                  		mov si,0xb800
  1869 00005643 8EC6                    		mov es,si
  1870 00005645 BFC4FE                  		mov di,-316
  1871                                  	    
  1872 00005648 2689858802              		mov word[es:di+648],ax
  1873 0000564D 2689858A02              		mov word[es:di+650],ax
  1874 00005652 2689858C02              		 mov word[es:di+652],ax
  1875 00005657 2689852C03              		 mov word[es:di+652+160],ax
  1876 0000565C 2689852E03              		 mov word[es:di+654+160],ax
  1877 00005661 268985D003              		 mov word[es:di+656+320],ax
  1878 00005666 2689859802              		mov word[es:di+664],ax
  1879 0000566B 2689859A02              		mov word[es:di+666],ax
  1880                                  		
  1881 00005670 2689852803              		mov word[es:di+808],ax
  1882 00005675 2689852A03              		mov word[es:di+810],ax
  1883 0000567A 2689853803              		mov word[es:di+824],ax
  1884 0000567F 2689853A03              		mov word[es:di+826],ax
  1885                                  		
  1886 00005684 268985C803              		mov word[es:di+968],ax
  1887 00005689 268985CA03              		mov word[es:di+970],ax
  1888 0000568E 268985D803              		mov word[es:di+984],ax
  1889 00005693 268985DA03              		mov word[es:di+986],ax
  1890                                  		
  1891 00005698 2689856804              		mov word[es:di+1128],ax
  1892 0000569D 2689856A04              		mov word[es:di+1130],ax
  1893 000056A2 2689857204              		mov word[es:di+1138],ax
  1894 000056A7 2689857804              		mov word[es:di+1144],ax
  1895 000056AC 2689857A04              		mov word[es:di+1146],ax
  1896                                  		
  1897 000056B1 2689850805              		mov word[es:di+1288],ax
  1898 000056B6 2689850A05              		mov word[es:di+1290],ax
  1899 000056BB 2689851405              		mov word[es:di+1300],ax
  1900 000056C0 2689851805              		mov word[es:di+1304],ax
  1901 000056C5 2689851A05              		mov word[es:di+1306],ax
  1902                                  
  1903 000056CA 268985A805              		mov word[es:di+1448],ax
  1904 000056CF 268985AA05              		mov word[es:di+1450],ax
  1905 000056D4 268985B605              		mov word[es:di+1462],ax
  1906 000056D9 268985B805              		mov word[es:di+1464],ax
  1907 000056DE 268985BA05              		mov word[es:di+1466],ax
  1908                                  		
  1909                                  		
  1910 000056E3 61                      	  popa
  1911 000056E4 C3                      	  ret	  	  
  1912                                  	  
  1913                                  PRINT_S_GUIDELINE:
  1914 000056E5 60                               pusha
  1915                                  		
  1916 000056E6 B40F                    		mov ah,0x0F
  1917 000056E8 B0DB                    		mov al,0xDB
  1918                                  		
  1919 000056EA BE00B8                  		mov si,0xb800
  1920 000056ED 8EC6                    		mov es,si
  1921 000056EF BF78FF                  		mov di,-136
  1922 000056F2 26C785EC01DC0F          		mov word[es:di+492],0x0FDC
  1923 000056F9 268985EE01              		mov word[es:di+494],ax
  1924 000056FE 268985F001              		mov word[es:di+496],ax
  1925 00005703 26C785F201DC0F          		mov word[es:di+498],0x0FDC
  1926 0000570A 26C7859402DF0F          		mov word[es:di+500+160],0x0FDF
  1927                                  		
  1928 00005711 2689858A02              		mov word[es:di+650],ax
  1929 00005716 2689858C02              		mov word[es:di+652],ax
  1930                                  		
  1931 0000571B 26C7852C03DF0F          		mov word[es:di+972-160],0x0FDF
  1932 00005722 26C7853003DC0F          		mov word[es:di+976-160],0x0FDC
  1933 00005729 2689852E03              		mov word[es:di+974-160],ax
  1934                                  		
  1935 0000572E 26C785D203DF0F          		mov word[es:di+818+160],0x0FDF
  1936 00005735 268985D403              		mov word[es:di+820+160],ax
  1937 0000573A 26C785D603DC0F          		mov word[es:di+822+160],0x0FDC
  1938                                  		
  1939 00005741 26C7857404DB0F          		mov word[es:di+1142-2],0x0FDB
  1940 00005748 26C7857604DF0F          		mov word[es:di+1142],0x0FDF
  1941                                  	
  1942 0000574F 26C7850C05DF0F          		  mov word[es:di+1292],0x0FDF
  1943 00005756 2689850E05              		 mov word[es:di+1294],ax
  1944 0000575B 2689851005              		 mov word[es:di+1296],ax
  1945 00005760 26C7851205DF0F          		 mov word[es:di+1298],0x0FDF
  1946 00005767 26C7856A04DC0F          		 mov word[es:di+1290-160],0x0FDC
  1947                                  
  1948                                  		
  1949 0000576E 61                      	  popa
  1950 0000576F C3                      	  ret
  1951                                  
  1952                                  
  1953                                  PRINT_T_GUIDELINE:		
  1954 00005770 60                      	 pusha
  1955 00005771 B40F                          		mov ah,0x0F
  1956 00005773 B0DB                    		mov al,0xDB
  1957                                  		
  1958 00005775 BE00B8                  		mov si,0xb800
  1959 00005778 8EC6                    		mov es,si
  1960 0000577A BFEAFE                  		mov di,-278
  1961                                  	
  1962                                  	    	
  1963 0000577D 2689858602              		mov word[es:di+646],ax
  1964 00005782 2689858802              	    mov word[es:di+648],ax
  1965 00005787 2689858A02              		mov word[es:di+650],ax
  1966 0000578C 2689858C02              		mov word[es:di+652],ax
  1967 00005791 2689858E02              		mov word[es:di+654],ax
  1968 00005796 2689859002              		mov word[es:di+656],ax
  1969                                  		
  1970 0000579B 2689852A03              		mov word[es:di+810],ax
  1971 000057A0 2689852C03              		mov word[es:di+812],ax		
  1972                                  		
  1973 000057A5 268985CA03              		mov word[es:di+970],ax
  1974 000057AA 268985CC03              		mov word[es:di+972],ax
  1975                                  		
  1976 000057AF 2689856A04              		mov word[es:di+1130],ax
  1977 000057B4 2689856C04              		mov word[es:di+1132],ax
  1978                                  		
  1979 000057B9 2689850A05              		mov word[es:di+1290],ax
  1980 000057BE 2689850C05              		mov word[es:di+1292],ax
  1981                                  	
  1982 000057C3 268985AA05              		mov word[es:di+1450],ax
  1983 000057C8 268985AC05              		mov word[es:di+1452],ax
  1984                                  		
  1985                                  		
  1986                                  		
  1987 000057CD 61                      	  popa
  1988 000057CE C3                      	  ret
  1989                                  
  1990                                  PRINT_R_GUIDELINE:
  1991 000057CF 60                      	   pusha
  1992                                  		
  1993 000057D0 B40F                    		mov ah,0x0F
  1994 000057D2 B0DB                    		mov al,0xDB
  1995                                  		
  1996 000057D4 BE00B8                  		mov si,0xb800
  1997 000057D7 8EC6                    		mov es,si
  1998 000057D9 BFF2FE                  		mov di,-270
  1999                                  
  2000 000057DC 26C7858C02DC0F          		mov word[es:di+492+160],0x0FDC
  2001 000057E3 2689858E02              		mov word[es:di+494+160],ax
  2002 000057E8 2689859002              		mov word[es:di+496+160],ax
  2003 000057ED 2689859202              		mov word[es:di+498+160],ax
  2004 000057F2 2689859402              		mov word[es:di+500+160],ax
  2005 000057F7 26C7859602DC0F          		mov word[es:di+662],0x0FDC
  2006                                  	
  2007 000057FE 2689852C03              		mov word[es:di+812],ax
  2008 00005803 2689853603              		mov word[es:di+822],ax
  2009                                  
  2010 00005808 268985CC03              		mov word[es:di+972],ax
  2011 0000580D 268985D603              		mov word[es:di+982],ax
  2012                                  	
  2013 00005812 2689856C04              		mov word[es:di+1132],ax
  2014 00005817 2689856E04              		mov word[es:di+1134],ax
  2015 0000581C 2689857004              		mov word[es:di+1136],ax
  2016 00005821 2689857204              		mov word[es:di+1138],ax
  2017 00005826 2689857404              		mov word[es:di+1140],ax
  2018 0000582B 26C7857604DF0F          		mov word[es:di+1142],0x0FDF
  2019                                  
  2020 00005832 2689850C05              		mov word[es:di+1292],ax
  2021 00005837 26C7851005DF0F          		mov word[es:di+1296],0x0FDF
  2022 0000583E 26C7851205DC0F          		mov word[es:di+1298],0x0FDC
  2023                                  
  2024 00005845 268985AC05              		mov word[es:di+1452],ax
  2025 0000584A 26C785B405DF0F          		mov word[es:di+1460],0x0FDF
  2026 00005851 26C785B605DC0F          		mov word[es:di+1462],0x0FDC
  2027                                  				
  2028 00005858 61                      	  popa
  2029 00005859 C3                      	  ret
  2030                                  	  
  2031                                  PRINT_U_GUIDELINE:
  2032 0000585A 60                      pusha
  2033                                  		
  2034 0000585B B40F                    		mov ah,0x0F
  2035 0000585D B0DB                    		mov al,0xDB
  2036                                  		
  2037 0000585F BE00B8                  		mov si,0xb800
  2038 00005862 8EC6                    		mov es,si
  2039 00005864 BF02FF                  		mov di,-254
  2040                                  	
  2041                                  		
  2042 00005867 2689858A02              		mov word[es:di+650],ax
  2043 0000586C 2689858C02              		mov word[es:di+652],ax
  2044 00005871 2689859602              		mov word[es:di+662],ax
  2045 00005876 2689859802              		mov word[es:di+664],ax
  2046                                  		
  2047 0000587B 2689852A03              		mov word[es:di+810],ax
  2048 00005880 2689852C03              		mov word[es:di+812],ax
  2049 00005885 2689853603              		mov word[es:di+822],ax
  2050 0000588A 2689853803              		mov word[es:di+824],ax
  2051                                  		
  2052 0000588F 268985CA03              		mov word[es:di+970],ax
  2053 00005894 268985CC03              		mov word[es:di+972],ax
  2054 00005899 268985D603              		mov word[es:di+982],ax
  2055 0000589E 268985D803              		mov word[es:di+984],ax
  2056                                  		
  2057 000058A3 2689856A04              		mov word[es:di+1130],ax
  2058 000058A8 2689856C04              		mov word[es:di+1132],ax
  2059 000058AD 2689857604              		mov word[es:di+1142],ax
  2060 000058B2 2689857804              		mov word[es:di+1144],ax
  2061                                  		
  2062 000058B7 2689850A05              		mov word[es:di+1290],ax
  2063 000058BC 2689850C05              		mov word[es:di+1292],ax
  2064 000058C1 2689851605              		mov word[es:di+1302],ax
  2065 000058C6 2689851805              		mov word[es:di+1304],ax
  2066                                  		
  2067                                  		
  2068 000058CB 26C785AC05DF0F          		mov word[es:di+1452],0x0FDF
  2069                                  
  2070 000058D2 26C785B605DF0F          		mov word[es:di+1462],0x0FDF
  2071                                  
  2072                                  		
  2073 000058D9 268985AE05              		mov word[es:di+1614-160],ax
  2074 000058DE 268985B005              		mov word[es:di+1616-160],ax
  2075 000058E3 268985B205              		mov word[es:di+1618-160],ax
  2076 000058E8 268985B405              		mov word[es:di+1620-160],ax
  2077                                  
  2078 000058ED 61                      	  popa
  2079 000058EE C3                      	  ret
  2080                                  
  2081 000058EF 60                      PRINT_C_GUIDELINE:pusha
  2082 000058F0 B40F                            mov ah,0x0F
  2083 000058F2 B0DB                    		mov al,0xDB
  2084                                  		
  2085 000058F4 BE00B8                  		mov si,0xb800
  2086 000058F7 8EC6                    		mov es,si
  2087 000058F9 BF12FF                  		mov di,-238
  2088                                  	
  2089 000058FC 26C7858C02DC0F          		mov word[es:di+652],0x0FDC
  2090 00005903 2689858E02              		mov word[es:di+654],ax
  2091 00005908 2689859002              		mov word[es:di+656],ax
  2092 0000590D 2689859202              		mov word[es:di+658],ax
  2093 00005912 26C7859402DC0F          		mov word[es:di+660],0x0FDC
  2094 00005919 26C7853603DF0F          		mov word[es:di+662+160],0x0FDF
  2095                                  		
  2096 00005920 2689852C03              		mov word[es:di+812],ax
  2097                                  		
  2098 00005925 268985CC03              		mov word[es:di+972],ax
  2099                                  		
  2100 0000592A 2689856C04              		mov word[es:di+1132],ax
  2101                                  	
  2102 0000592F 2689850C05              		mov word[es:di+1292],ax
  2103                                  		
  2104 00005934 26C785AC05DF0F          		mov word[es:di+1452],0x0FDF
  2105 0000593B 26C7851605DC0F                  mov word[es:di+1462-160],0x0FDC
  2106                                  		
  2107 00005942 268985AE05              		mov word[es:di+1614-160],ax
  2108 00005947 268985B005              		mov word[es:di+1616-160],ax
  2109 0000594C 268985B205              		mov word[es:di+1618-160],ax
  2110 00005951 26C785B405DF0F          		mov word[es:di+1620-160],0x0FDF
  2111                                  
  2112 00005958 61                      	  popa
  2113 00005959 C3                      	  ret
  2114                                  
  2115                                  PRINT_T2_GUIDELINE:
  2116 0000595A 60                               pusha
  2117 0000595B B40F                          		mov ah,0x0F
  2118 0000595D B0DB                    		mov al,0xDB
  2119                                  		
  2120 0000595F BE00B8                  		mov si,0xb800
  2121 00005962 8EC6                    		mov es,si
  2122 00005964 BF26FF                  		mov di,-218
  2123                                  	
  2124                                  	    	
  2125 00005967 2689858602              		mov word[es:di+646],ax
  2126 0000596C 2689858802              	    mov word[es:di+648],ax
  2127 00005971 2689858A02              		mov word[es:di+650],ax
  2128 00005976 2689858C02              		mov word[es:di+652],ax
  2129 0000597B 2689858E02              		mov word[es:di+654],ax
  2130 00005980 2689859002              		mov word[es:di+656],ax
  2131                                  		
  2132 00005985 2689852A03              		mov word[es:di+810],ax
  2133 0000598A 2689852C03              		mov word[es:di+812],ax		
  2134                                  		
  2135 0000598F 268985CA03              		mov word[es:di+970],ax
  2136 00005994 268985CC03              		mov word[es:di+972],ax
  2137                                  		
  2138 00005999 2689856A04              		mov word[es:di+1130],ax
  2139 0000599E 2689856C04              		mov word[es:di+1132],ax
  2140                                  		
  2141 000059A3 2689850A05              		mov word[es:di+1290],ax
  2142 000059A8 2689850C05              		mov word[es:di+1292],ax
  2143                                  	
  2144 000059AD 268985AA05              		mov word[es:di+1450],ax
  2145 000059B2 268985AC05              		mov word[es:di+1452],ax
  2146                                  		
  2147                                  		
  2148                                  		
  2149 000059B7 61                      	  popa
  2150 000059B8 C3                      	  ret
  2151                                  
  2152                                  PRINT_I2_GUIDELINE:
  2153 000059B9 60                               pusha
  2154 000059BA B40F                          	mov ah,0x0F
  2155 000059BC B0DB                    		mov al,0xDB
  2156                                  		
  2157 000059BE BE00B8                  		mov si,0xb800
  2158 000059C1 8EC6                    		mov es,si
  2159 000059C3 BF32FF                  		mov di,-206
  2160                                  	
  2161                                  	
  2162 000059C6 2689858802              	    mov word[es:di+648],ax
  2163 000059CB 2689858A02              		mov word[es:di+650],ax
  2164 000059D0 2689858C02              		mov word[es:di+652],ax
  2165 000059D5 2689858E02              		mov word[es:di+654],ax
  2166                                  		
  2167 000059DA 2689852A03              		mov word[es:di+810],ax
  2168 000059DF 2689852C03              		mov word[es:di+812],ax		
  2169                                  		
  2170 000059E4 268985CA03              		mov word[es:di+970],ax
  2171 000059E9 268985CC03              		mov word[es:di+972],ax
  2172                                  		
  2173 000059EE 2689856A04              		mov word[es:di+1130],ax
  2174 000059F3 2689856C04              		mov word[es:di+1132],ax
  2175                                  		
  2176 000059F8 2689850A05              		mov word[es:di+1290],ax
  2177 000059FD 2689850C05              		mov word[es:di+1292],ax
  2178                                  		
  2179 00005A02 268985A805              		mov word[es:di+1448],ax
  2180 00005A07 268985AA05              		mov word[es:di+1450],ax
  2181 00005A0C 268985AC05              		mov word[es:di+1452],ax
  2182 00005A11 268985AE05              		mov word[es:di+1454],ax
  2183                                  		
  2184                                  		
  2185 00005A16 61                      	  popa
  2186 00005A17 C3                      	  ret	
  2187                                  
  2188                                  PRINT_O_GUIDELINE:
  2189 00005A18 60                              pusha
  2190 00005A19 B40F                    		mov ah,0x0F
  2191 00005A1B B0DB                    		mov al,0xDB
  2192                                  		
  2193 00005A1D BE00B8                  		mov si,0xb800
  2194 00005A20 8EC6                    		mov es,si
  2195 00005A22 BF38FF                  		mov di,-200
  2196 00005A25 2689859002              		mov word[es:di+496+160],ax
  2197 00005A2A 2689859202              		mov word[es:di+498+160],ax
  2198 00005A2F 2689859402              		mov word[es:di+500+160],ax
  2199                                  
  2200 00005A34 2689852E03              		mov word[es:di+814],ax
  2201 00005A39 2689853603              		mov word[es:di+822],ax
  2202                                  
  2203 00005A3E 268985CE03              		mov word[es:di+974],ax
  2204 00005A43 268985CC03              		mov word[es:di+972],ax
  2205 00005A48 268985D803              		mov word[es:di+984],ax
  2206 00005A4D 268985D603              		mov word[es:di+982],ax
  2207                                  	
  2208 00005A52 2689856E04              		mov word[es:di+1134],ax
  2209 00005A57 2689856C04              		mov word[es:di+1132],ax
  2210 00005A5C 2689857804              		mov word[es:di+1144],ax
  2211 00005A61 2689857604              		mov word[es:di+1142],ax
  2212                                  
  2213 00005A66 2689850E05              		mov word[es:di+1294],ax
  2214 00005A6B 2689851605              		mov word[es:di+1302],ax
  2215                                  
  2216 00005A70 268985B005              		mov word[es:di+1616-160],ax
  2217 00005A75 268985B205              		mov word[es:di+1618-160],ax
  2218 00005A7A 268985B405              		mov word[es:di+1620-160],ax
  2219 00005A7F 61                      	  popa
  2220 00005A80 C3                      	  ret
  2221                                  
  2222                                  
  2223                                  PRINT_N2_GUIDELINE:
  2224 00005A81 60                      	  pusha
  2225                                  		
  2226 00005A82 B40F                    		mov ah,0x0F
  2227 00005A84 B0DB                    		mov al,0xDB
  2228                                  		
  2229 00005A86 BE00B8                  		mov si,0xb800
  2230 00005A89 8EC6                    		mov es,si
  2231 00005A8B BF4AFF                  		mov di,-182
  2232                                  	    
  2233 00005A8E 2689858A02              		mov word[es:di+650],ax
  2234 00005A93 2689852C03              		 mov word[es:di+652+160],ax
  2235 00005A98 268985CE03              		 mov word[es:di+654+320],ax
  2236 00005A9D 2689859402              		mov word[es:di+660],ax
  2237                                  		
  2238 00005AA2 2689852A03              		mov word[es:di+810],ax
  2239 00005AA7 2689853403              		mov word[es:di+820],ax
  2240                                  
  2241 00005AAC 268985CA03              		mov word[es:di+970],ax
  2242 00005AB1 268985D403              		mov word[es:di+980],ax
  2243                                  
  2244 00005AB6 2689856A04              		mov word[es:di+1130],ax
  2245 00005ABB 2689857004              		mov word[es:di+1136],ax
  2246 00005AC0 2689857404              		mov word[es:di+1140],ax
  2247                                  
  2248 00005AC5 2689850A05              		mov word[es:di+1290],ax
  2249 00005ACA 2689851405              		mov word[es:di+1300],ax
  2250 00005ACF 2689851405              		mov word[es:di+1300],ax
  2251                                  
  2252 00005AD4 268985AA05              		mov word[es:di+1450],ax
  2253 00005AD9 268985B405              		mov word[es:di+1460],ax
  2254 00005ADE 2689851205                      mov word[es:di+1458-160],ax						
  2255                                  		
  2256 00005AE3 61                      	  popa
  2257 00005AE4 C3                      	  ret	  	
  2258                                  
  2259                                  PRINT_GUIDELINES:
  2260 00005AE5 60                                       pusha
  2261 00005AE6 B800B8                  				 mov ax,0xb800
  2262 00005AE9 8EC0                                     mov es,AX
  2263 00005AEB BE0000                  				 mov si,0
  2264 00005AEE BF8A06                  				 mov di,1674
  2265                                  				 
  2266 00005AF1 B40F                    				 mov ah,0x0F
  2267                                  				 
  2268 00005AF3 8A84[C73E]              GUIDE_REPEAT:        mov al,byte[GUIDELINE_MSG1+si]
  2269 00005AF7 268905                        				 mov word[es:di],ax
  2270 00005AFA 83C702                  				     add di,2
  2271 00005AFD 83C601                  					 add si,1
  2272 00005B00 3C00                    					 cmp al,0
  2273 00005B02 75EF                    					 jne GUIDE_REPEAT
  2274                                  					 
  2275 00005B04 BE0000                  				mov si,0
  2276 00005B07 BF8007                  				mov di,1920
  2277                                  					 
  2278 00005B0A 8A84[D23E]              GUIDE_REPEAT1:        mov al,byte[GUIDELINE_MSG2+si]
  2279 00005B0E 268905                        				 mov word[es:di],ax
  2280 00005B11 83C702                  				     add di,2
  2281 00005B14 83C601                  					 add si,1
  2282 00005B17 3C00                    					 cmp al,0
  2283 00005B19 75EF                    					 jne GUIDE_REPEAT1 
  2284                                  
  2285 00005B1B BE0000                  				mov si,0
  2286 00005B1E BF2008                  				mov di,2080
  2287                                  					 
  2288 00005B21 8A84[0F3F]              GUIDE_REPEAT2:        mov al,byte[GUIDELINE_MSG3+si]
  2289 00005B25 268905                        				 mov word[es:di],ax
  2290 00005B28 83C702                  				     add di,2
  2291 00005B2B 83C601                  					 add si,1
  2292 00005B2E 3C00                    					 cmp al,0
  2293 00005B30 75EF                    					 jne GUIDE_REPEAT2	
  2294                                  
  2295 00005B32 BE0000                  				mov si,0
  2296 00005B35 BFC008                  				mov di,2240
  2297                                  					 
  2298 00005B38 8A84[2F3F]              GUIDE_REPEAT3:        mov al,byte[GUIDELINE_MSG4+si]
  2299 00005B3C 268905                        				 mov word[es:di],ax
  2300 00005B3F 83C702                  				     add di,2
  2301 00005B42 83C601                  					 add si,1
  2302 00005B45 3C00                    					 cmp al,0
  2303 00005B47 75EF                    					 jne GUIDE_REPEAT3
  2304                                  
  2305 00005B49 BE0000                                  mov si,0
  2306 00005B4C BF6009                  				mov di,2400
  2307                                  					 
  2308 00005B4F 8A84[503F]              GUIDE_REPEAT4:        mov al,byte[GUIDELINE_MSG5+si]
  2309 00005B53 268905                        				 mov word[es:di],ax
  2310 00005B56 83C702                  				     add di,2
  2311 00005B59 83C601                  					 add si,1
  2312 00005B5C 3C00                    					 cmp al,0
  2313 00005B5E 75EF                    					 jne GUIDE_REPEAT4
  2314                                  					 
  2315 00005B60 BE0000                  					 mov si,0
  2316 00005B63 BF000A                  				     mov di,2560
  2317                                  
  2318 00005B66 8A84[803F]              GUIDE_REPEAT5:        mov al,byte[GUIDELINE_MSG6+si]
  2319 00005B6A 268905                        				 mov word[es:di],ax
  2320 00005B6D 83C702                  				     add di,2
  2321 00005B70 83C601                  					 add si,1
  2322 00005B73 3C00                    					 cmp al,0
  2323 00005B75 75EF                    					 jne GUIDE_REPEAT5						 
  2324                                  					 
  2325                                  					 
  2326 00005B77 BE0000                  					 mov si,0
  2327 00005B7A BFA00A                  				     mov di,2720
  2328                                  
  2329 00005B7D 8A84[AE3F]              GUIDE_REPEAT6:        mov al,byte[GUIDELINE_MSG7+si]
  2330 00005B81 268905                        				 mov word[es:di],ax
  2331 00005B84 83C702                  				     add di,2
  2332 00005B87 83C601                  					 add si,1
  2333 00005B8A 3C00                    					 cmp al,0
  2334 00005B8C 75EF                    					 jne GUIDE_REPEAT6						 
  2335                                  
  2336 00005B8E BE0000                                       mov si,0
  2337 00005B91 BF120C                  				     mov di,3090
  2338 00005B94 B40C                    					 mov ah,0x0C
  2339                                  
  2340 00005B96 8A84[D93F]              GUIDE_REPEAT7:        mov al,byte[GUIDELINE_MSG8+si]
  2341 00005B9A 268905                        				 mov word[es:di],ax
  2342 00005B9D 83C702                  				     add di,2
  2343 00005BA0 83C601                  					 add si,1
  2344 00005BA3 3C00                    					 cmp al,0
  2345 00005BA5 75EF                    					 jne GUIDE_REPEAT7
  2346                                  					 
  2347                                  					 
  2348 00005BA7 BE0000                  					 mov si,0
  2349 00005BAA BF840E                  				     mov di,3716
  2350 00005BAD B409                    					 mov ah,0x09
  2351                                  					 
  2352 00005BAF 8A84[FC3F]              GUIDE_REPEAT8:        mov al,byte[GUIDELINE_MSG9+si]
  2353 00005BB3 268905                        				 mov word[es:di],ax
  2354 00005BB6 83C702                  				     add di,2
  2355 00005BB9 83C601                  					 add si,1
  2356 00005BBC 3C00                    					 cmp al,0
  2357 00005BBE 75EF                    					 jne GUIDE_REPEAT8
  2358                                                       
  2359 00005BC0 B430                    					 mov ah,0x30
  2360 00005BC2 BE0000                  					 mov si,0
  2361 00005BC5 BF5A0D                  				     mov di,3418
  2362                                  					 
  2363 00005BC8 8A84[2E40]              GUIDE_REPEAT9:        mov al,byte[GUIDELINE_MSG10+si]
  2364 00005BCC 268905                        				 mov word[es:di],ax
  2365 00005BCF 83C702                  				     add di,2
  2366 00005BD2 83C601                  					 add si,1
  2367 00005BD5 80BC[2E40]00            					 cmp byte[GUIDELINE_MSG10+si],0
  2368 00005BDA 75EC                    					 jne GUIDE_REPEAT9						 					 
  2369                                  					 
  2370 00005BDC 61                                      popa  
  2371 00005BDD C3                      				ret
  2372                                  	  
  2373 00005BDE 60                      GAME_GUIDE: pusha
  2374 00005BDF E836E5                  call clearscreen_GUIDELINE
  2375 00005BE2 E8F7F9                        call PRINT_I_GUIDELINE
  2376 00005BE5 E853FA                  	  call PRINT_N_GUIDELINE
  2377 00005BE8 E8FAFA                  	  call PRINT_S_GUIDELINE
  2378 00005BEB E882FB                  	  call PRINT_T_GUIDELINE
  2379 00005BEE E8DEFB                  	  call PRINT_R_GUIDELINE
  2380 00005BF1 E866FC                        call PRINT_U_GUIDELINE
  2381 00005BF4 E8F8FC                  	  call PRINT_C_GUIDELINE
  2382 00005BF7 E860FD                  	  call PRINT_T2_GUIDELINE
  2383 00005BFA E8BCFD                  	  call PRINT_I2_GUIDELINE
  2384 00005BFD E818FE                  	  call PRINT_O_GUIDELINE
  2385 00005C00 E87EFE                  	  call PRINT_N2_GUIDELINE
  2386 00005C03 E8DFFE                  	  call PRINT_GUIDELINES
  2387                                         
  2388 00005C06 E8F4E4                  GUIDE_RE_ENTER:	  call input
  2389 00005C09 3C0D                    	   cmp al,13
  2390 00005C0B 75F9                    	   jne GUIDE_RE_ENTER
  2391                                  
  2392                                  
  2393 00005C0D 61                       popa 
  2394 00005C0E C3                       ret  
  2395                                  						  
  2396                                  ;;;=============================MAIN============================
  2397                                  ;;;=============================================================
  2398 00005C0F B036                    main:     mov al,00110110b
  2399 00005C11 E643                             out 0x43,al
  2400 00005C13 B80000                             mov ax,0
  2401 00005C16 E640                               out 0x40,al
  2402 00005C18 88E0                    		   mov al,ah
  2403 00005C1A E640                    		   out 0x40,al
  2404                                  
  2405                                              
  2406 00005C1C E816E5                  	        call clrscr
  2407                                  		
  2408 00005C1F E828EC                  			call Draw_title_Baloon
  2409 00005C22 E863F9                  			call GET_PLAYER_NAME
  2410                                  			;call PLAY_START_SOUND
  2411 00005C25 E8B6FF                  			call GAME_GUIDE
  2412                                  			
  2413 00005C28 C606[A7CC]00            REBACK:		mov byte[gameOver_],0
  2414 00005C2D E8AE6D                              call SELECTING_mode
  2415 00005C30 833E[30C8]03                        cmp  word[CURRENT_mode],3
  2416 00005C35 7503                    			jne TIME_NHI_HA
  2417 00005C37 E83A68                              call SELECTING_LEVEL
  2418 00005C3A E87271                  TIME_NHI_HA:call PLAY_BG_SOUND_FORGAME
  2419 00005C3D E8803E                              call Print_secren2
  2420 00005C40 C606[A7CC]01            			mov byte[gameOver_],1
  2421 00005C45 E85E71                  			call stopMusic
  2422 00005C48 C606[435E]00                        mov byte[GAME_END_SO],0
  2423 00005C4D C606[485D]32            			mov byte[TIME_DIGIT],'2'
  2424 00005C52 C606[4A5D]30            			mov byte[TIME_DIGIT+2],'0'
  2425 00005C57 C606[4B5D]30            			mov byte[TIME_DIGIT+3],'0'
  2426 00005C5C E8EA6E                  			call SAVE_MAX_SCORES
  2427 00005C5F E8C46F                  			call play_gameover_sound
  2428 00005C62 E8A3F5                  			call Draw_end_Baloon
  2429 00005C65 C606[F05C]30            			mov byte[SCORE_digit_GAME],'0'
  2430 00005C6A C606[F25C]30            			mov byte[SCORE_digit_GAME+2],'0'
  2431 00005C6F C606[F15C]30            			mov byte[SCORE_digit_GAME+1],'0'
  2432 00005C74 31C0                    			xor ax,ax
  2433                                  			 
  2434 00005C76 E81271                                call unhookTimerInterrupt
  2435 00005C79 EBAD                                jmp REBACK
  2436                                  
  2437                                  
  2438 00005C7B E8656F                  the_end: call clearscreen_LEADER
  2439 00005C7E E8FA6E                           call DISPLAY_MAX_SCORES 
  2440                                           
  2441 00005C81 B800B8                            mov ax, 0xb800
  2442 00005C84 8EC0                    		  mov es,ax
  2443 00005C86 BF3A0F                  		  mov di,3898
  2444 00005C89 BB0000                  		  mov bx,0
  2445 00005C8C B40F                    		  mov ah,0x0F
  2446 00005C8E BE0000                  		 mov si,0
  2447 00005C91 8A84[5A40]              loooooop:	     mov al,[thank+si]
  2448 00005C95 268901                               	  mov word[es:di+bx],ax
  2449 00005C98 83C302                                   add bx,2
  2450 00005C9B 83C601                  				 add si,1
  2451 00005C9E 83FB12                                    cmp bx,18
  2452 00005CA1 7CEE                    				  jl loooooop 
  2453 00005CA3 BE0000                  				  mov si,0
  2454 00005CA6 26C7012007              				   mov word[es:di+bx],0x0720
  2455 00005CAB 83C302                  				   add bx,2
  2456 00005CAE 83F907                  	             cmp cx,7;[NAME_BUFFER_COUNTER]
  2457 00005CB1 8A84[0300]              NMAE:	         mov al,[NAME_OF_PLAYER+si]
  2458 00005CB5 268901                               	  mov word[es:di+bx],ax
  2459 00005CB8 83C302                                   add bx,2
  2460 00005CBB 83C601                  				 add si,1
  2461 00005CBE 80BC[0200]00            				 cmp byte[NAME_OF_PLAYER+si-1],0
  2462 00005CC3 75EC                    				 jne NMAE
  2463 00005CC5 B8004C                   			mov ax,0x4C00
  2464 00005CC8 CD21                    			int 21h
  2465                                  			
  2466                                  
  2467                                  ;;;=============================CLEARS SCREEN FOR GAME SCREEN============================
  2468                                  ;;;======================================================================================		
  2469                                  	  
  2470                                  clrscr_sky:
  2471 00005CCA 50                      	push ax
  2472 00005CCB 06                      	push es
  2473                                  	
  2474 00005CCC 57                      	push di
  2475                                  	
  2476 00005CCD B800B8                  	mov ax , 0xb800
  2477 00005CD0 BF0000                  	mov di , 0
  2478 00005CD3 8EC0                    	mov es , ax
  2479                                  	
  2480                                  	nextchar_sky:
  2481 00005CD5 B430                    		mov ah,0x30
  2482 00005CD7 B020                            mov al,' '
  2483 00005CD9 268905                  		mov word [es:di] , ax
  2484 00005CDC 83C702                  		add di , 2
  2485 00005CDF 81FFA00F                		cmp di , 4000
  2486 00005CE3 75F0                    		jne nextchar_sky	
  2487                                  
  2488 00005CE5 5F                            pop di
  2489 00005CE6 07                      	  pop es
  2490 00005CE7 58                      	  pop ax
  2491 00005CE8 C3                            ret  
  2492                                  	  
  2493                                  			
  2494                                  ;;;=============================GAME SCREEN============================
  2495                                  ;;;====================================================================			
  2496                                  
  2497                                              
  2498                                  		
  2499 00005CE9 53434F52453A00          msg_score_GAME: db 'SCORE:',0
  2500 00005CF0 3030300000              SCORE_digit_GAME:	db 48,48 ,48,0,0			
  2501 00005CF5 526573756D65            msg1_GAME: db 'Resume'
  2502 00005CFB 0500                    size1_GAME: dw 5
  2503 00005CFD 456E64                  msg2_GAME: db 'End'
  2504 00005D00 0200                    size2_GAME: dw 2
  2505 00005D02 507265737320535041-     msg3_GAME: db 'Press SPACE to Resume and 1 to End'
  2505 00005D0B 434520746F20526573-
  2505 00005D14 756D6520616E642031-
  2505 00005D1D 20746F20456E64     
  2506 00005D24 2100                    size3_GAME: dw 33
  2507 00005D26 52656D61696E696E67-     msg4_GAME: db 'Remaining Time:'
  2507 00005D2F 2054696D653A       
  2508 00005D35 0E00                    size4_GAME: dw 14
  2509 00005D37 43757272656E742053-     msg5_GAME: db 'Current Score:'
  2509 00005D40 636F72653A         
  2510 00005D45 0D00                    size5_GAME: dw 13
  2511 00005D47 00                      tick_count: db 0
  2512 00005D48 323A303000              TIME_DIGIT: db 50,':',48,48,0x00	
  2513 00005D4D 54494D453A00            TIME_DIGIT_VAR: db 'TIME:',0		
  2514                                  
  2515 00005D53 A60F581008116812        POSITION_OF_BALLON_1: dw  4006,4184,4360,4712
  2516 00005D5B 721032116612FE10        POSITION_OF_BALLON_2: dw  4210,4402,4710,4350
  2517 00005D63 7C12A213B4124610        POSITION_OF_BALLON_3: dw  4732,5026,4788,4166
  2518 00005D6B C81094120C10FE11        POSITION_OF_BALLON_4: dw  4296,4756,4108,4606	
  2519 00005D73 56114813D60FDA11        POSITION_OF_BALLON_5: dw  4438,4936,4054,4570	
  2520 00005D7B 3E122A12E6115211        POSITION_OF_BALLON_6: dw  4670,4650,4582,4434	
  2521                                  
  2522 00005D83 0000                    CURRENT_POS_B1: dw 0
  2523 00005D85 0000                    CURRENT_POS_B2: dw 0
  2524 00005D87 0000                    CURRENT_POS_B3: dw 0
  2525 00005D89 0000                    CURRENT_POS_B4: dw 0
  2526 00005D8B 0000                    CURRENT_POS_B5: dw 0
  2527 00005D8D 0000                    CURRENT_POS_B6: dw 0
  2528                                  
  2529 00005D8F 0000                    B1_COUNTER: dw 0
  2530 00005D91 0000                    B2_COUNTER: dw 0
  2531 00005D93 0000                    B3_COUNTER: dw 0
  2532 00005D95 0000                    B4_COUNTER: dw 0
  2533 00005D97 0000                    B5_COUNTER: dw 0
  2534 00005D99 0000                    B6_COUNTER: dw 0
  2535                                  
  2536 00005D9B 617A71787377656463-     B1_CHARACTER: db 'azqxswedcvfrbgtyhnmjuikolp'
  2536 00005DA4 76667262677479686E-
  2536 00005DAD 6D6A75696B6F6C70   
  2537 00005DB5 6D6A75696B6F6C7079-     B2_CHARACTER: db 'mjuikolpyhntgbvfredcxswqaz'
  2537 00005DBE 686E74676276667265-
  2537 00005DC7 646378737771617A   
  2538 00005DCF 7177656173647A7863-     B3_CHARACTER: db 'qweasdzxcrtyfghvbnuiopjklm'
  2538 00005DD8 72747966676876626E-
  2538 00005DE1 75696F706A6B6C6D   
  2539 00005DE9 6D716E776265767263-     B4_CHARACTER: db 'mqnwbevrctxyzuaisodpflgkhj'
  2539 00005DF2 7478797A756169736F-
  2539 00005DFB 6470666C676B686A   
  2540 00005E03 7170616C6D7A776F6B-     B5_CHARACTER: db 'qpalmzwoksnxbcdjieruhfbvgt'
  2540 00005E0C 736E786263646A6965-
  2540 00005E15 7275686662766774   
  2541 00005E1D 7A7873617177657266-     B6_CHARACTER: db 'zxsaqwerfdcvtynbghuioplkjm'
  2541 00005E26 64637674796E626768-
  2541 00005E2F 75696F706C6B6A6D   
  2542                                  ; BONUS_NO_CHARACTER: db '1234567898765432345677888'
  2543                                  ; BONUS_UPPER_CHARACTER: db 'QWERTYUJHVCDSDFGHNHBVCFXD'
  2544                                  
  2545                                  
  2546 00005E37 0000                    B1_CHARACTER_COUNTER: dw 0
  2547 00005E39 0000                    B2_CHARACTER_COUNTER: dw 0
  2548 00005E3B 0000                    B3_CHARACTER_COUNTER: dw 0
  2549 00005E3D 0000                    B4_CHARACTER_COUNTER: dw 0
  2550 00005E3F 0000                    B5_CHARACTER_COUNTER: dw 0
  2551 00005E41 0000                    B6_CHARACTER_COUNTER: dw 0
  2552                                  
  2553 00005E43 00                      GAME_END_SO: db 0
  2554                                  	   
  2555 00005E44 00                      CURRENT_ENTERED_CHARACTER: db 0
  2556 00005E45 00                      B1_CURRENT_CHARACTER: db 0
  2557 00005E46 00                      B2_CURRENT_CHARACTER: db 0
  2558 00005E47 00                      B3_CURRENT_CHARACTER: db 0
  2559 00005E48 00                      B4_CURRENT_CHARACTER: db 0
  2560 00005E49 00                      B5_CURRENT_CHARACTER: db 0
  2561 00005E4A 00                      B6_CURRENT_CHARACTER: db 0    
  2562                                  
  2563 00005E4B 0000                    B1_COLOR_COUNTER: dw 0 
  2564 00005E4D 0400                    B2_COLOR_COUNTER: dw 4
  2565 00005E4F 0300                    B3_COLOR_COUNTER: dw 3 
  2566 00005E51 0500                    B4_COLOR_COUNTER: dw 5 
  2567 00005E53 0100                    B5_COLOR_COUNTER: dw 1 
  2568 00005E55 0600                    B6_COLOR_COUNTER: dw 6 
  2569                                  
  2570 00005E57 01040506080C0D          B1_COLOR: db 0x01,0x04,0x05,0x06,0x08,0x0C,0x0D
  2571 00005E5E 01040506080C0D          B2_COLOR: db 0x01,0x04,0x05,0x06,0x08,0x0C,0x0D
  2572 00005E65 01040506080C0D          B3_COLOR: db 0x01,0x04,0x05,0x06,0x08,0x0C,0x0D
  2573 00005E6C 01040506080C0D          B4_COLOR: db 0x01,0x04,0x05,0x06,0x08,0x0C,0x0D
  2574 00005E73 01020405060C0D          B5_COLOR: db 0x01,0x02,0x04,0x05,0x06,0x0C,0x0D
  2575 00005E7A 01020405060C0D          B6_COLOR: db 0x01,0x02,0x04,0x05,0x06,0x0C,0x0D
  2576                                  
  2577 00005E81 0000                    SURVIVAL_COUNTER: dw 0
  2578 00005E83 0300                    LIFE_LENGTH: dw 3
  2579 00005E85 4C4946453A              LIFE_LABEl: db 'LIFE:'
  2580                                  
  2581                                  ;;//////////////////////////ENDLESS MODE///////////////////////////////////////////////////
  2582                                  ;;////////////////////////////////////////////////////////////////////////////////////////
  2583                                  clearscreen_ENDLESS: 
  2584 00005E8A 60                      					pusha
  2585 00005E8B B800B8                  				MOV		AX, 0xB800
  2586 00005E8E 8EC0                    				MOV		ES, AX
  2587 00005E90 BF0000                  				mov di,0
  2588                                  				
  2589                                  		 nextloc_ENDLESS:  
  2590 00005E93 26C705DC0A              					mov word[es:di]	,0x0ADC
  2591 00005E98 83C702                  					add di,2
  2592 00005E9B 26C705DF0A              					mov word[es:di]	,0x0ADF
  2593 00005EA0 83C702                  					add di,2
  2594 00005EA3 81FFA00F                					cmp di,4000
  2595 00005EA7 75EA                    					jne nextloc_ENDLESS
  2596                                  
  2597                                  
  2598 00005EA9 61                      					popa
  2599                                  
  2600 00005EAA C3                      					ret			
  2601                                  	   
  2602                                  ;;//////////////////SURVIVAL SCREEN////////////////////////////////////////////////////////
  2603                                  ;/////////////////////////////////////////////////////////////////////////////////////////
  2604 00005EAB 60                      CREATE_HURDLES:pusha
  2605                                                      
  2606                                  					
  2607 00005EAC B800B8                  					mov ax,0xb800
  2608 00005EAF 8EC0                    					mov es,ax
  2609 00005EB1 BF0000                  					mov di,0
  2610                                  					
  2611 00005EB4 BE1900                  					mov si,25
  2612 00005EB7 FC                      					cld 
  2613 00005EB8 B8B005                  DRAWING_SURVIVAL:	mov ax,0x05B0
  2614 00005EBB B95000                                      mov cx,80
  2615 00005EBE F3AB                    					rep stosw
  2616 00005EC0 B95000                  					mov cx,80
  2617 00005EC3 B8B10C                  					mov ax,0x0Cb1
  2618 00005EC6 F3AB                    					rep stosw
  2619 00005EC8 83EE01                  			        sub si,1
  2620 00005ECB 83FE00                  					cmp si,0
  2621 00005ECE 75E8                    					jne DRAWING_SURVIVAL
  2622                                  					
  2623 00005ED0 BF4403                  					mov di,836
  2624 00005ED3 B81F04                  					mov ax,0x041f
  2625 00005ED6 B90500                  					mov cx,5
  2626 00005ED9 F3AB                    					rep stosw
  2627                                  					
  2628 00005EDB BFA806                  					mov di,1704
  2629 00005EDE B81F04                  					mov ax,0x041f
  2630 00005EE1 B90500                  					mov cx,5
  2631 00005EE4 F3AB                    					rep stosw
  2632                                  					
  2633 00005EE6 BF8A07                  					mov di,1930
  2634 00005EE9 B81F04                  					mov ax,0x041f
  2635 00005EEC B90500                  					mov cx,5
  2636 00005EEF F3AB                    					rep stosw
  2637                                  					
  2638 00005EF1 BFD809                  					mov di,2520
  2639 00005EF4 B81F04                  					mov ax,0x041f
  2640 00005EF7 B90500                  					mov cx,5
  2641 00005EFA F3AB                    					rep stosw
  2642                                  					
  2643                                  					
  2644 00005EFC BF9A00                  					mov di,154
  2645 00005EFF 8B0E[835E]              					mov cx,[LIFE_LENGTH]
  2646 00005F03 B8030C                  					mov ax,0x0C03
  2647 00005F06 F3AB                    					rep stosw
  2648 00005F08 FD                      					std
  2649 00005F09 BF9000                  					mov di,144
  2650 00005F0C BE0000                  					mov si,0
  2651 00005F0F BB0000                  					mov bx,0
  2652 00005F12 B40F                    					mov ah,0x0f
  2653 00005F14 8A84[855E]              DRAW_CONTINUE_LIFE_LABEL:mov al,[LIFE_LABEl+si]
  2654 00005F18 268901                  					mov word[es:di+bx],ax
  2655 00005F1B 83C601                  					add si,1
  2656 00005F1E 83C302                  					add bx,2
  2657 00005F21 83FE05                  					cmp si,5
  2658 00005F24 7CEE                    					jl DRAW_CONTINUE_LIFE_LABEL
  2659                                  					
  2660 00005F26 B800B8                  					mov ax,0xb800
  2661 00005F29 8EC0                    					mov es,ax
  2662 00005F2B BF1400                  					mov di,20
  2663 00005F2E B93E00                  					mov cx,62
  2664 00005F31 B81F04                  					mov ax,0x041f
  2665 00005F34 FC                      					cld
  2666 00005F35 F3AB                    					rep stosw
  2667                                  
  2668 00005F37 FD                      					std
  2669                                  					
  2670 00005F38 61                      popa
  2671 00005F39 C3                      ret
  2672                                  
  2673                                  ;;/////////////////////////////////CLR SCREEN FUNCTION FOR GAME SCREEN//////////////////////////
  2674                                  ;;/////////////////////////////////////////////////////////////////////////////////////////////		
  2675 00005F3A 06                      clearscreen_GAME: push ES
  2676 00005F3B 50                      					 push AX
  2677 00005F3C 57                      					 push di
  2678                                  					 
  2679 00005F3D B800B8                  				MOV		AX, 0xB800
  2680 00005F40 8EC0                    				MOV		ES, AX
  2681 00005F42 BF0000                  				mov di,0
  2682                                  				
  2683 00005F45 26C7052007              		nextloc_GAME:    mov word[es:di]	,0x0720
  2684 00005F4A 83C702                  					add di,2
  2685 00005F4D 81FFA00F                					cmp di,4000
  2686 00005F51 75F2                    					jne nextloc_GAME
  2687                                  
  2688                                  
  2689 00005F53 5F                      					pop di
  2690 00005F54 58                      					pop AX
  2691 00005F55 07                      					pop ES
  2692                                  
  2693 00005F56 C3                      					ret			
  2694                                  					
  2695                                  ;;///////////////////////////////////////SCORE TEMPLATE/////////////////////////////////
  2696                                  ;;//////////////////////////////////////////////////////////////////////////////////////					
  2697 00005F57 60                      Draw_SCORE_TEMPLATE:pusha 
  2698 00005F58 B800B8                                   	MOV		AX, 0xB800
  2699 00005F5B 8EC0                    				MOV		ES, AX
  2700 00005F5D BF0000                  				mov di,0
  2701 00005F60 B40F                    				mov ah,0x0F
  2702 00005F62 BE0000                  				mov si,0
  2703 00005F65 8A84[E95C]              		REPEAT_NEXT_SC: mov al,[msg_score_GAME+si]
  2704 00005F69 268905                                		mov word[es:di]	,ax
  2705 00005F6C 83C702                  					add di,2
  2706 00005F6F 83C601                  					add si,1
  2707 00005F72 3C00                    					cmp al,0
  2708 00005F74 75EF                    					jne REPEAT_NEXT_SC
  2709 00005F76 BE0000                  					mov si,0
  2710 00005F79 8A84[F05C]              		REPEAT_NEXT_SC2: mov al,[SCORE_digit_GAME+si]
  2711 00005F7D 268905                                		mov word[es:di]	,ax
  2712 00005F80 83C702                  					add di,2
  2713 00005F83 83C601                  					add si,1
  2714 00005F86 80BC[F05C]00            					cmp byte[SCORE_digit_GAME+si],0
  2715 00005F8B 75EC                    					jne REPEAT_NEXT_SC2			
  2716                                  					
  2717                                  					
  2718                                  
  2719 00005F8D 61                                  popa
  2720 00005F8E C3                      			ret
  2721                                  
  2722                                  
  2723                                  ;////////////////////////////////////TIME TEMPLATE FUNCTION/////////////////////////////////
  2724                                  ;///////////////////////////////////////////////////////////////////////////////////////////
  2725 00005F8F 60                      Draw_TIME_TEMPLATE:pusha 
  2726 00005F90 B800B8                                   	MOV		AX, 0xB800
  2727 00005F93 8EC0                    				MOV		ES, AX
  2728 00005F95 BF8C00                  				mov di,140
  2729 00005F98 B40E                    				mov ah,0x0E
  2730 00005F9A BE0000                  				mov si,0
  2731 00005F9D 8A84[4D5D]              		REPEAT_NEXT_SC11: mov al,[TIME_DIGIT_VAR+si]
  2732 00005FA1 268905                                		mov word[es:di]	,ax
  2733 00005FA4 83C702                  					add di,2
  2734 00005FA7 83C601                  					add si,1
  2735 00005FAA 3C00                    					cmp al,0
  2736 00005FAC 75EF                    					jne REPEAT_NEXT_SC11
  2737 00005FAE BF9600                  					mov di,150
  2738 00005FB1 BE0000                  					mov si,0
  2739 00005FB4 8A84[485D]              		REPEAT_NEXT_SC21: mov al,[TIME_DIGIT+si]
  2740 00005FB8 268905                                		mov word[es:di]	,ax
  2741 00005FBB 83C702                  					add di,2
  2742 00005FBE 83C601                  					add si,1
  2743 00005FC1 80BC[485D]00            					cmp byte[TIME_DIGIT+si],0
  2744 00005FC6 75EC                    					jne REPEAT_NEXT_SC21			
  2745 00005FC8 8006[475D]01            					 add byte[tick_count],1
  2746 00005FCD 803E[475D]08            				 cmp byte[tick_count],8
  2747 00005FD2 7407                    				 je ooho
  2748 00005FD4 803E[475D]08            				 cmp byte[tick_count],8
  2749 00005FD9 7503                    				 jne ooho_end
  2750                                  				 
  2751 00005FDB E80200                  ooho: call UPDATE_TIME
  2752                                        					
  2753                                  
  2754 00005FDE 61                      ooho_end            popa
  2755 00005FDF C3                      			ret
  2756                                  				
  2757                                  ;;////////////////////////////////////////////UPDATE TIME///////////////////////////////////
  2758                                  ;;/////////////////////////////////////////////////////////////////////////////////////////
  2759 00005FE0 60                      UPDATE_TIME:pusha		 				 
  2760 00005FE1 C606[475D]00            	mov byte[tick_count],0
  2761 00005FE6 803E[4B5D]30            R1_M_SEC: cmp byte[TIME_DIGIT+3],'0'
  2762 00005FEB 7407                             je R2_M_SEC
  2763 00005FED 802E[4B5D]01            		 sub byte[TIME_DIGIT+3],1
  2764 00005FF2 EB2B                    		 jmp retur_BACK_end
  2765 00005FF4 803E[4A5D]30            R2_M_SEC: cmp byte[TIME_DIGIT+2],'0'
  2766 00005FF9 740C                              je  MIN_CHECK
  2767 00005FFB C606[4B5D]39            		  mov byte[TIME_DIGIT+3],'9'
  2768 00006000 802E[4A5D]01            		  sub byte[TIME_DIGIT+2],1
  2769 00006005 EB18                    		  jmp retur_BACK_end
  2770 00006007 803E[485D]30            MIN_CHECK: cmp byte[TIME_DIGIT],'0'
  2771 0000600C 0F849A35                           je game_end
  2772 00006010 C606[4B5D]39            		   mov byte[TIME_DIGIT+3],'9'
  2773 00006015 C606[4A5D]35            		   mov byte[TIME_DIGIT+2],'5'
  2774 0000601A 802E[485D]01            		   sub byte[TIME_DIGIT],1
  2775                                  
  2776                                  
  2777 0000601F 61                      retur_BACK_end: popa
  2778 00006020 C3                                      ret		   
  2779                                  ;;////////////////////////////////////updating score FUNCTION/////////////////////////////////
  2780                                  ;;///////////////////////////////////////////////////////////////////////////////////////////
  2781                                  
  2782                                  UPDATE_SCORE:
  2783 00006021 60                          pusha
  2784                                      
  2785                                      ; Increment rightmost digit (ones place)
  2786 00006022 803E[F25C]39                cmp byte[SCORE_digit_GAME+2],'9'
  2787 00006027 7528                        jne inc_ones
  2788                                      
  2789                                      ; Ones overflow - reset to 0 and carry to tens
  2790 00006029 C606[F25C]30                mov byte[SCORE_digit_GAME+2],'0'
  2791                                      
  2792 0000602E 803E[F15C]39                cmp byte[SCORE_digit_GAME+1],'9'
  2793 00006033 7515                        jne inc_tens
  2794                                      
  2795                                      ; Tens overflow - reset to 0 and carry to hundreds
  2796 00006035 C606[F15C]30                mov byte[SCORE_digit_GAME+1],'0'
  2797                                      
  2798 0000603A 803E[F05C]39                cmp byte[SCORE_digit_GAME+0],'9'
  2799 0000603F 7502                        jne inc_hundreds
  2800                                      
  2801                                      ; All digits at 9 - max score reached
  2802 00006041 EB13                        jmp done_SCORPDATION
  2803                                      
  2804                                  inc_hundreds:
  2805 00006043 8006[F05C]01                add byte[SCORE_digit_GAME+0],1
  2806 00006048 EB0C                        jmp done_SCORPDATION
  2807                                      
  2808                                  inc_tens:
  2809 0000604A 8006[F15C]01                add byte[SCORE_digit_GAME+1],1
  2810 0000604F EB05                        jmp done_SCORPDATION
  2811                                      
  2812                                  inc_ones:
  2813 00006051 8006[F25C]01                add byte[SCORE_digit_GAME+2],1
  2814                                      
  2815                                  done_SCORPDATION:
  2816 00006056 61                          popa
  2817 00006057 C3                          ret   
  2818                                  	
  2819 00006058 60                      B1_CLEAR:pusha
  2820 00006059 BB00B8                  			   mov bx,0xb800
  2821 0000605C 31FF                    			   xor di,di
  2822                                  			   ;xor dx,dx
  2823 0000605E 31C0                    			   xor ax,AX
  2824                                  			   
  2825 00006060 8EC3                    				MOV		ES, bx
  2826 00006062 8B3E[835D]                               mov di,[CURRENT_POS_B1]
  2827 00006066 81C7A000                				 add di,160
  2828 0000606A 8B95[1900]                           mov dx,[BG_BUFFER+di-2]
  2829 0000606E 268955FE                             mov word[es:di-2]	,dx
  2830 00006072 8B95[1B00]              			 mov dx,[BG_BUFFER+di]
  2831 00006076 268915                  		     mov word[es:di]	,dx
  2832 00006079 8B95[1D00]              			 mov dx,[BG_BUFFER+di+2]
  2833 0000607D 26895502                			 mov word[es:di+2]	,dx
  2834 00006081 8B95[1F00]              			 mov dx,[BG_BUFFER+di+4]
  2835 00006085 26895504                		     mov word[es:di+4]	,dx
  2836 00006089 8B95[2100]              			 mov dx,[BG_BUFFER+di+6]
  2837 0000608D 26895506                			 mov word[es:di+6]	,dx
  2838 00006091 8B95[B700]              			 mov dx,[BG_BUFFER+di+156]
  2839 00006095 2689959C00              			 mov word[es:di+156]	,dx
  2840 0000609A 8B95[B900]              			 mov dx,[BG_BUFFER+di+158]
  2841 0000609E 2689959E00              		     mov word[es:di+158]	,dx
  2842 000060A3 8B95[BB00]              			 mov dx,[BG_BUFFER+di+160]
  2843 000060A7 268995A000              		     mov word[es:di+160]	,dx
  2844 000060AC 8B95[BD00]              			 mov dx,[BG_BUFFER+di+162]
  2845 000060B0 268995A200              			 mov word[es:di+162]	,dx
  2846 000060B5 8B95[BF00]                           mov dx,[BG_BUFFER+di+164]
  2847 000060B9 268995A400              			mov word[es:di+164]	,dx
  2848 000060BE 8B95[C100]              			mov dx,[BG_BUFFER+di+166]
  2849 000060C2 268995A600              			mov word[es:di+166]	,dx
  2850 000060C7 8B95[C300]              			mov dx,[BG_BUFFER+di+168]
  2851 000060CB 268995A800              			mov word[es:di+168]	,dx
  2852 000060D0 8B95[5701]              			mov dx,[BG_BUFFER+di+316]
  2853 000060D4 2689953C01              			mov word[es:di+316]	,dx
  2854 000060D9 8B95[5901]              			mov dx,[BG_BUFFER+di+318]
  2855 000060DD 2689953E01              			mov word[es:di+318]	,dx
  2856 000060E2 8B95[5B01]              			mov dx,[BG_BUFFER+di+320]
  2857 000060E6 2689954001              			mov word[es:di+320]	,dx
  2858 000060EB 8B95[5D01]              			mov dx,[BG_BUFFER+di+322]
  2859 000060EF 2689954201              			mov word[es:di+322]	,dx
  2860 000060F4 8B95[5F01]              			mov dx,[BG_BUFFER+di+324]
  2861 000060F8 2689954401                          mov word[es:di+324]	,dx
  2862 000060FD 8B95[6101]              			mov dx,[BG_BUFFER+di+326]
  2863 00006101 2689954601              			mov word[es:di+326]	,dx
  2864 00006106 8B95[6301]              			mov dx,[BG_BUFFER+di+328]
  2865 0000610A 2689954801              			mov word[es:di+328]	,dx
  2866 0000610F 8B95[F901]              			mov dx,[BG_BUFFER+di+478]
  2867 00006113 268995DE01              			mov word[es:di+478]	,dx
  2868 00006118 8B95[FB01]              			mov dx,[BG_BUFFER+di+480]
  2869 0000611C 268995E001              			mov word[es:di+480]	,dx
  2870 00006121 8B95[FD01]              			mov dx,[BG_BUFFER+di+482]
  2871 00006125 268995E201              			mov word[es:di+482]	,dx
  2872 0000612A 8B95[FF01]              			mov dx,[BG_BUFFER+di+484]
  2873 0000612E 268995E401              			mov word[es:di+484]	,dx
  2874 00006133 8B95[0102]              			mov dx,[BG_BUFFER+di+486]
  2875 00006137 268995E601              			mov word[es:di+486]	,dx
  2876 0000613C 8B95[9B02]              			mov dx,[BG_BUFFER+di+640]
  2877 00006140 2689958002              			mov word[es:di+640]	,dx
  2878 00006145 8B95[9D02]              			mov dx,[BG_BUFFER+di+642]
  2879 00006149 2689958202              			mov word[es:di+642]	,dx
  2880 0000614E 8B95[9F02]              			mov dx,[BG_BUFFER+di+644]
  2881 00006152 2689958402              			mov word[es:di+644]	,dx
  2882 00006157 8B95[3D03]              			mov dx,[BG_BUFFER+di+802]
  2883 0000615B 2689952203              			mov word[es:di+802]	,dx
  2884 00006160 833E[1900]01                        cmp word[Ballon_pop],1
  2885 00006165 756A                    			jne CLEAR_END_B1
  2886 00006167 81EFA000                			sub di,160
  2887 0000616B 8B95[1900]              			 mov dx,[BG_BUFFER+di-2]
  2888 0000616F 268955FE                             mov word[es:di-2]	,dx
  2889 00006173 8B95[1B00]              			 mov dx,[BG_BUFFER+di]
  2890 00006177 268915                  		     mov word[es:di]	,dx
  2891 0000617A 8B95[1D00]              			 mov dx,[BG_BUFFER+di+2]
  2892 0000617E 26895502                			 mov word[es:di+2]	,dx
  2893 00006182 8B95[1F00]              			 mov dx,[BG_BUFFER+di+4]
  2894 00006186 26895504                		     mov word[es:di+4]	,dx
  2895 0000618A 8B95[2100]              			 mov dx,[BG_BUFFER+di+6]
  2896 0000618E 26895506                			 mov word[es:di+6]	,dx
  2897 00006192 8B95[B700]              			 mov dx,[BG_BUFFER+di+156]
  2898 00006196 2689959C00              			 mov word[es:di+156]	,dx
  2899 0000619B 8B95[B900]              			 mov dx,[BG_BUFFER+di+158]
  2900 0000619F 2689959E00              		     mov word[es:di+158]	,dx
  2901 000061A4 8B95[BB00]              			 mov dx,[BG_BUFFER+di+160]
  2902 000061A8 268995A000              		     mov word[es:di+160]	,dx
  2903 000061AD 8B95[BD00]              			 mov dx,[BG_BUFFER+di+162]
  2904 000061B1 268995A200              			 mov word[es:di+162]	,dx
  2905 000061B6 8B95[BF00]                           mov dx,[BG_BUFFER+di+164]
  2906 000061BA 268995A400              			mov word[es:di+164]	,dx
  2907 000061BF 8B95[C100]              			mov dx,[BG_BUFFER+di+166]
  2908 000061C3 268995A600              			mov word[es:di+166]	,dx
  2909 000061C8 8B95[C300]              			mov dx,[BG_BUFFER+di+168]
  2910 000061CC 268995A800              			mov word[es:di+168]	,dx
  2911                                  CLEAR_END_B1:
  2912 000061D1 61                      popa
  2913 000061D2 C3                      ret	
  2914                                  
  2915 000061D3 60                      B2_CLEAR:pusha
  2916 000061D4 BB00B8                  			   mov bx,0xb800
  2917 000061D7 31FF                    			   xor di,di
  2918                                  			   ;xor dx,dx
  2919 000061D9 31C0                    			   xor ax,AX
  2920                                  			   
  2921 000061DB 8EC3                    				MOV		ES, bx
  2922 000061DD 8B3E[855D]                               mov di,[CURRENT_POS_B2]
  2923 000061E1 81C7A000                				 add di,160
  2924 000061E5 8B95[1900]                           mov dx,[BG_BUFFER+di-2]
  2925 000061E9 268955FE                             mov word[es:di-2]	,dx
  2926 000061ED 8B95[1B00]              			 mov dx,[BG_BUFFER+di]
  2927 000061F1 268915                  		     mov word[es:di]	,dx
  2928 000061F4 8B95[1D00]              			 mov dx,[BG_BUFFER+di+2]
  2929 000061F8 26895502                			 mov word[es:di+2]	,dx
  2930 000061FC 8B95[1F00]              			 mov dx,[BG_BUFFER+di+4]
  2931 00006200 26895504                		     mov word[es:di+4]	,dx
  2932 00006204 8B95[2100]              			 mov dx,[BG_BUFFER+di+6]
  2933 00006208 26895506                			 mov word[es:di+6]	,dx
  2934 0000620C 8B95[B700]              			 mov dx,[BG_BUFFER+di+156]
  2935 00006210 2689959C00              			 mov word[es:di+156]	,dx
  2936 00006215 8B95[B900]              			 mov dx,[BG_BUFFER+di+158]
  2937 00006219 2689959E00              		     mov word[es:di+158]	,dx
  2938 0000621E 8B95[BB00]              			 mov dx,[BG_BUFFER+di+160]
  2939 00006222 268995A000              		     mov word[es:di+160]	,dx
  2940 00006227 8B95[BD00]              			 mov dx,[BG_BUFFER+di+162]
  2941 0000622B 268995A200              			 mov word[es:di+162]	,dx
  2942 00006230 8B95[BF00]                           mov dx,[BG_BUFFER+di+164]
  2943 00006234 268995A400              			mov word[es:di+164]	,dx
  2944 00006239 8B95[C100]              			mov dx,[BG_BUFFER+di+166]
  2945 0000623D 268995A600              			mov word[es:di+166]	,dx
  2946 00006242 8B95[C300]              			mov dx,[BG_BUFFER+di+168]
  2947 00006246 268995A800              			mov word[es:di+168]	,dx
  2948 0000624B 8B95[5701]              			mov dx,[BG_BUFFER+di+316]
  2949 0000624F 2689953C01              			mov word[es:di+316]	,dx
  2950 00006254 8B95[5901]              			mov dx,[BG_BUFFER+di+318]
  2951 00006258 2689953E01              			mov word[es:di+318]	,dx
  2952 0000625D 8B95[5B01]              			mov dx,[BG_BUFFER+di+320]
  2953 00006261 2689954001              			mov word[es:di+320]	,dx
  2954 00006266 8B95[5D01]              			mov dx,[BG_BUFFER+di+322]
  2955 0000626A 2689954201              			mov word[es:di+322]	,dx
  2956 0000626F 8B95[5F01]              			mov dx,[BG_BUFFER+di+324]
  2957 00006273 2689954401                          mov word[es:di+324]	,dx
  2958 00006278 8B95[6101]              			mov dx,[BG_BUFFER+di+326]
  2959 0000627C 2689954601              			mov word[es:di+326]	,dx
  2960 00006281 8B95[6301]              			mov dx,[BG_BUFFER+di+328]
  2961 00006285 2689954801              			mov word[es:di+328]	,dx
  2962 0000628A 8B95[F901]              			mov dx,[BG_BUFFER+di+478]
  2963 0000628E 268995DE01              			mov word[es:di+478]	,dx
  2964 00006293 8B95[FB01]              			mov dx,[BG_BUFFER+di+480]
  2965 00006297 268995E001              			mov word[es:di+480]	,dx
  2966 0000629C 8B95[FD01]              			mov dx,[BG_BUFFER+di+482]
  2967 000062A0 268995E201              			mov word[es:di+482]	,dx
  2968 000062A5 8B95[FF01]              			mov dx,[BG_BUFFER+di+484]
  2969 000062A9 268995E401              			mov word[es:di+484]	,dx
  2970 000062AE 8B95[0102]              			mov dx,[BG_BUFFER+di+486]
  2971 000062B2 268995E601              			mov word[es:di+486]	,dx
  2972 000062B7 8B95[9B02]              			mov dx,[BG_BUFFER+di+640]
  2973 000062BB 2689958002              			mov word[es:di+640]	,dx
  2974 000062C0 8B95[9D02]              			mov dx,[BG_BUFFER+di+642]
  2975 000062C4 2689958202              			mov word[es:di+642]	,dx
  2976 000062C9 8B95[9F02]              			mov dx,[BG_BUFFER+di+644]
  2977 000062CD 2689958402              			mov word[es:di+644]	,dx
  2978 000062D2 8B95[3D03]              			mov dx,[BG_BUFFER+di+802]
  2979 000062D6 2689952203              			mov word[es:di+802]	,dx
  2980 000062DB 833E[1900]01                        cmp word[Ballon_pop],1
  2981 000062E0 756A                    			jne CLEAR_END_B2
  2982 000062E2 81EFA000                			sub di,160
  2983 000062E6 8B95[1900]              			 mov dx,[BG_BUFFER+di-2]
  2984 000062EA 268955FE                             mov word[es:di-2]	,dx
  2985 000062EE 8B95[1B00]              			 mov dx,[BG_BUFFER+di]
  2986 000062F2 268915                  		     mov word[es:di]	,dx
  2987 000062F5 8B95[1D00]              			 mov dx,[BG_BUFFER+di+2]
  2988 000062F9 26895502                			 mov word[es:di+2]	,dx
  2989 000062FD 8B95[1F00]              			 mov dx,[BG_BUFFER+di+4]
  2990 00006301 26895504                		     mov word[es:di+4]	,dx
  2991 00006305 8B95[2100]              			 mov dx,[BG_BUFFER+di+6]
  2992 00006309 26895506                			 mov word[es:di+6]	,dx
  2993 0000630D 8B95[B700]              			 mov dx,[BG_BUFFER+di+156]
  2994 00006311 2689959C00              			 mov word[es:di+156]	,dx
  2995 00006316 8B95[B900]              			 mov dx,[BG_BUFFER+di+158]
  2996 0000631A 2689959E00              		     mov word[es:di+158]	,dx
  2997 0000631F 8B95[BB00]              			 mov dx,[BG_BUFFER+di+160]
  2998 00006323 268995A000              		     mov word[es:di+160]	,dx
  2999 00006328 8B95[BD00]              			 mov dx,[BG_BUFFER+di+162]
  3000 0000632C 268995A200              			 mov word[es:di+162]	,dx
  3001 00006331 8B95[BF00]                           mov dx,[BG_BUFFER+di+164]
  3002 00006335 268995A400              			mov word[es:di+164]	,dx
  3003 0000633A 8B95[C100]              			mov dx,[BG_BUFFER+di+166]
  3004 0000633E 268995A600              			mov word[es:di+166]	,dx
  3005 00006343 8B95[C300]              			mov dx,[BG_BUFFER+di+168]
  3006 00006347 268995A800              			mov word[es:di+168]	,dx
  3007                                  CLEAR_END_B2:
  3008 0000634C 61                      popa
  3009 0000634D C3                      ret	
  3010                                  
  3011 0000634E 60                      B3_CLEAR:pusha
  3012 0000634F BB00B8                  			   mov bx,0xb800
  3013 00006352 31FF                    			   xor di,di
  3014                                  			   ;xor dx,dx
  3015 00006354 31C0                    			   xor ax,AX
  3016                                  			   
  3017 00006356 8EC3                    				MOV		ES, bx
  3018 00006358 8B3E[875D]                               mov di,[CURRENT_POS_B3]
  3019 0000635C 81C7A000                				 add di,160
  3020 00006360 8B95[1900]                           mov dx,[BG_BUFFER+di-2]
  3021 00006364 268955FE                             mov word[es:di-2]	,dx
  3022 00006368 8B95[1B00]              			 mov dx,[BG_BUFFER+di]
  3023 0000636C 268915                  		     mov word[es:di]	,dx
  3024 0000636F 8B95[1D00]              			 mov dx,[BG_BUFFER+di+2]
  3025 00006373 26895502                			 mov word[es:di+2]	,dx
  3026 00006377 8B95[1F00]              			 mov dx,[BG_BUFFER+di+4]
  3027 0000637B 26895504                		     mov word[es:di+4]	,dx
  3028 0000637F 8B95[2100]              			 mov dx,[BG_BUFFER+di+6]
  3029 00006383 26895506                			 mov word[es:di+6]	,dx
  3030 00006387 8B95[B700]              			 mov dx,[BG_BUFFER+di+156]
  3031 0000638B 2689959C00              			 mov word[es:di+156]	,dx
  3032 00006390 8B95[B900]              			 mov dx,[BG_BUFFER+di+158]
  3033 00006394 2689959E00              		     mov word[es:di+158]	,dx
  3034 00006399 8B95[BB00]              			 mov dx,[BG_BUFFER+di+160]
  3035 0000639D 268995A000              		     mov word[es:di+160]	,dx
  3036 000063A2 8B95[BD00]              			 mov dx,[BG_BUFFER+di+162]
  3037 000063A6 268995A200              			 mov word[es:di+162]	,dx
  3038 000063AB 8B95[BF00]                           mov dx,[BG_BUFFER+di+164]
  3039 000063AF 268995A400              			mov word[es:di+164]	,dx
  3040 000063B4 8B95[C100]              			mov dx,[BG_BUFFER+di+166]
  3041 000063B8 268995A600              			mov word[es:di+166]	,dx
  3042 000063BD 8B95[C300]              			mov dx,[BG_BUFFER+di+168]
  3043 000063C1 268995A800              			mov word[es:di+168]	,dx
  3044 000063C6 8B95[5701]              			mov dx,[BG_BUFFER+di+316]
  3045 000063CA 2689953C01              			mov word[es:di+316]	,dx
  3046 000063CF 8B95[5901]              			mov dx,[BG_BUFFER+di+318]
  3047 000063D3 2689953E01              			mov word[es:di+318]	,dx
  3048 000063D8 8B95[5B01]              			mov dx,[BG_BUFFER+di+320]
  3049 000063DC 2689954001              			mov word[es:di+320]	,dx
  3050 000063E1 8B95[5D01]              			mov dx,[BG_BUFFER+di+322]
  3051 000063E5 2689954201              			mov word[es:di+322]	,dx
  3052 000063EA 8B95[5F01]              			mov dx,[BG_BUFFER+di+324]
  3053 000063EE 2689954401                          mov word[es:di+324]	,dx
  3054 000063F3 8B95[6101]              			mov dx,[BG_BUFFER+di+326]
  3055 000063F7 2689954601              			mov word[es:di+326]	,dx
  3056 000063FC 8B95[6301]              			mov dx,[BG_BUFFER+di+328]
  3057 00006400 2689954801              			mov word[es:di+328]	,dx
  3058 00006405 8B95[F901]              			mov dx,[BG_BUFFER+di+478]
  3059 00006409 268995DE01              			mov word[es:di+478]	,dx
  3060 0000640E 8B95[FB01]              			mov dx,[BG_BUFFER+di+480]
  3061 00006412 268995E001              			mov word[es:di+480]	,dx
  3062 00006417 8B95[FD01]              			mov dx,[BG_BUFFER+di+482]
  3063 0000641B 268995E201              			mov word[es:di+482]	,dx
  3064 00006420 8B95[FF01]              			mov dx,[BG_BUFFER+di+484]
  3065 00006424 268995E401              			mov word[es:di+484]	,dx
  3066 00006429 8B95[0102]              			mov dx,[BG_BUFFER+di+486]
  3067 0000642D 268995E601              			mov word[es:di+486]	,dx
  3068 00006432 8B95[9B02]              			mov dx,[BG_BUFFER+di+640]
  3069 00006436 2689958002              			mov word[es:di+640]	,dx
  3070 0000643B 8B95[9D02]              			mov dx,[BG_BUFFER+di+642]
  3071 0000643F 2689958202              			mov word[es:di+642]	,dx
  3072 00006444 8B95[9F02]              			mov dx,[BG_BUFFER+di+644]
  3073 00006448 2689958402              			mov word[es:di+644]	,dx
  3074 0000644D 8B95[3D03]              			mov dx,[BG_BUFFER+di+802]
  3075 00006451 2689952203              			mov word[es:di+802]	,dx
  3076 00006456 833E[1900]01                        cmp word[Ballon_pop],1
  3077 0000645B 756A                    			jne CLEAR_END_B3
  3078 0000645D 81EFA000                			sub di,160
  3079 00006461 8B95[1900]              			 mov dx,[BG_BUFFER+di-2]
  3080 00006465 268955FE                             mov word[es:di-2]	,dx
  3081 00006469 8B95[1B00]              			 mov dx,[BG_BUFFER+di]
  3082 0000646D 268915                  		     mov word[es:di]	,dx
  3083 00006470 8B95[1D00]              			 mov dx,[BG_BUFFER+di+2]
  3084 00006474 26895502                			 mov word[es:di+2]	,dx
  3085 00006478 8B95[1F00]              			 mov dx,[BG_BUFFER+di+4]
  3086 0000647C 26895504                		     mov word[es:di+4]	,dx
  3087 00006480 8B95[2100]              			 mov dx,[BG_BUFFER+di+6]
  3088 00006484 26895506                			 mov word[es:di+6]	,dx
  3089 00006488 8B95[B700]              			 mov dx,[BG_BUFFER+di+156]
  3090 0000648C 2689959C00              			 mov word[es:di+156]	,dx
  3091 00006491 8B95[B900]              			 mov dx,[BG_BUFFER+di+158]
  3092 00006495 2689959E00              		     mov word[es:di+158]	,dx
  3093 0000649A 8B95[BB00]              			 mov dx,[BG_BUFFER+di+160]
  3094 0000649E 268995A000              		     mov word[es:di+160]	,dx
  3095 000064A3 8B95[BD00]              			 mov dx,[BG_BUFFER+di+162]
  3096 000064A7 268995A200              			 mov word[es:di+162]	,dx
  3097 000064AC 8B95[BF00]                           mov dx,[BG_BUFFER+di+164]
  3098 000064B0 268995A400              			mov word[es:di+164]	,dx
  3099 000064B5 8B95[C100]              			mov dx,[BG_BUFFER+di+166]
  3100 000064B9 268995A600              			mov word[es:di+166]	,dx
  3101 000064BE 8B95[C300]              			mov dx,[BG_BUFFER+di+168]
  3102 000064C2 268995A800              			mov word[es:di+168]	,dx
  3103                                  CLEAR_END_B3:
  3104 000064C7 61                      popa
  3105 000064C8 C3                      ret	
  3106                                  
  3107 000064C9 60                      B4_CLEAR:pusha
  3108 000064CA BB00B8                  			   mov bx,0xb800
  3109 000064CD 31FF                    			   xor di,di
  3110                                  			   ;xor dx,dx
  3111 000064CF 31C0                    			   xor ax,AX
  3112                                  			   
  3113 000064D1 8EC3                    				MOV		ES, bx
  3114 000064D3 8B3E[895D]                               mov di,[CURRENT_POS_B4]
  3115 000064D7 81C7A000                				 add di,160
  3116 000064DB 8B95[1900]                           mov dx,[BG_BUFFER+di-2]
  3117 000064DF 268955FE                             mov word[es:di-2]	,dx
  3118 000064E3 8B95[1B00]              			 mov dx,[BG_BUFFER+di]
  3119 000064E7 268915                  		     mov word[es:di]	,dx
  3120 000064EA 8B95[1D00]              			 mov dx,[BG_BUFFER+di+2]
  3121 000064EE 26895502                			 mov word[es:di+2]	,dx
  3122 000064F2 8B95[1F00]              			 mov dx,[BG_BUFFER+di+4]
  3123 000064F6 26895504                		     mov word[es:di+4]	,dx
  3124 000064FA 8B95[2100]              			 mov dx,[BG_BUFFER+di+6]
  3125 000064FE 26895506                			 mov word[es:di+6]	,dx
  3126 00006502 8B95[B700]              			 mov dx,[BG_BUFFER+di+156]
  3127 00006506 2689959C00              			 mov word[es:di+156]	,dx
  3128 0000650B 8B95[B900]              			 mov dx,[BG_BUFFER+di+158]
  3129 0000650F 2689959E00              		     mov word[es:di+158]	,dx
  3130 00006514 8B95[BB00]              			 mov dx,[BG_BUFFER+di+160]
  3131 00006518 268995A000              		     mov word[es:di+160]	,dx
  3132 0000651D 8B95[BD00]              			 mov dx,[BG_BUFFER+di+162]
  3133 00006521 268995A200              			 mov word[es:di+162]	,dx
  3134 00006526 8B95[BF00]                           mov dx,[BG_BUFFER+di+164]
  3135 0000652A 268995A400              			mov word[es:di+164]	,dx
  3136 0000652F 8B95[C100]              			mov dx,[BG_BUFFER+di+166]
  3137 00006533 268995A600              			mov word[es:di+166]	,dx
  3138 00006538 8B95[C300]              			mov dx,[BG_BUFFER+di+168]
  3139 0000653C 268995A800              			mov word[es:di+168]	,dx
  3140 00006541 8B95[5701]              			mov dx,[BG_BUFFER+di+316]
  3141 00006545 2689953C01              			mov word[es:di+316]	,dx
  3142 0000654A 8B95[5901]              			mov dx,[BG_BUFFER+di+318]
  3143 0000654E 2689953E01              			mov word[es:di+318]	,dx
  3144 00006553 8B95[5B01]              			mov dx,[BG_BUFFER+di+320]
  3145 00006557 2689954001              			mov word[es:di+320]	,dx
  3146 0000655C 8B95[5D01]              			mov dx,[BG_BUFFER+di+322]
  3147 00006560 2689954201              			mov word[es:di+322]	,dx
  3148 00006565 8B95[5F01]              			mov dx,[BG_BUFFER+di+324]
  3149 00006569 2689954401                          mov word[es:di+324]	,dx
  3150 0000656E 8B95[6101]              			mov dx,[BG_BUFFER+di+326]
  3151 00006572 2689954601              			mov word[es:di+326]	,dx
  3152 00006577 8B95[6301]              			mov dx,[BG_BUFFER+di+328]
  3153 0000657B 2689954801              			mov word[es:di+328]	,dx
  3154 00006580 8B95[F901]              			mov dx,[BG_BUFFER+di+478]
  3155 00006584 268995DE01              			mov word[es:di+478]	,dx
  3156 00006589 8B95[FB01]              			mov dx,[BG_BUFFER+di+480]
  3157 0000658D 268995E001              			mov word[es:di+480]	,dx
  3158 00006592 8B95[FD01]              			mov dx,[BG_BUFFER+di+482]
  3159 00006596 268995E201              			mov word[es:di+482]	,dx
  3160 0000659B 8B95[FF01]              			mov dx,[BG_BUFFER+di+484]
  3161 0000659F 268995E401              			mov word[es:di+484]	,dx
  3162 000065A4 8B95[0102]              			mov dx,[BG_BUFFER+di+486]
  3163 000065A8 268995E601              			mov word[es:di+486]	,dx
  3164 000065AD 8B95[9B02]              			mov dx,[BG_BUFFER+di+640]
  3165 000065B1 2689958002              			mov word[es:di+640]	,dx
  3166 000065B6 8B95[9D02]              			mov dx,[BG_BUFFER+di+642]
  3167 000065BA 2689958202              			mov word[es:di+642]	,dx
  3168 000065BF 8B95[9F02]              			mov dx,[BG_BUFFER+di+644]
  3169 000065C3 2689958402              			mov word[es:di+644]	,dx
  3170 000065C8 8B95[3D03]              			mov dx,[BG_BUFFER+di+802]
  3171 000065CC 2689952203              			mov word[es:di+802]	,dx
  3172 000065D1 833E[1900]01                        cmp word[Ballon_pop],1
  3173 000065D6 756A                    			jne CLEAR_END_B4
  3174 000065D8 81EFA000                			sub di,160
  3175 000065DC 8B95[1900]              			 mov dx,[BG_BUFFER+di-2]
  3176 000065E0 268955FE                             mov word[es:di-2]	,dx
  3177 000065E4 8B95[1B00]              			 mov dx,[BG_BUFFER+di]
  3178 000065E8 268915                  		     mov word[es:di]	,dx
  3179 000065EB 8B95[1D00]              			 mov dx,[BG_BUFFER+di+2]
  3180 000065EF 26895502                			 mov word[es:di+2]	,dx
  3181 000065F3 8B95[1F00]              			 mov dx,[BG_BUFFER+di+4]
  3182 000065F7 26895504                		     mov word[es:di+4]	,dx
  3183 000065FB 8B95[2100]              			 mov dx,[BG_BUFFER+di+6]
  3184 000065FF 26895506                			 mov word[es:di+6]	,dx
  3185 00006603 8B95[B700]              			 mov dx,[BG_BUFFER+di+156]
  3186 00006607 2689959C00              			 mov word[es:di+156]	,dx
  3187 0000660C 8B95[B900]              			 mov dx,[BG_BUFFER+di+158]
  3188 00006610 2689959E00              		     mov word[es:di+158]	,dx
  3189 00006615 8B95[BB00]              			 mov dx,[BG_BUFFER+di+160]
  3190 00006619 268995A000              		     mov word[es:di+160]	,dx
  3191 0000661E 8B95[BD00]              			 mov dx,[BG_BUFFER+di+162]
  3192 00006622 268995A200              			 mov word[es:di+162]	,dx
  3193 00006627 8B95[BF00]                           mov dx,[BG_BUFFER+di+164]
  3194 0000662B 268995A400              			mov word[es:di+164]	,dx
  3195 00006630 8B95[C100]              			mov dx,[BG_BUFFER+di+166]
  3196 00006634 268995A600              			mov word[es:di+166]	,dx
  3197 00006639 8B95[C300]              			mov dx,[BG_BUFFER+di+168]
  3198 0000663D 268995A800              			mov word[es:di+168]	,dx
  3199                                  CLEAR_END_B4:
  3200 00006642 61                      popa
  3201 00006643 C3                      ret	
  3202                                  
  3203                                  
  3204 00006644 60                      B5_CLEAR:pusha
  3205 00006645 BB00B8                  			   mov bx,0xb800
  3206 00006648 31FF                    			   xor di,di
  3207                                  			   ;xor dx,dx
  3208 0000664A 31C0                    			   xor ax,AX
  3209                                  			   
  3210 0000664C 8EC3                    				MOV		ES, bx
  3211 0000664E 8B3E[8B5D]                               mov di,[CURRENT_POS_B5]
  3212 00006652 81C7A000                				 add di,160
  3213 00006656 8B95[1900]                           mov dx,[BG_BUFFER+di-2]
  3214 0000665A 268955FE                             mov word[es:di-2]	,dx
  3215 0000665E 8B95[1B00]              			 mov dx,[BG_BUFFER+di]
  3216 00006662 268915                  		     mov word[es:di]	,dx
  3217 00006665 8B95[1D00]              			 mov dx,[BG_BUFFER+di+2]
  3218 00006669 26895502                			 mov word[es:di+2]	,dx
  3219 0000666D 8B95[1F00]              			 mov dx,[BG_BUFFER+di+4]
  3220 00006671 26895504                		     mov word[es:di+4]	,dx
  3221 00006675 8B95[2100]              			 mov dx,[BG_BUFFER+di+6]
  3222 00006679 26895506                			 mov word[es:di+6]	,dx
  3223 0000667D 8B95[B700]              			 mov dx,[BG_BUFFER+di+156]
  3224 00006681 2689959C00              			 mov word[es:di+156]	,dx
  3225 00006686 8B95[B900]              			 mov dx,[BG_BUFFER+di+158]
  3226 0000668A 2689959E00              		     mov word[es:di+158]	,dx
  3227 0000668F 8B95[BB00]              			 mov dx,[BG_BUFFER+di+160]
  3228 00006693 268995A000              		     mov word[es:di+160]	,dx
  3229 00006698 8B95[BD00]              			 mov dx,[BG_BUFFER+di+162]
  3230 0000669C 268995A200              			 mov word[es:di+162]	,dx
  3231 000066A1 8B95[BF00]                           mov dx,[BG_BUFFER+di+164]
  3232 000066A5 268995A400              			mov word[es:di+164]	,dx
  3233 000066AA 8B95[C100]              			mov dx,[BG_BUFFER+di+166]
  3234 000066AE 268995A600              			mov word[es:di+166]	,dx
  3235 000066B3 8B95[C300]              			mov dx,[BG_BUFFER+di+168]
  3236 000066B7 268995A800              			mov word[es:di+168]	,dx
  3237 000066BC 8B95[5701]              			mov dx,[BG_BUFFER+di+316]
  3238 000066C0 2689953C01              			mov word[es:di+316]	,dx
  3239 000066C5 8B95[5901]              			mov dx,[BG_BUFFER+di+318]
  3240 000066C9 2689953E01              			mov word[es:di+318]	,dx
  3241 000066CE 8B95[5B01]              			mov dx,[BG_BUFFER+di+320]
  3242 000066D2 2689954001              			mov word[es:di+320]	,dx
  3243 000066D7 8B95[5D01]              			mov dx,[BG_BUFFER+di+322]
  3244 000066DB 2689954201              			mov word[es:di+322]	,dx
  3245 000066E0 8B95[5F01]              			mov dx,[BG_BUFFER+di+324]
  3246 000066E4 2689954401                          mov word[es:di+324]	,dx
  3247 000066E9 8B95[6101]              			mov dx,[BG_BUFFER+di+326]
  3248 000066ED 2689954601              			mov word[es:di+326]	,dx
  3249 000066F2 8B95[6301]              			mov dx,[BG_BUFFER+di+328]
  3250 000066F6 2689954801              			mov word[es:di+328]	,dx
  3251 000066FB 8B95[F901]              			mov dx,[BG_BUFFER+di+478]
  3252 000066FF 268995DE01              			mov word[es:di+478]	,dx
  3253 00006704 8B95[FB01]              			mov dx,[BG_BUFFER+di+480]
  3254 00006708 268995E001              			mov word[es:di+480]	,dx
  3255 0000670D 8B95[FD01]              			mov dx,[BG_BUFFER+di+482]
  3256 00006711 268995E201              			mov word[es:di+482]	,dx
  3257 00006716 8B95[FF01]              			mov dx,[BG_BUFFER+di+484]
  3258 0000671A 268995E401              			mov word[es:di+484]	,dx
  3259 0000671F 8B95[0102]              			mov dx,[BG_BUFFER+di+486]
  3260 00006723 268995E601              			mov word[es:di+486]	,dx
  3261 00006728 8B95[9B02]              			mov dx,[BG_BUFFER+di+640]
  3262 0000672C 2689958002              			mov word[es:di+640]	,dx
  3263 00006731 8B95[9D02]              			mov dx,[BG_BUFFER+di+642]
  3264 00006735 2689958202              			mov word[es:di+642]	,dx
  3265 0000673A 8B95[9F02]              			mov dx,[BG_BUFFER+di+644]
  3266 0000673E 2689958402              			mov word[es:di+644]	,dx
  3267 00006743 8B95[3D03]              			mov dx,[BG_BUFFER+di+802]
  3268 00006747 2689952203              			mov word[es:di+802]	,dx
  3269 0000674C 833E[1900]01                        cmp word[Ballon_pop],1
  3270 00006751 756A                    			jne CLEAR_END_B5
  3271 00006753 81EFA000                			sub di,160
  3272 00006757 8B95[1900]              			 mov dx,[BG_BUFFER+di-2]
  3273 0000675B 268955FE                             mov word[es:di-2]	,dx
  3274 0000675F 8B95[1B00]              			 mov dx,[BG_BUFFER+di]
  3275 00006763 268915                  		     mov word[es:di]	,dx
  3276 00006766 8B95[1D00]              			 mov dx,[BG_BUFFER+di+2]
  3277 0000676A 26895502                			 mov word[es:di+2]	,dx
  3278 0000676E 8B95[1F00]              			 mov dx,[BG_BUFFER+di+4]
  3279 00006772 26895504                		     mov word[es:di+4]	,dx
  3280 00006776 8B95[2100]              			 mov dx,[BG_BUFFER+di+6]
  3281 0000677A 26895506                			 mov word[es:di+6]	,dx
  3282 0000677E 8B95[B700]              			 mov dx,[BG_BUFFER+di+156]
  3283 00006782 2689959C00              			 mov word[es:di+156]	,dx
  3284 00006787 8B95[B900]              			 mov dx,[BG_BUFFER+di+158]
  3285 0000678B 2689959E00              		     mov word[es:di+158]	,dx
  3286 00006790 8B95[BB00]              			 mov dx,[BG_BUFFER+di+160]
  3287 00006794 268995A000              		     mov word[es:di+160]	,dx
  3288 00006799 8B95[BD00]              			 mov dx,[BG_BUFFER+di+162]
  3289 0000679D 268995A200              			 mov word[es:di+162]	,dx
  3290 000067A2 8B95[BF00]                           mov dx,[BG_BUFFER+di+164]
  3291 000067A6 268995A400              			mov word[es:di+164]	,dx
  3292 000067AB 8B95[C100]              			mov dx,[BG_BUFFER+di+166]
  3293 000067AF 268995A600              			mov word[es:di+166]	,dx
  3294 000067B4 8B95[C300]              			mov dx,[BG_BUFFER+di+168]
  3295 000067B8 268995A800              			mov word[es:di+168]	,dx
  3296                                  CLEAR_END_B5:
  3297 000067BD 61                      popa
  3298 000067BE C3                      ret		
  3299                                  
  3300                                  
  3301 000067BF 60                      B6_CLEAR:pusha
  3302 000067C0 BB00B8                  			   mov bx,0xb800
  3303 000067C3 31FF                    			   xor di,di
  3304                                  			   ;xor dx,dx
  3305 000067C5 31C0                    			   xor ax,AX
  3306                                  			   
  3307 000067C7 8EC3                    				MOV		ES, bx
  3308 000067C9 8B3E[8D5D]                               mov di,[CURRENT_POS_B6]
  3309 000067CD 81C7A000                				 add di,160
  3310 000067D1 8B95[1900]                           mov dx,[BG_BUFFER+di-2]
  3311 000067D5 268955FE                             mov word[es:di-2]	,dx
  3312 000067D9 8B95[1B00]              			 mov dx,[BG_BUFFER+di]
  3313 000067DD 268915                  		     mov word[es:di]	,dx
  3314 000067E0 8B95[1D00]              			 mov dx,[BG_BUFFER+di+2]
  3315 000067E4 26895502                			 mov word[es:di+2]	,dx
  3316 000067E8 8B95[1F00]              			 mov dx,[BG_BUFFER+di+4]
  3317 000067EC 26895504                		     mov word[es:di+4]	,dx
  3318 000067F0 8B95[2100]              			 mov dx,[BG_BUFFER+di+6]
  3319 000067F4 26895506                			 mov word[es:di+6]	,dx
  3320 000067F8 8B95[B700]              			 mov dx,[BG_BUFFER+di+156]
  3321 000067FC 2689959C00              			 mov word[es:di+156]	,dx
  3322 00006801 8B95[B900]              			 mov dx,[BG_BUFFER+di+158]
  3323 00006805 2689959E00              		     mov word[es:di+158]	,dx
  3324 0000680A 8B95[BB00]              			 mov dx,[BG_BUFFER+di+160]
  3325 0000680E 268995A000              		     mov word[es:di+160]	,dx
  3326 00006813 8B95[BD00]              			 mov dx,[BG_BUFFER+di+162]
  3327 00006817 268995A200              			 mov word[es:di+162]	,dx
  3328 0000681C 8B95[BF00]                           mov dx,[BG_BUFFER+di+164]
  3329 00006820 268995A400              			mov word[es:di+164]	,dx
  3330 00006825 8B95[C100]              			mov dx,[BG_BUFFER+di+166]
  3331 00006829 268995A600              			mov word[es:di+166]	,dx
  3332 0000682E 8B95[C300]              			mov dx,[BG_BUFFER+di+168]
  3333 00006832 268995A800              			mov word[es:di+168]	,dx
  3334 00006837 8B95[5701]              			mov dx,[BG_BUFFER+di+316]
  3335 0000683B 2689953C01              			mov word[es:di+316]	,dx
  3336 00006840 8B95[5901]              			mov dx,[BG_BUFFER+di+318]
  3337 00006844 2689953E01              			mov word[es:di+318]	,dx
  3338 00006849 8B95[5B01]              			mov dx,[BG_BUFFER+di+320]
  3339 0000684D 2689954001              			mov word[es:di+320]	,dx
  3340 00006852 8B95[5D01]              			mov dx,[BG_BUFFER+di+322]
  3341 00006856 2689954201              			mov word[es:di+322]	,dx
  3342 0000685B 8B95[5F01]              			mov dx,[BG_BUFFER+di+324]
  3343 0000685F 2689954401                          mov word[es:di+324]	,dx
  3344 00006864 8B95[6101]              			mov dx,[BG_BUFFER+di+326]
  3345 00006868 2689954601              			mov word[es:di+326]	,dx
  3346 0000686D 8B95[6301]              			mov dx,[BG_BUFFER+di+328]
  3347 00006871 2689954801              			mov word[es:di+328]	,dx
  3348 00006876 8B95[F901]              			mov dx,[BG_BUFFER+di+478]
  3349 0000687A 268995DE01              			mov word[es:di+478]	,dx
  3350 0000687F 8B95[FB01]              			mov dx,[BG_BUFFER+di+480]
  3351 00006883 268995E001              			mov word[es:di+480]	,dx
  3352 00006888 8B95[FD01]              			mov dx,[BG_BUFFER+di+482]
  3353 0000688C 268995E201              			mov word[es:di+482]	,dx
  3354 00006891 8B95[FF01]              			mov dx,[BG_BUFFER+di+484]
  3355 00006895 268995E401              			mov word[es:di+484]	,dx
  3356 0000689A 8B95[0102]              			mov dx,[BG_BUFFER+di+486]
  3357 0000689E 268995E601              			mov word[es:di+486]	,dx
  3358 000068A3 8B95[9B02]              			mov dx,[BG_BUFFER+di+640]
  3359 000068A7 2689958002              			mov word[es:di+640]	,dx
  3360 000068AC 8B95[9D02]              			mov dx,[BG_BUFFER+di+642]
  3361 000068B0 2689958202              			mov word[es:di+642]	,dx
  3362 000068B5 8B95[9F02]              			mov dx,[BG_BUFFER+di+644]
  3363 000068B9 2689958402              			mov word[es:di+644]	,dx
  3364 000068BE 8B95[3D03]              			mov dx,[BG_BUFFER+di+802]
  3365 000068C2 2689952203              			mov word[es:di+802]	,dx
  3366 000068C7 833E[1900]01                        cmp word[Ballon_pop],1
  3367 000068CC 756A                    			jne CLEAR_END_B6
  3368 000068CE 81EFA000                			sub di,160
  3369 000068D2 8B95[1900]              			 mov dx,[BG_BUFFER+di-2]
  3370 000068D6 268955FE                             mov word[es:di-2]	,dx
  3371 000068DA 8B95[1B00]              			 mov dx,[BG_BUFFER+di]
  3372 000068DE 268915                  		     mov word[es:di]	,dx
  3373 000068E1 8B95[1D00]              			 mov dx,[BG_BUFFER+di+2]
  3374 000068E5 26895502                			 mov word[es:di+2]	,dx
  3375 000068E9 8B95[1F00]              			 mov dx,[BG_BUFFER+di+4]
  3376 000068ED 26895504                		     mov word[es:di+4]	,dx
  3377 000068F1 8B95[2100]              			 mov dx,[BG_BUFFER+di+6]
  3378 000068F5 26895506                			 mov word[es:di+6]	,dx
  3379 000068F9 8B95[B700]              			 mov dx,[BG_BUFFER+di+156]
  3380 000068FD 2689959C00              			 mov word[es:di+156]	,dx
  3381 00006902 8B95[B900]              			 mov dx,[BG_BUFFER+di+158]
  3382 00006906 2689959E00              		     mov word[es:di+158]	,dx
  3383 0000690B 8B95[BB00]              			 mov dx,[BG_BUFFER+di+160]
  3384 0000690F 268995A000              		     mov word[es:di+160]	,dx
  3385 00006914 8B95[BD00]              			 mov dx,[BG_BUFFER+di+162]
  3386 00006918 268995A200              			 mov word[es:di+162]	,dx
  3387 0000691D 8B95[BF00]                           mov dx,[BG_BUFFER+di+164]
  3388 00006921 268995A400              			mov word[es:di+164]	,dx
  3389 00006926 8B95[C100]              			mov dx,[BG_BUFFER+di+166]
  3390 0000692A 268995A600              			mov word[es:di+166]	,dx
  3391 0000692F 8B95[C300]              			mov dx,[BG_BUFFER+di+168]
  3392 00006933 268995A800              			mov word[es:di+168]	,dx
  3393                                  CLEAR_END_B6:
  3394 00006938 61                      popa
  3395 00006939 C3                      ret	
  3396                                  ;;////////////////////////////////////////BALLON///////////////////////////////////////////
  3397                                  ;;////////////////////////////////////////////////////////////////////////////////////////					 
  3398                                  		DrawBaloon_GAME:
  3399 0000693A 55                      					push bp
  3400 0000693B 89E5                    					mov bp,sp
  3401 0000693D 06                      					push ES
  3402 0000693E 50                      					push AX
  3403 0000693F 57                      					push di
  3404 00006940 52                      					push dx
  3405                                  					
  3406                                  					
  3407 00006941 B800B8                  					MOV		AX, 0xB800
  3408 00006944 8EC0                    					MOV		ES, AX
  3409 00006946 B60C                    					mov dh,0x0C
  3410 00006948 BE0000                  				    mov si,0
  3411 0000694B 8B84[535D]              					mov ax,[POSITION_OF_BALLON_1+si]
  3412 0000694F A3[835D]                					mov word[CURRENT_POS_B1],AX
  3413 00006952 8B84[5B5D]              					mov ax,[POSITION_OF_BALLON_2+si]
  3414 00006956 A3[855D]                					mov word[CURRENT_POS_B2],AX
  3415 00006959 8B84[635D]              					mov ax,[POSITION_OF_BALLON_3+si]
  3416 0000695D A3[875D]                					mov word[CURRENT_POS_B3],AX
  3417 00006960 8B84[6B5D]              					mov ax,[POSITION_OF_BALLON_4+si]
  3418 00006964 A3[895D]                					mov word[CURRENT_POS_B4],AX
  3419 00006967 8B84[735D]              					mov ax,[POSITION_OF_BALLON_5+si]
  3420 0000696B A3[8B5D]                					mov word[CURRENT_POS_B5],AX
  3421 0000696E 8B84[7B5D]              					mov ax,[POSITION_OF_BALLON_6+si]
  3422 00006972 A3[8D5D]                					mov word[CURRENT_POS_B6],AX
  3423                                  					;wedwe
  3424                                  					
  3425                                  					
  3426                                  					
  3427 00006975 833E[30C8]01            			cmp word[CURRENT_mode],1
  3428 0000697A 7429                    			je  SURVIVAL_WALA_SCENE_HA_S
  3429                                  
  3430 0000697C 833E[30C8]02                      	cmp word[CURRENT_mode],2
  3431 00006981 741D                    			je TIME_WALA_KOI_SCENE_NHI_S
  3432                                  			
  3433                                           	;call clearscreen_GAME
  3434 00006983 833E[E0C2]01            		    cmp word[CURRENT_LEVEL],1
  3435 00006988 740C                    			je DRAW_LEVEL_1
  3436 0000698A 833E[E0C2]02            			cmp word[CURRENT_LEVEL],2
  3437 0000698F 740A                    			je DRAW_LEVEL_2
  3438 00006991 E82357                  			call LEVEL_3_THEME
  3439 00006994 EB17                    					jmp DRAWING_OF_LEVEL_COMPLETE
  3440                                  					
  3441 00006996 E8173A                  DRAW_LEVEL_1: call LEVEL_1_THEME
  3442 00006999 EB12                                   jmp DRAWING_OF_LEVEL_COMPLETE		
  3443                                  
  3444 0000699B E80A47                  DRAW_LEVEL_2: call LEVEL_2_THEME
  3445 0000699E EB0D                                   jmp DRAWING_OF_LEVEL_COMPLETE						
  3446                                  					
  3447 000069A0 E8E7F4                  TIME_WALA_KOI_SCENE_NHI_S: call clearscreen_ENDLESS
  3448 000069A3 EB08                                               jmp DRAWING_OF_LEVEL_COMPLETE
  3449                                  						   
  3450 000069A5 E803F5                  SURVIVAL_WALA_SCENE_HA_S: call CREATE_HURDLES
  3451 000069A8 EB03                                               jmp DRAWING_OF_LEVEL_COMPLETE
  3452                                  
  3453 000069AA BF0000                                              mov di,0
  3454 000069AD 268B05                  DRAWING_OF_LEVEL_COMPLETE: 	mov ax,[es:di]
  3455 000069B0 8985[1B00]                                          mov [BG_BUFFER+di],AX
  3456 000069B4 83C702                                              add di,2
  3457 000069B7 81FF401F                                            cmp di,8000
  3458 000069BB 75F0                                                jne DRAWING_OF_LEVEL_COMPLETE     							
  3459                                  
  3460                                  						   
  3461 000069BD 803E[435E]01            		LOOP1_GAME:  cmp byte[GAME_END_SO],1
  3462 000069C2 0F84E42B                		            je game_end
  3463 000069C6 833E[30C8]01            					cmp word[CURRENT_mode],1
  3464 000069CB 0F843D08                					je check_for_survival_condition
  3465 000069CF 833E[30C8]03            survival_check_complete:  	cmp word[CURRENT_mode],3
  3466 000069D4 7503                                                jne TIME_WALA_KOI_SCENE_NHI
  3467 000069D6 E8B6F5                                                call Draw_TIME_TEMPLATE
  3468                                  TIME_WALA_KOI_SCENE_NHI:           
  3469 000069D9 E87BF5                                           call Draw_SCORE_TEMPLATE
  3470                                                   
  3471 000069DC BB00B8                  			   mov bx,0xb800
  3472 000069DF 31FF                    			   xor di,di
  3473                                  			   ;xor dx,dx
  3474 000069E1 31C0                    			   xor ax,AX
  3475                                  			   
  3476 000069E3 8EC3                    				MOV		ES, bx
  3477 000069E5 E870F6                  				call B1_CLEAR
  3478 000069E8 8B3E[835D]                               mov di,[CURRENT_POS_B1]
  3479 000069EC 8B2E[4B5E]              				 mov  bp,[B1_COLOR_COUNTER]
  3480 000069F0 B2DB                    				 mov dl,0xDB
  3481 000069F2 8AB6[575E]              				 mov dh,[B1_COLOR+bp]
  3482 000069F6 268955FE                                mov word[es:di-2]	,dx
  3483 000069FA 268915                  		     mov word[es:di]	,dx
  3484 000069FD 26895502                			 mov word[es:di+2]	,dx
  3485 00006A01 26895504                		     mov word[es:di+4]	,dx
  3486 00006A05 26895506                			 mov word[es:di+6]	,dx
  3487 00006A09 2689959C00              			 mov word[es:di+156]	,dx
  3488 00006A0E 2689959E00              		     mov word[es:di+158]	,dx
  3489 00006A13 268995A000              		     mov word[es:di+160]	,dx
  3490 00006A18 8B2E[375E]              			  mov        bp,[B1_CHARACTER_COUNTER]
  3491 00006A1C 8A8E[9B5D]              				 mov        cl,[B1_CHARACTER+bp]
  3492 00006A20 B50F                    				 mov ch,0x0F
  3493 00006A22 880E[455E]              				 mov byte[B1_CURRENT_CHARACTER],cl
  3494 00006A26 268995A200              			 mov word[es:di+162]	,dx
  3495 00006A2B 8B2E[4B5E]              			  mov  bp,[B1_COLOR_COUNTER]
  3496 00006A2F B2DB                    				 mov dl,0xDB
  3497 00006A31 8AB6[575E]              				 mov dh,[B1_COLOR+bp]
  3498 00006A35 268995A400              			mov word[es:di+164]	,dx
  3499 00006A3A 268995A600              			mov word[es:di+166]	,dx
  3500 00006A3F 268995A800              			mov word[es:di+168]	,dx
  3501                                  			
  3502 00006A44 2689953C01              			mov word[es:di+316]	,dx
  3503 00006A49 2689953E01              			mov word[es:di+318]	,dx
  3504 00006A4E 2689954001              			mov word[es:di+320]	,dx
  3505 00006A53 26898D4201              			mov word[es:di+322]	,cx
  3506 00006A58 2689954401                          mov word[es:di+324]	,dx
  3507 00006A5D 2689954601              			mov word[es:di+326]	,dx
  3508 00006A62 2689954801              			mov word[es:di+328]	,dx
  3509                                  			
  3510 00006A67 268995DE01              			mov word[es:di+478]	,dx
  3511 00006A6C 268995E001              			mov word[es:di+480]	,dx
  3512 00006A71 268995E201              			mov word[es:di+482]	,dx
  3513 00006A76 268995E401              			mov word[es:di+484]	,dx
  3514 00006A7B 268995E601              			mov word[es:di+486]	,dx
  3515                                  			
  3516 00006A80 2689958002              			mov word[es:di+640]	,dx
  3517 00006A85 2689958202              			mov word[es:di+642]	,dx
  3518 00006A8A 2689958402              			mov word[es:di+644]	,dx
  3519                                  			
  3520 00006A8F 2689952203              			mov word[es:di+802]	,dx
  3521                                  			
  3522                                  							 	
  3523                                  			;;B2_
  3524 00006A94 E83CF7                  			call B2_CLEAR
  3525 00006A97 8B3E[855D]              			mov di,[CURRENT_POS_B2]
  3526 00006A9B 8B2E[4D5E]              				 mov  bp,[B2_COLOR_COUNTER]
  3527 00006A9F B2DB                    				 mov dl,0xDB
  3528 00006AA1 8AB6[5E5E]              				 mov dh,[B2_COLOR+bp]
  3529 00006AA5 268955FE                                mov word[es:di-2]	,dx
  3530 00006AA9 268915                  		     mov word[es:di]	,dx
  3531 00006AAC 26895502                			 mov word[es:di+2]	,dx
  3532 00006AB0 26895504                		     mov word[es:di+4]	,dx
  3533 00006AB4 26895506                			 mov word[es:di+6]	,dx
  3534 00006AB8 2689959C00              			 mov word[es:di+156]	,dx
  3535 00006ABD 2689959E00              		     mov word[es:di+158]	,dx
  3536 00006AC2 268995A000              		     mov word[es:di+160]	,dx
  3537 00006AC7 8B2E[395E]              			  mov        bp,[B2_CHARACTER_COUNTER]
  3538 00006ACB 8A8E[B55D]              				 mov        cl,[B2_CHARACTER+bp]
  3539 00006ACF B50F                    				 mov ch,0x0F
  3540 00006AD1 880E[465E]              				 mov byte[B2_CURRENT_CHARACTER],cl
  3541 00006AD5 268995A200              			 mov word[es:di+162]	,dx
  3542 00006ADA 8B2E[4D5E]              			  mov  bp,[B2_COLOR_COUNTER]
  3543 00006ADE B2DB                    				 mov dl,0xDB
  3544 00006AE0 8AB6[5E5E]              				 mov dh,[B2_COLOR+bp]
  3545 00006AE4 268995A400              			mov word[es:di+164]	,dx
  3546 00006AE9 268995A600              			mov word[es:di+166]	,dx
  3547 00006AEE 268995A800              			mov word[es:di+168]	,dx
  3548                                  			
  3549 00006AF3 2689953C01              			mov word[es:di+316]	,dx
  3550 00006AF8 2689953E01              			mov word[es:di+318]	,dx
  3551 00006AFD 2689954001              			mov word[es:di+320]	,dx
  3552 00006B02 26898D4201              			mov word[es:di+322]	,cx
  3553 00006B07 2689954401                          mov word[es:di+324]	,dx
  3554 00006B0C 2689954601              			mov word[es:di+326]	,dx
  3555 00006B11 2689954801              			mov word[es:di+328]	,dx
  3556                                  			
  3557 00006B16 268995DE01              			mov word[es:di+478]	,dx
  3558 00006B1B 268995E001              			mov word[es:di+480]	,dx
  3559 00006B20 268995E201              			mov word[es:di+482]	,dx
  3560 00006B25 268995E401              			mov word[es:di+484]	,dx
  3561 00006B2A 268995E601              			mov word[es:di+486]	,dx
  3562                                  			
  3563 00006B2F 2689958002              			mov word[es:di+640]	,dx
  3564 00006B34 2689958202              			mov word[es:di+642]	,dx
  3565 00006B39 2689958402              			mov word[es:di+644]	,dx
  3566                                  			
  3567 00006B3E 2689952203              			mov word[es:di+802]	,dx
  3568                                  			
  3569                                               ;B3_
  3570 00006B43 E808F8                  			 call B3_CLEAR
  3571 00006B46 8B3E[875D]              			mov di,[CURRENT_POS_B3]
  3572 00006B4A 8B2E[4F5E]              				 mov  bp,[B3_COLOR_COUNTER]
  3573 00006B4E B2DB                    				 mov dl,0xDB
  3574 00006B50 8AB6[655E]              				 mov dh,[B3_COLOR+bp]
  3575 00006B54 268955FE                                mov word[es:di-2]	,dx
  3576 00006B58 268915                  		     mov word[es:di]	,dx
  3577 00006B5B 26895502                			 mov word[es:di+2]	,dx
  3578 00006B5F 26895504                		     mov word[es:di+4]	,dx
  3579 00006B63 26895506                			 mov word[es:di+6]	,dx
  3580 00006B67 2689959C00              			 mov word[es:di+156]	,dx
  3581 00006B6C 2689959E00              		     mov word[es:di+158]	,dx
  3582 00006B71 268995A000              		     mov word[es:di+160]	,dx
  3583 00006B76 8B2E[3B5E]              			  mov        bp,[B3_CHARACTER_COUNTER]
  3584 00006B7A 8A8E[CF5D]              				 mov        cl,[B3_CHARACTER+bp]
  3585 00006B7E B50F                    				 mov ch,0x0F
  3586 00006B80 880E[475E]              				 mov byte[B3_CURRENT_CHARACTER],cl
  3587 00006B84 268995A200              			 mov word[es:di+162]	,dx
  3588 00006B89 8B2E[4F5E]              			  mov  bp,[B3_COLOR_COUNTER]
  3589 00006B8D B2DB                    				 mov dl,0xDB
  3590 00006B8F 8AB6[655E]              				 mov dh,[B3_COLOR+bp]
  3591 00006B93 268995A400              			mov word[es:di+164]	,dx
  3592 00006B98 268995A600              			mov word[es:di+166]	,dx
  3593 00006B9D 268995A800              			mov word[es:di+168]	,dx
  3594                                  			
  3595 00006BA2 2689953C01              			mov word[es:di+316]	,dx
  3596 00006BA7 2689953E01              			mov word[es:di+318]	,dx
  3597 00006BAC 2689954001              			mov word[es:di+320]	,dx
  3598 00006BB1 26898D4201              			mov word[es:di+322]	,cx
  3599 00006BB6 2689954401                          mov word[es:di+324]	,dx
  3600 00006BBB 2689954601              			mov word[es:di+326]	,dx
  3601 00006BC0 2689954801              			mov word[es:di+328]	,dx
  3602                                  			
  3603 00006BC5 268995DE01              			mov word[es:di+478]	,dx
  3604 00006BCA 268995E001              			mov word[es:di+480]	,dx
  3605 00006BCF 268995E201              			mov word[es:di+482]	,dx
  3606 00006BD4 268995E401              			mov word[es:di+484]	,dx
  3607 00006BD9 268995E601              			mov word[es:di+486]	,dx
  3608                                  			
  3609 00006BDE 2689958002              			mov word[es:di+640]	,dx
  3610 00006BE3 2689958202              			mov word[es:di+642]	,dx
  3611 00006BE8 2689958402              			mov word[es:di+644]	,dx
  3612                                  			
  3613 00006BED 2689952203              			mov word[es:di+802]	,dx	 
  3614                                  			
  3615                                              ;B4_			
  3616 00006BF2 E8D4F8                  		       call B4_CLEAR
  3617 00006BF5 8B3E[895D]              			mov di,[CURRENT_POS_B4]
  3618 00006BF9 8B2E[515E]              				 mov  bp,[B4_COLOR_COUNTER]
  3619 00006BFD B2DB                    				 mov dl,0xDB
  3620 00006BFF 8AB6[6C5E]              				 mov dh,[B4_COLOR+bp]
  3621 00006C03 268955FE                                mov word[es:di-2]	,dx
  3622 00006C07 268915                  		     mov word[es:di]	,dx
  3623 00006C0A 26895502                			 mov word[es:di+2]	,dx
  3624 00006C0E 26895504                		     mov word[es:di+4]	,dx
  3625 00006C12 26895506                			 mov word[es:di+6]	,dx
  3626 00006C16 2689959C00              			 mov word[es:di+156]	,dx
  3627 00006C1B 2689959E00              		     mov word[es:di+158]	,dx
  3628 00006C20 268995A000              		     mov word[es:di+160]	,dx
  3629 00006C25 8B2E[3D5E]              			  mov        bp,[B4_CHARACTER_COUNTER]
  3630 00006C29 8A8E[E95D]              				 mov        cl,[B4_CHARACTER+bp]
  3631 00006C2D B50F                    				 mov ch,0x0F
  3632 00006C2F 880E[485E]              				 mov byte[B4_CURRENT_CHARACTER],cl
  3633 00006C33 268995A200              			 mov word[es:di+162]	,dx
  3634 00006C38 8B2E[515E]              			  mov  bp,[B4_COLOR_COUNTER]
  3635 00006C3C B2DB                    				 mov dl,0xDB
  3636 00006C3E 8AB6[6C5E]              				 mov dh,[B4_COLOR+bp]
  3637 00006C42 268995A400              			mov word[es:di+164]	,dx
  3638 00006C47 268995A600              			mov word[es:di+166]	,dx
  3639 00006C4C 268995A800              			mov word[es:di+168]	,dx
  3640                                  			
  3641 00006C51 2689953C01              			mov word[es:di+316]	,dx
  3642 00006C56 2689953E01              			mov word[es:di+318]	,dx
  3643 00006C5B 2689954001              			mov word[es:di+320]	,dx
  3644 00006C60 26898D4201              			mov word[es:di+322]	,cx
  3645 00006C65 2689954401                          mov word[es:di+324]	,dx
  3646 00006C6A 2689954601              			mov word[es:di+326]	,dx
  3647 00006C6F 2689954801              			mov word[es:di+328]	,dx
  3648                                  			
  3649 00006C74 268995DE01              			mov word[es:di+478]	,dx
  3650 00006C79 268995E001              			mov word[es:di+480]	,dx
  3651 00006C7E 268995E201              			mov word[es:di+482]	,dx
  3652 00006C83 268995E401              			mov word[es:di+484]	,dx
  3653 00006C88 268995E601              			mov word[es:di+486]	,dx
  3654                                  			
  3655 00006C8D 2689958002              			mov word[es:di+640]	,dx
  3656 00006C92 2689958202              			mov word[es:di+642]	,dx
  3657 00006C97 2689958402              			mov word[es:di+644]	,dx
  3658                                  			
  3659 00006C9C 2689952203              			mov word[es:di+802]	,dx	 
  3660                                  
  3661                                  				 
  3662                                  				;///sleep 2 times call for level 1 and 1 time for level 2 and no sleep will call for level 3
  3663                                  			; cmp word[CURRENT_LEVEL],3
  3664                                              ; je DRAW_5T_and_6TH_BALLON_FOR_LEVEL_3
  3665                                              ; cmp word[CURRENT_LEVEL],2
  3666                                              ; je DRAW_5TH_BALLON_FOR_LEVEL_2
  3667                                  
  3668 00006CA1 833E[30C8]03                        cmp word[CURRENT_mode],3
  3669 00006CA6 0F857201                            jne SLOWES_THE_SPEED_1
  3670 00006CAA 833E[E0C2]01                        cmp word[CURRENT_LEVEL],1
  3671 00006CAF 0F846901                            je SLOWES_THE_SPEED_1
  3672                                             
  3673                                                   ;B5_
  3674 00006CB3 E88EF9                  				 call B5_CLEAR
  3675 00006CB6 8B3E[8B5D]                           	mov di,[CURRENT_POS_B5]
  3676 00006CBA 8B2E[535E]              				 mov  bp,[B5_COLOR_COUNTER]
  3677 00006CBE B2DB                    				 mov dl,0xDB
  3678 00006CC0 8AB6[735E]              				 mov dh,[B5_COLOR+bp]
  3679 00006CC4 268955FE                                mov word[es:di-2]	,dx
  3680 00006CC8 268915                  		     mov word[es:di]	,dx
  3681 00006CCB 26895502                			 mov word[es:di+2]	,dx
  3682 00006CCF 26895504                		     mov word[es:di+4]	,dx
  3683 00006CD3 26895506                			 mov word[es:di+6]	,dx
  3684 00006CD7 2689959C00              			 mov word[es:di+156]	,dx
  3685 00006CDC 2689959E00              		     mov word[es:di+158]	,dx
  3686 00006CE1 268995A000              		     mov word[es:di+160]	,dx
  3687 00006CE6 8B2E[3F5E]              			  mov        bp,[B5_CHARACTER_COUNTER]
  3688 00006CEA 8A8E[035E]              				 mov        cl,[B5_CHARACTER+bp]
  3689 00006CEE B50F                    				 mov ch,0x0F
  3690 00006CF0 880E[495E]              				 mov byte[B5_CURRENT_CHARACTER],cl
  3691 00006CF4 268995A200              			 mov word[es:di+162]	,dx
  3692 00006CF9 8B2E[535E]              			  mov  bp,[B5_COLOR_COUNTER]
  3693 00006CFD B2DB                    				 mov dl,0xDB
  3694 00006CFF 8AB6[735E]              				 mov dh,[B5_COLOR+bp]
  3695 00006D03 268995A400              			mov word[es:di+164]	,dx
  3696 00006D08 268995A600              			mov word[es:di+166]	,dx
  3697 00006D0D 268995A800              			mov word[es:di+168]	,dx
  3698                                  			
  3699 00006D12 2689953C01              			mov word[es:di+316]	,dx
  3700 00006D17 2689953E01              			mov word[es:di+318]	,dx
  3701 00006D1C 2689954001              			mov word[es:di+320]	,dx
  3702 00006D21 26898D4201              			mov word[es:di+322]	,cx
  3703 00006D26 2689954401                          mov word[es:di+324]	,dx
  3704 00006D2B 2689954601              			mov word[es:di+326]	,dx
  3705 00006D30 2689954801              			mov word[es:di+328]	,dx
  3706                                  			
  3707 00006D35 268995DE01              			mov word[es:di+478]	,dx
  3708 00006D3A 268995E001              			mov word[es:di+480]	,dx
  3709 00006D3F 268995E201              			mov word[es:di+482]	,dx
  3710 00006D44 268995E401              			mov word[es:di+484]	,dx
  3711 00006D49 268995E601              			mov word[es:di+486]	,dx
  3712                                  			
  3713 00006D4E 2689958002              			mov word[es:di+640]	,dx
  3714 00006D53 2689958202              			mov word[es:di+642]	,dx
  3715 00006D58 2689958402              			mov word[es:di+644]	,dx
  3716                                  			
  3717 00006D5D 2689952203              			mov word[es:di+802]	,dx	
  3718                                  				 
  3719                                  
  3720 00006D62 833E[E0C2]02                              cmp word[CURRENT_LEVEL],2
  3721 00006D67 0F84B400                                  je SLOWES_THE_SPEED_2
  3722                                             
  3723                                               ;B6_ 
  3724 00006D6B E851FA                                  call B6_CLEAR			 
  3725 00006D6E 8B3E[8D5D]              				mov di,[CURRENT_POS_B6]
  3726 00006D72 8B2E[555E]              				 mov  bp,[B6_COLOR_COUNTER]
  3727 00006D76 B2DB                    				 mov dl,0xDB
  3728 00006D78 8AB6[7A5E]              				 mov dh,[B6_COLOR+bp]
  3729 00006D7C 268955FE                                mov word[es:di-2]	,dx
  3730 00006D80 268915                  		     mov word[es:di]	,dx
  3731 00006D83 26895502                			 mov word[es:di+2]	,dx
  3732 00006D87 26895504                		     mov word[es:di+4]	,dx
  3733 00006D8B 26895506                			 mov word[es:di+6]	,dx
  3734 00006D8F 2689959C00              			 mov word[es:di+156]	,dx
  3735 00006D94 2689959E00              		     mov word[es:di+158]	,dx
  3736 00006D99 268995A000              		     mov word[es:di+160]	,dx
  3737 00006D9E 8B2E[415E]              			  mov        bp,[B6_CHARACTER_COUNTER]
  3738 00006DA2 8A8E[1D5E]              				 mov        cl,[B6_CHARACTER+bp]
  3739 00006DA6 B50F                    				 mov ch,0x0F
  3740 00006DA8 880E[4A5E]              				 mov byte[B6_CURRENT_CHARACTER],cl
  3741 00006DAC 268995A200              			 mov word[es:di+162]	,dx
  3742 00006DB1 8B2E[555E]              			  mov  bp,[B6_COLOR_COUNTER]
  3743 00006DB5 B2DB                    				 mov dl,0xDB
  3744 00006DB7 8AB6[7A5E]              				 mov dh,[B6_COLOR+bp]
  3745 00006DBB 268995A400              			mov word[es:di+164]	,dx
  3746 00006DC0 268995A600              			mov word[es:di+166]	,dx
  3747 00006DC5 268995A800              			mov word[es:di+168]	,dx
  3748                                  			
  3749 00006DCA 2689953C01              			mov word[es:di+316]	,dx
  3750 00006DCF 2689953E01              			mov word[es:di+318]	,dx
  3751 00006DD4 2689954001              			mov word[es:di+320]	,dx
  3752 00006DD9 26898D4201              			mov word[es:di+322]	,cx
  3753 00006DDE 2689954401                          mov word[es:di+324]	,dx
  3754 00006DE3 2689954601              			mov word[es:di+326]	,dx
  3755 00006DE8 2689954801              			mov word[es:di+328]	,dx
  3756                                  			
  3757 00006DED 268995DE01              			mov word[es:di+478]	,dx
  3758 00006DF2 268995E001              			mov word[es:di+480]	,dx
  3759 00006DF7 268995E201              			mov word[es:di+482]	,dx
  3760 00006DFC 268995E401              			mov word[es:di+484]	,dx
  3761 00006E01 268995E601              			mov word[es:di+486]	,dx
  3762                                  			
  3763 00006E06 2689958002              			mov word[es:di+640]	,dx
  3764 00006E0B 2689958202              			mov word[es:di+642]	,dx
  3765 00006E10 2689958402              			mov word[es:di+644]	,dx
  3766                                  			
  3767 00006E15 2689952203              			mov word[es:di+802]	,dx		  
  3768                                  				  
  3769                                                    
  3770 00006E1A EB06                    				  jmp  EXTRA_BALLONS_DRAWING_COMPLETE
  3771                                  				  
  3772 00006E1C E8EBD2                  SLOWES_THE_SPEED_1:			 call sleep
  3773 00006E1F E8E8D2                  SLOWES_THE_SPEED_2:			 call sleep
  3774                                  			;call GRASS
  3775 00006E22 31C0                    EXTRA_BALLONS_DRAWING_COMPLETE:				 xor ax,ax
  3776 00006E24 E8E3D2                  				 call sleep
  3777 00006E27 E8D3D2                  				 call input
  3778 00006E2A 3C20                    				 cmp al,32
  3779 00006E2C 0F84B925                				 je stop
  3780 00006E30 A2[445E]                				 mov byte[CURRENT_ENTERED_CHARACTER],al
  3781 00006E33 8B1E[375E]              				 mov bx,[B1_CHARACTER_COUNTER]
  3782 00006E37 3887[9B5D]                    			 cmp byte[B1_CHARACTER+bx],al
  3783 00006E3B 0F84FC21                				 je update_B1_
  3784 00006E3F 8B1E[395E]              				  mov bx,[B2_CHARACTER_COUNTER]
  3785 00006E43 3887[B55D]                    			  cmp byte[B2_CHARACTER+bx],al
  3786 00006E47 0F84F222                				  je update_B2_
  3787 00006E4B 8B1E[3B5E]              				  mov bx,[B3_CHARACTER_COUNTER]
  3788 00006E4F 3887[CF5D]                    			  cmp byte[B3_CHARACTER+bx],al
  3789 00006E53 0F84E823                				  je update_B3_
  3790 00006E57 8B1E[3D5E]              				  mov bx,[B4_CHARACTER_COUNTER]
  3791 00006E5B 3887[E95D]                    			  cmp byte[B4_CHARACTER+bx],al
  3792 00006E5F 0F84DE24                				  je update_B4_
  3793                                  				  
  3794 00006E63 833E[E0C2]01            				  cmp word[CURRENT_LEVEL],1
  3795 00006E68 741F                    				je COUNTINE_YOU_WORK
  3796                                  				
  3797 00006E6A 8B1E[3F5E]              				  mov bx,[B5_CHARACTER_COUNTER]
  3798 00006E6E 3887[035E]              				  cmp byte[B5_CHARACTER+bx],al
  3799 00006E72 0F84F625                				  je update_B5_
  3800                                  				  
  3801 00006E76 833E[E0C2]02            				  cmp word[CURRENT_LEVEL],2
  3802 00006E7B 740C                    				je COUNTINE_YOU_WORK
  3803                                  				
  3804 00006E7D 8B1E[415E]              				  mov bx,[B6_CHARACTER_COUNTER]
  3805 00006E81 3887[1D5E]              				  cmp byte[B6_CHARACTER+bx],al
  3806 00006E85 0F84AC26                				  je update_B6_
  3807                                   
  3808 00006E89 E87ED2                  COUNTINE_YOU_WORK:				call sleep
  3809 00006E8C 812E[835D]A000          				sub word[CURRENT_POS_B1],160
  3810 00006E92 812E[855D]A000          				sub word[CURRENT_POS_B2],160
  3811 00006E98 812E[875D]A000                          sub word[CURRENT_POS_B3],160
  3812 00006E9E 812E[895D]A000                          sub word[CURRENT_POS_B4],160 
  3813                                  				
  3814 00006EA4 833E[30C8]01                            cmp word[CURRENT_mode],1
  3815 00006EA9 0F848803                				je UPDATE_BALLONS_FOR_SURVIVAL_MODE
  3816                                  				
  3817 00006EAD 833E[E0C2]01                            cmp word[CURRENT_LEVEL],1
  3818 00006EB2 7413                    				je COUNTINUE_BRO
  3819                                                    				
  3820 00006EB4 812E[8B5D]A000          				sub word[CURRENT_POS_B5],160
  3821                                  				
  3822 00006EBA 833E[E0C2]02            				cmp word[CURRENT_LEVEL],2
  3823 00006EBF 7406                    				je COUNTINUE_BRO
  3824                                  				
  3825 00006EC1 812E[8D5D]A000          				sub word[CURRENT_POS_B6],160
  3826                                  				
  3827                                  				
  3828                                  COUNTINUE_BRO:				
  3829 00006EC7 833E[835D]12                            cmp word[CURRENT_POS_B1],18;160;-730
  3830 00006ECC 0F8C1121                				jl  update_di_B1
  3831 00006ED0 833E[30C8]03            				cmp word[CURRENT_mode],3
  3832 00006ED5 0F846F01                				je TIME_MODE_KE_LIA_NO_BALLON_POP_ON_TIME_SIDE_1
  3833                                  TIME_END_CHECKED_1:				
  3834 00006ED9 833E[835D]00            				cmp word[CURRENT_POS_B1],0;160;-730
  3835 00006EDE 0F8CFF20                				jl  update_di_B1
  3836                                  				
  3837 00006EE2 833E[855D]12            				cmp word[CURRENT_POS_B2],18;160;-730
  3838 00006EE7 0F8CF821                				jl  update_di_B2
  3839 00006EEB 833E[30C8]03            				cmp word[CURRENT_mode],3
  3840 00006EF0 0F84C501                				je TIME_MODE_KE_LIA_NO_BALLON_POP_ON_TIME_SIDE_2
  3841                                  TIME_END_CHECKED_2:					
  3842 00006EF4 833E[855D]00            				cmp word[CURRENT_POS_B2],0;160;-730
  3843 00006EF9 0F8CE621                				jl  update_di_B2
  3844                                  				
  3845 00006EFD 833E[875D]12            				cmp word[CURRENT_POS_B3],18;160;-730
  3846 00006F02 0F8CDF22                				jl  update_di_B3
  3847 00006F06 833E[30C8]03            				cmp word[CURRENT_mode],3
  3848 00006F0B 0F841B02                				je TIME_MODE_KE_LIA_NO_BALLON_POP_ON_TIME_SIDE_3
  3849                                  TIME_END_CHECKED_3:					
  3850 00006F0F 833E[875D]00            				cmp word[CURRENT_POS_B3],0;160;-730
  3851 00006F14 0F8CCD22                				jl  update_di_B3
  3852                                  				
  3853 00006F18 833E[895D]12            				cmp word[CURRENT_POS_B4],18;160;-730
  3854 00006F1D 0F8CC623                				jl  update_di_B4
  3855 00006F21 833E[30C8]03            				cmp word[CURRENT_mode],3
  3856 00006F26 0F847102                				je TIME_MODE_KE_LIA_NO_BALLON_POP_ON_TIME_SIDE_4
  3857                                  TIME_END_CHECKED_4:					
  3858 00006F2A 833E[895D]00            				cmp word[CURRENT_POS_B4],0;160;-730
  3859 00006F2F 0F8CB423                				jl  update_di_B4
  3860                                  				
  3861 00006F33 833E[E0C2]01            				cmp word[CURRENT_LEVEL],1
  3862 00006F38 0F840901                				je REPEAT_THE_GAME_LOOP
  3863                                  TIME_END_CHECKED_5:
  3864 00006F3C 833E[8B5D]12                            cmp word[CURRENT_POS_B5],18;-730
  3865 00006F41 0F8CE024                				jl  update_di_B5				
  3866 00006F45 833E[8B5D]00            				cmp word[CURRENT_POS_B5],0;-730
  3867 00006F4A 0F8CD724                				jl  update_di_B5
  3868 00006F4E 813E[8B5D]8A00          				cmp word[CURRENT_POS_B5],138;160;-730
  3869 00006F54 0F84CD24                				                               je  update_di_B5
  3870 00006F58 813E[8B5D]8C00                                                         cmp word[CURRENT_POS_B5],140;160;-730
  3871 00006F5E 0F84C324                				                               je  update_di_B5
  3872 00006F62 813E[8B5D]8E00          											   cmp word[CURRENT_POS_B5],142;160;-730
  3873 00006F68 0F84B924                				                               je  update_di_B5
  3874 00006F6C 813E[8B5D]9000          											   cmp word[CURRENT_POS_B5],144;160;-730
  3875 00006F72 0F84AF24                				                               je  update_di_B5
  3876 00006F76 813E[8B5D]9200          											   cmp word[CURRENT_POS_B5],146;160;-730
  3877 00006F7C 0F84A524                				                               je  update_di_B5
  3878 00006F80 813E[8B5D]9400          											   cmp word[CURRENT_POS_B5],148;160;-730
  3879 00006F86 0F849B24                				                               je  update_di_B5
  3880 00006F8A 813E[8B5D]9600          											   cmp word[CURRENT_POS_B5],150;160;-730
  3881 00006F90 0F849124                				                               je  update_di_B5
  3882 00006F94 813E[8B5D]9800          											   cmp word[CURRENT_POS_B5],152;160;-730
  3883 00006F9A 0F848724                				                               je  update_di_B5
  3884 00006F9E 813E[8B5D]9A00          											   cmp word[CURRENT_POS_B5],154;160;-730
  3885 00006FA4 0F847D24                				                               je  update_di_B5
  3886 00006FA8 813E[8B5D]9C00          											   cmp word[CURRENT_POS_B5],156;160;-730
  3887 00006FAE 0F847324                				                               je  update_di_B5
  3888 00006FB2 813E[8B5D]9E00          											   cmp word[CURRENT_POS_B5],158;160;-730
  3889 00006FB8 0F846924                				                               je  update_di_B5
  3890 00006FBC 833E[E0C2]02            				cmp word[CURRENT_LEVEL],2
  3891 00006FC1 0F848000                				je REPEAT_THE_GAME_LOOP
  3892 00006FC5 833E[8D5D]12            				cmp word[CURRENT_POS_B6],18;160;-730
  3893 00006FCA 0F8C2F25                				jl  update_di_B6
  3894 00006FCE 833E[8D5D]00            				cmp word[CURRENT_POS_B6],0;160;-730
  3895 00006FD3 0F8C2625                				jl  update_di_B6
  3896 00006FD7 813E[8D5D]8A00          				cmp word[CURRENT_POS_B6],138;160;-730
  3897 00006FDD 0F841C25                				                               je  update_di_B6
  3898 00006FE1 813E[8D5D]8C00                                                         cmp word[CURRENT_POS_B6],140;160;-730
  3899 00006FE7 0F841225                				                               je  update_di_B6
  3900 00006FEB 813E[8D5D]8E00          											   cmp word[CURRENT_POS_B6],142;160;-730
  3901 00006FF1 0F840825                				                               je  update_di_B6
  3902 00006FF5 813E[8D5D]9000          											   cmp word[CURRENT_POS_B6],144;160;-730
  3903 00006FFB 0F84FE24                				                               je  update_di_B6
  3904 00006FFF 813E[8D5D]9200          											   cmp word[CURRENT_POS_B6],146;160;-730
  3905 00007005 0F84F424                				                               je  update_di_B6
  3906 00007009 813E[8D5D]9400          											   cmp word[CURRENT_POS_B6],148;160;-730
  3907 0000700F 0F84EA24                				                               je  update_di_B6
  3908 00007013 813E[8D5D]9600          											   cmp word[CURRENT_POS_B6],150;160;-730
  3909 00007019 0F84E024                				                               je  update_di_B6
  3910 0000701D 813E[8D5D]9800          											   cmp word[CURRENT_POS_B6],152;160;-730
  3911 00007023 0F84D624                				                               je  update_di_B6
  3912 00007027 813E[8D5D]9A00          											   cmp word[CURRENT_POS_B6],154;160;-730
  3913 0000702D 0F84CC24                				                               je  update_di_B6
  3914 00007031 813E[8D5D]9C00          											   cmp word[CURRENT_POS_B6],156;160;-730
  3915 00007037 0F84C224                				                               je  update_di_B6
  3916 0000703B 813E[8D5D]9E00          											   cmp word[CURRENT_POS_B6],158;160;-730
  3917 00007041 0F84B824                				                               je  update_di_B6
  3918                                  				
  3919 00007045 E975F9                  REPEAT_THE_GAME_LOOP:				jmp LOOP1_GAME
  3920                                  				
  3921 00007048 813E[835D]8A00          TIME_MODE_KE_LIA_NO_BALLON_POP_ON_TIME_SIDE_1: cmp word[CURRENT_POS_B1],138;160;-730
  3922 0000704E 0F848F1F                				                               je  update_di_B1
  3923 00007052 813E[835D]8C00                                                         cmp word[CURRENT_POS_B1],140;160;-730
  3924 00007058 0F84851F                				                               je  update_di_B1
  3925 0000705C 813E[835D]8E00          											   cmp word[CURRENT_POS_B1],142;160;-730
  3926 00007062 0F847B1F                				                               je  update_di_B1
  3927 00007066 813E[835D]9000          											   cmp word[CURRENT_POS_B1],144;160;-730
  3928 0000706C 0F84711F                				                               je  update_di_B1
  3929 00007070 813E[835D]9200          											   cmp word[CURRENT_POS_B1],146;160;-730
  3930 00007076 0F84671F                				                               je  update_di_B1
  3931 0000707A 813E[835D]9400          											   cmp word[CURRENT_POS_B1],148;160;-730
  3932 00007080 0F845D1F                				                               je  update_di_B1
  3933 00007084 813E[835D]9600          											   cmp word[CURRENT_POS_B1],150;160;-730
  3934 0000708A 0F84531F                				                               je  update_di_B1
  3935 0000708E 813E[835D]9800          											   cmp word[CURRENT_POS_B1],152;160;-730
  3936 00007094 0F84491F                				                               je  update_di_B1
  3937 00007098 813E[835D]9A00          											   cmp word[CURRENT_POS_B1],154;160;-730
  3938 0000709E 0F843F1F                				                               je  update_di_B1
  3939 000070A2 813E[835D]9C00          											   cmp word[CURRENT_POS_B1],156;160;-730
  3940 000070A8 0F84351F                				                               je  update_di_B1
  3941 000070AC 813E[835D]9E00          											   cmp word[CURRENT_POS_B1],158;160;-730
  3942 000070B2 0F842B1F                				                               je  update_di_B1
  3943 000070B6 E920FE                  											   jmp TIME_END_CHECKED_1
  3944                                  
  3945 000070B9 813E[855D]8A00          TIME_MODE_KE_LIA_NO_BALLON_POP_ON_TIME_SIDE_2: cmp word[CURRENT_POS_B2],138;160;-730
  3946 000070BF 0F842020                				                               je  update_di_B2
  3947 000070C3 813E[855D]8C00                                                         cmp word[CURRENT_POS_B2],140;160;-730
  3948 000070C9 0F841620                				                               je  update_di_B2
  3949 000070CD 813E[855D]8E00          											   cmp word[CURRENT_POS_B2],142;160;-730
  3950 000070D3 0F840C20                				                               je  update_di_B2
  3951 000070D7 813E[855D]9000          											   cmp word[CURRENT_POS_B2],144;160;-730
  3952 000070DD 0F840220                				                               je  update_di_B2
  3953 000070E1 813E[855D]9200          											   cmp word[CURRENT_POS_B2],146;160;-730
  3954 000070E7 0F84F81F                				                               je  update_di_B2
  3955 000070EB 813E[855D]9400          											   cmp word[CURRENT_POS_B2],148;160;-730
  3956 000070F1 0F84EE1F                				                               je  update_di_B2
  3957 000070F5 813E[855D]9600          											   cmp word[CURRENT_POS_B2],150;160;-730
  3958 000070FB 0F84E41F                				                               je  update_di_B2
  3959 000070FF 813E[855D]9800          											   cmp word[CURRENT_POS_B2],152;160;-730
  3960 00007105 0F84DA1F                				                               je  update_di_B2
  3961 00007109 813E[855D]9A00          											   cmp word[CURRENT_POS_B2],154;160;-730
  3962 0000710F 0F84D01F                				                               je  update_di_B2
  3963 00007113 813E[855D]9C00          											   cmp word[CURRENT_POS_B2],156;160;-730
  3964 00007119 0F84C61F                				                               je  update_di_B2
  3965 0000711D 813E[855D]9E00          											   cmp word[CURRENT_POS_B2],158;160;-730
  3966 00007123 0F84BC1F                				                               je  update_di_B2
  3967 00007127 E9CAFD                  											   jmp TIME_END_CHECKED_2
  3968                                  
  3969 0000712A 813E[875D]8A00          TIME_MODE_KE_LIA_NO_BALLON_POP_ON_TIME_SIDE_3:cmp word[CURRENT_POS_B3],138;160;-730
  3970 00007130 0F84B120                				                               je  update_di_B3
  3971 00007134 813E[875D]8C00                                                         cmp word[CURRENT_POS_B3],140;160;-730
  3972 0000713A 0F84A720                				                               je  update_di_B3
  3973 0000713E 813E[875D]8E00          											   cmp word[CURRENT_POS_B3],142;160;-730
  3974 00007144 0F849D20                				                               je  update_di_B3
  3975 00007148 813E[875D]9000          											   cmp word[CURRENT_POS_B3],144;160;-730
  3976 0000714E 0F849320                				                               je  update_di_B3
  3977 00007152 813E[875D]9200          											   cmp word[CURRENT_POS_B3],146;160;-730
  3978 00007158 0F848920                				                               je  update_di_B3
  3979 0000715C 813E[875D]9400          											   cmp word[CURRENT_POS_B3],148;160;-730
  3980 00007162 0F847F20                				                               je  update_di_B3
  3981 00007166 813E[875D]9600          											   cmp word[CURRENT_POS_B3],150;160;-730
  3982 0000716C 0F847520                				                               je  update_di_B3
  3983 00007170 813E[875D]9800          											   cmp word[CURRENT_POS_B3],152;160;-730
  3984 00007176 0F846B20                				                               je  update_di_B3
  3985 0000717A 813E[875D]9A00          											   cmp word[CURRENT_POS_B3],154;160;-730
  3986 00007180 0F846120                				                               je  update_di_B3
  3987 00007184 813E[875D]9C00          											   cmp word[CURRENT_POS_B3],156;160;-730
  3988 0000718A 0F845720                				                               je  update_di_B3
  3989 0000718E 813E[875D]9E00          											   cmp word[CURRENT_POS_B3],158;160;-730
  3990 00007194 0F844D20                				                               je  update_di_B3
  3991 00007198 E974FD                  											   jmp TIME_END_CHECKED_3
  3992                                  
  3993 0000719B 813E[895D]8A00          TIME_MODE_KE_LIA_NO_BALLON_POP_ON_TIME_SIDE_4:cmp word[CURRENT_POS_B4],138;160;-730
  3994 000071A1 0F844221                				                               je  update_di_B4
  3995 000071A5 813E[895D]8C00                                                          cmp word[CURRENT_POS_B4],140;160;-730
  3996 000071AB 0F843821                				                               je  update_di_B4
  3997 000071AF 813E[895D]8E00          											   cmp word[CURRENT_POS_B4],142;160;-730
  3998 000071B5 0F842E21                				                               je  update_di_B4
  3999 000071B9 813E[895D]9000          											   cmp word[CURRENT_POS_B4],144;160;-730
  4000 000071BF 0F842421                				                               je  update_di_B4
  4001 000071C3 813E[895D]9200          											   cmp word[CURRENT_POS_B4],146;160;-730
  4002 000071C9 0F841A21                				                               je  update_di_B4
  4003 000071CD 813E[895D]9400          											   cmp word[CURRENT_POS_B4],148;160;-730
  4004 000071D3 0F841021                				                               je  update_di_B4
  4005 000071D7 813E[895D]9600          											   cmp word[CURRENT_POS_B4],150;160;-730
  4006 000071DD 0F840621                				                               je  update_di_B4
  4007 000071E1 813E[895D]9800          											   cmp word[CURRENT_POS_B4],152;160;-730
  4008 000071E7 0F84FC20                				                               je  update_di_B4
  4009 000071EB 813E[895D]9A00          											   cmp word[CURRENT_POS_B4],154;160;-730
  4010 000071F1 0F84F220                				                               je  update_di_B4
  4011 000071F5 813E[895D]9C00          											   cmp word[CURRENT_POS_B4],156;160;-730
  4012 000071FB 0F84E820                				                               je  update_di_B4
  4013 000071FF 813E[895D]9E00          											   cmp word[CURRENT_POS_B4],158;160;-730
  4014 00007205 0F84DE20                				                               je  update_di_B4
  4015 00007209 E91EFD                                                                 jmp TIME_END_CHECKED_4
  4016                                  
  4017                                  
  4018                                  ; TIME_WALA_KOI_SCENE_NHI_S: call clearscreen_ENDLESS
  4019                                                             ; jmp TIME_WALA_KOI_SCENE_NHI
  4020                                  						   
  4021                                  ; SURVIVAL_WALA_SCENE_HA_S: call CREATE_HURDLES
  4022                                                             ; jmp TIME_WALA_KOI_SCENE_NHI						   
  4023                                  
  4024 0000720C 833E[815E]08            check_for_survival_condition: cmp word[SURVIVAL_COUNTER],8
  4025 00007211 7403                                                  je SURVIVAL_DEAD_PREV
  4026 00007213 E9B9F7                                                jmp survival_check_complete
  4027                                  
  4028 00007216 832E[835E]01            SURVIVAL_DEAD_PREV: sub word[LIFE_LENGTH],1
  4029 0000721B E8455A                                      call play_life_lost_sound
  4030 0000721E C706[815E]0000                              mov word[SURVIVAL_COUNTER],0
  4031 00007224 833E[835E]00                                cmp word[LIFE_LENGTH],0
  4032 00007229 0F8590F7                                    jne LOOP1_GAME					
  4033 0000722D C606[435E]01            SURVIVAL_DEAD: mov byte[GAME_END_SO],1
  4034 00007232 E988F7                                 jmp LOOP1_GAME
  4035                                  
  4036                                  
  4037                                  ;;////////////////////////////////////////////////////////////////////////////////
  4038 00007235 833E[835D]12            UPDATE_BALLONS_FOR_SURVIVAL_MODE: cmp word[CURRENT_POS_B1],18;160;-730
  4039 0000723A 0F8CA31D                				                 jl  update_di_B1
  4040 0000723E 833E[835D]00                                             cmp word[CURRENT_POS_B1],0;160;-730
  4041 00007243 0F8C9A1D                				                 jl  update_di_B1
  4042 00007247 8B36[835D]              								mov si, [CURRENT_POS_B1]
  4043 0000724B 83C606                  								add si,6
  4044 0000724E 81FE2401                								 cmp si,292;160;-730
  4045 00007252 0F8E8B1D                				                               jle  update_di_B1
  4046                                  								 
  4047 00007256 813E[835D]8400          								               cmp word[CURRENT_POS_B1],132;160;-730
  4048 0000725C 0F84811D                				                               je  update_di_B1
  4049 00007260 813E[835D]8C00                                                          cmp word[CURRENT_POS_B1],140;160;-730
  4050 00007266 0F84771D                				                               je  update_di_B1
  4051 0000726A 813E[835D]8E00          											   cmp word[CURRENT_POS_B1],142;160;-730
  4052 00007270 0F846D1D                				                               je  update_di_B1
  4053 00007274 813E[835D]9000          											   cmp word[CURRENT_POS_B1],144;160;-730
  4054 0000727A 0F84631D                				                               je  update_di_B1
  4055 0000727E 813E[835D]9200          											   cmp word[CURRENT_POS_B1],146;160;-730
  4056 00007284 0F84591D                				                               je  update_di_B1
  4057 00007288 813E[835D]9400          											   cmp word[CURRENT_POS_B1],148;160;-730
  4058 0000728E 0F844F1D                				                               je  update_di_B1
  4059 00007292 813E[835D]9600          											   cmp word[CURRENT_POS_B1],150;160;-730
  4060 00007298 0F84451D                				                               je  update_di_B1
  4061 0000729C 813E[835D]9800          											   cmp word[CURRENT_POS_B1],152;160;-730
  4062 000072A2 0F843B1D                				                               je  update_di_B1
  4063 000072A6 813E[835D]9A00          											   cmp word[CURRENT_POS_B1],154;160;-730
  4064 000072AC 0F84311D                				                               je  update_di_B1
  4065 000072B0 813E[835D]9C00          											   cmp word[CURRENT_POS_B1],156;160;-730
  4066 000072B6 0F84271D                				                               je  update_di_B1
  4067 000072BA 813E[835D]9E00          											   cmp word[CURRENT_POS_B1],158;160;-730
  4068 000072C0 0F841D1D                				                               je  update_di_B1
  4069                                  								
  4070 000072C4 8B36[835D]              								mov si,[CURRENT_POS_B1]
  4071 000072C8 83EE04                  								 sub si,4
  4072 000072CB 81FE4403                								 cmp si,836
  4073 000072CF 0F840E1D                								 je update_di_B1
  4074                                  								
  4075 000072D3 8B36[835D]              								mov si,[CURRENT_POS_B1]
  4076 000072D7 83EE02                  								 sub si,2
  4077 000072DA 81FE4403                								 cmp si,836
  4078 000072DE 0F84FF1C                								 je update_di_B1
  4079                                  								
  4080 000072E2 813E[835D]4403          								 cmp word[CURRENT_POS_B1],836;160;-730
  4081 000072E8 0F84F51C                				                 je  update_di_B1
  4082 000072EC 8B36[835D]              								 mov si,[CURRENT_POS_B1]
  4083 000072F0 83C602                  								 add si,2
  4084 000072F3 81FE4403                								 cmp si,836
  4085 000072F7 0F84E61C                								 je update_di_B1
  4086 000072FB 8B36[835D]              								 mov si,[CURRENT_POS_B1]
  4087 000072FF 83C604                  								 add si,4
  4088 00007302 81FE4403                								 cmp si,836
  4089 00007306 0F84D71C                								 je update_di_B1
  4090 0000730A 8B36[835D]              								 mov si,[CURRENT_POS_B1]
  4091 0000730E 81C69E00                								 add si,158
  4092 00007312 81FE4403                								 cmp si,836
  4093 00007316 0F84C71C                								 je update_di_B1
  4094 0000731A 8B36[835D]              								 mov si,[CURRENT_POS_B1]
  4095 0000731E 81C6A600                								 add si,166
  4096 00007322 81FE4403                								 cmp si,836
  4097 00007326 0F84B71C                								 je update_di_B1
  4098                                  								 
  4099 0000732A 813E[835D]4603          								  cmp word[CURRENT_POS_B1],838;160;-730
  4100 00007330 0F84AD1C                				                 je  update_di_B1
  4101 00007334 8B36[835D]              								  mov si,[CURRENT_POS_B1]
  4102 00007338 83C602                  								 add si,2
  4103 0000733B 81FE4603                								 cmp si,838
  4104 0000733F 0F849E1C                								 je update_di_B1
  4105 00007343 8B36[835D]              								 mov si,[CURRENT_POS_B1]
  4106 00007347 83C604                  								 add si,4
  4107 0000734A 81FE4603                								 cmp si,838
  4108 0000734E 0F848F1C                								 je update_di_B1
  4109 00007352 8B36[835D]              								 mov si,[CURRENT_POS_B1]
  4110 00007356 81C69E00                								 add si,158
  4111 0000735A 81FE4603                								 cmp si,838
  4112 0000735E 0F847F1C                								 je update_di_B1
  4113 00007362 8B36[835D]              								 mov si,[CURRENT_POS_B1]
  4114 00007366 81C6A600                								 add si,166
  4115 0000736A 81FE4603                								 cmp si,838
  4116 0000736E 0F846F1C                								 je update_di_B1
  4117                                  
  4118 00007372 813E[835D]4803          								  cmp word[CURRENT_POS_B1],840;160;-730
  4119 00007378 0F84651C                				                 je  update_di_B1
  4120 0000737C 8B36[835D]              								  mov si,[CURRENT_POS_B1]
  4121 00007380 83C602                  								 add si,2
  4122 00007383 81FE4803                								 cmp si,840
  4123 00007387 0F84561C                								 je update_di_B1
  4124 0000738B 8B36[835D]              								 mov si,[CURRENT_POS_B1]
  4125 0000738F 83C604                  								 add si,4
  4126 00007392 81FE4803                								 cmp si,840
  4127 00007396 0F84471C                								 je update_di_B1
  4128 0000739A 8B36[835D]              								 mov si,[CURRENT_POS_B1]
  4129 0000739E 81C69E00                								 add si,158
  4130 000073A2 81FE4803                								 cmp si,840
  4131 000073A6 0F84371C                								 je update_di_B1
  4132 000073AA 8B36[835D]              								 mov si,[CURRENT_POS_B1]
  4133 000073AE 81C6A600                								 add si,166
  4134 000073B2 81FE4803                								 cmp si,840
  4135 000073B6 0F84271C                								 je update_di_B1
  4136                                  								 
  4137                                  								 
  4138 000073BA 813E[835D]4A03          								 cmp word[CURRENT_POS_B1],842;160;-730
  4139 000073C0 0F841D1C                				                 je  update_di_B1
  4140 000073C4 8B36[835D]              								  mov si,[CURRENT_POS_B1]
  4141 000073C8 83C602                  								 add si,2
  4142 000073CB 81FE4A03                								 cmp si,842
  4143 000073CF 0F840E1C                								 je update_di_B1
  4144 000073D3 8B36[835D]              								 mov si,[CURRENT_POS_B1]
  4145 000073D7 83C604                  								 add si,4
  4146 000073DA 81FE4A03                								 cmp si,842
  4147 000073DE 0F84FF1B                								 je update_di_B1
  4148 000073E2 8B36[835D]              								 mov si,[CURRENT_POS_B1]
  4149 000073E6 81C69E00                								 add si,158
  4150 000073EA 81FE4A03                								 cmp si,842
  4151 000073EE 0F84EF1B                								 je update_di_B1
  4152 000073F2 8B36[835D]              								 mov si,[CURRENT_POS_B1]
  4153 000073F6 81C6A600                								 add si,166
  4154 000073FA 81FE4A03                								 cmp si,842
  4155 000073FE 0F84DF1B                								 je update_di_B1
  4156                                  								
  4157                                  								 
  4158 00007402 813E[835D]4C03          								  cmp word[CURRENT_POS_B1],844;160;-730
  4159 00007408 0F84D51B                				                 je  update_di_B1
  4160 0000740C 8B36[835D]              								 mov si,[CURRENT_POS_B1]
  4161 00007410 83C602                  								 add si,2
  4162 00007413 81FE4C03                								 cmp si,844
  4163 00007417 0F84C61B                								 je update_di_B1
  4164 0000741B 8B36[835D]              								 mov si,[CURRENT_POS_B1]
  4165 0000741F 83C604                  								 add si,4
  4166 00007422 81FE4C03                								 cmp si,844
  4167 00007426 0F84B71B                								 je update_di_B1
  4168 0000742A 8B36[835D]              								 mov si,[CURRENT_POS_B1]
  4169 0000742E 81C69E00                								 add si,158
  4170 00007432 81FE4C03                								 cmp si,844
  4171 00007436 0F84A71B                								 je update_di_B1
  4172 0000743A 8B36[835D]              								 mov si,[CURRENT_POS_B1]
  4173 0000743E 81C6A600                								 add si,166
  4174 00007442 81FE4C03                								 cmp si,844
  4175 00007446 0F84971B                								 je update_di_B1
  4176                                  								 
  4177 0000744A 813E[835D]4E03          								 cmp word[CURRENT_POS_B1],846;160;-730
  4178 00007450 0F848D1B                				                 je  update_di_B1
  4179 00007454 8B36[835D]              								  mov si,[CURRENT_POS_B1]
  4180 00007458 83C602                  								 add si,2
  4181 0000745B 81FE4E03                								 cmp si,846
  4182 0000745F 0F847E1B                								 je update_di_B1
  4183 00007463 8B36[835D]              								 mov si,[CURRENT_POS_B1]
  4184 00007467 83C604                  								 add si,4
  4185 0000746A 81FE4E03                								 cmp si,846
  4186 0000746E 0F846F1B                								 je update_di_B1
  4187 00007472 8B36[835D]              								 mov si,[CURRENT_POS_B1]
  4188 00007476 81C69E00                								 add si,158
  4189 0000747A 81FE4E03                								 cmp si,846
  4190 0000747E 0F845F1B                								 je update_di_B1
  4191 00007482 8B36[835D]              								 mov si,[CURRENT_POS_B1]
  4192 00007486 81C6A600                								 add si,166
  4193 0000748A 81FE4E03                								 cmp si,846
  4194 0000748E 0F844F1B                								 je update_di_B1
  4195                                  								 
  4196                                  								 
  4197 00007492 813E[835D]A806          								  cmp word[CURRENT_POS_B1],1704;160;-730
  4198 00007498 0F84451B                				                 je  update_di_B1
  4199 0000749C 8B36[835D]              								  mov si,[CURRENT_POS_B1]
  4200 000074A0 83C602                  								 add si,2
  4201 000074A3 81FEA806                								 cmp si,1704
  4202 000074A7 0F84361B                								 je update_di_B1
  4203 000074AB 8B36[835D]              								 mov si,[CURRENT_POS_B1]
  4204 000074AF 83C604                  								 add si,4
  4205 000074B2 81FEA806                								 cmp si,1704
  4206 000074B6 0F84271B                								 je update_di_B1
  4207 000074BA 8B36[835D]              								 mov si,[CURRENT_POS_B1]
  4208 000074BE 83C601                  								 add si,1
  4209 000074C1 81FEA806                								 cmp si,1704
  4210 000074C5 0F84181B                								 je update_di_B1
  4211 000074C9 8B36[835D]              								 mov si,[CURRENT_POS_B1]
  4212 000074CD 81C6A600                								 add si,166
  4213 000074D1 81FEA806                								 cmp si,1704
  4214 000074D5 0F84081B                								 je update_di_B1
  4215                                  
  4216                                  								 
  4217 000074D9 813E[835D]AA06          								  cmp word[CURRENT_POS_B1],1706;160;-730
  4218 000074DF 0F84FE1A                				                 je  update_di_B1
  4219 000074E3 8B36[835D]              								  mov si,[CURRENT_POS_B1]
  4220 000074E7 83C602                  								 add si,2
  4221 000074EA 81FEAA06                								 cmp si,1706
  4222 000074EE 0F84EF1A                								 je update_di_B1
  4223 000074F2 8B36[835D]              								 mov si,[CURRENT_POS_B1]
  4224 000074F6 83C604                  								 add si,4
  4225 000074F9 81FEAA06                								 cmp si,1706
  4226 000074FD 0F84E01A                								 je update_di_B1
  4227 00007501 8B36[835D]              								 mov si,[CURRENT_POS_B1]
  4228 00007505 81C69E00                								 add si,158
  4229 00007509 81FEAA06                								 cmp si,1706
  4230 0000750D 0F84D01A                								 je update_di_B1
  4231 00007511 8B36[835D]              								 mov si,[CURRENT_POS_B1]
  4232 00007515 81C6A600                								 add si,166
  4233 00007519 81FEAA06                								 cmp si,1706
  4234 0000751D 0F84C01A                								 je update_di_B1
  4235                                  								
  4236 00007521 813E[835D]AC06          								  cmp word[CURRENT_POS_B1],1708;160;-730
  4237 00007527 0F84B61A                				                 je  update_di_B1
  4238 0000752B 8B36[835D]              								  mov si,[CURRENT_POS_B1]
  4239 0000752F 83C602                  								 add si,2
  4240 00007532 81FEAC06                								 cmp si,1708
  4241 00007536 0F84A71A                								 je update_di_B1
  4242 0000753A 8B36[835D]              								 mov si,[CURRENT_POS_B1]
  4243 0000753E 83C604                  								 add si,4
  4244 00007541 81FEAC06                								 cmp si,1708
  4245 00007545 0F84981A                								 je update_di_B1
  4246 00007549 8B36[835D]              								 mov si,[CURRENT_POS_B1]
  4247 0000754D 81C69E00                								 add si,158
  4248 00007551 81FEAC06                								 cmp si,1708
  4249 00007555 0F84881A                								 je update_di_B1
  4250 00007559 8B36[835D]              								 mov si,[CURRENT_POS_B1]
  4251 0000755D 81C6A600                								 add si,166
  4252 00007561 81FEAC06                								 cmp si,1708
  4253 00007565 0F84781A                								 je update_di_B1
  4254                                  								 
  4255                                  								 
  4256 00007569 813E[835D]AE06          								  cmp word[CURRENT_POS_B1],1710;160;-730
  4257 0000756F 0F846E1A                				                 je  update_di_B1
  4258 00007573 8B36[835D]              								  mov si,[CURRENT_POS_B1]
  4259 00007577 83C602                  								 add si,2
  4260 0000757A 81FEAE06                								 cmp si,1710
  4261 0000757E 0F845F1A                								 je update_di_B1
  4262 00007582 8B36[835D]              								 mov si,[CURRENT_POS_B1]
  4263 00007586 83C604                  								 add si,4
  4264 00007589 81FEAE06                								 cmp si,1710
  4265 0000758D 0F84501A                								 je update_di_B1
  4266 00007591 8B36[835D]              								 mov si,[CURRENT_POS_B1]
  4267 00007595 81C69E00                								 add si,158
  4268 00007599 81FEAE06                								 cmp si,1710
  4269 0000759D 0F84401A                								 je update_di_B1
  4270 000075A1 8B36[835D]              								 mov si,[CURRENT_POS_B1]
  4271 000075A5 81C6A600                								 add si,166
  4272 000075A9 81FEAE06                								 cmp si,1710
  4273 000075AD 0F84301A                								 je update_di_B1
  4274                                  								
  4275                                  								 
  4276 000075B1 813E[835D]B006          								  cmp word[CURRENT_POS_B1],1712;160;-730
  4277 000075B7 0F84261A                				                 je  update_di_B1
  4278 000075BB 8B36[835D]              								  mov si,[CURRENT_POS_B1]
  4279 000075BF 83C602                  								 add si,2
  4280 000075C2 81FEB006                								 cmp si,1712
  4281 000075C6 0F84171A                								 je update_di_B1
  4282 000075CA 8B36[835D]              								 mov si,[CURRENT_POS_B1]
  4283 000075CE 83C604                  								 add si,4
  4284 000075D1 81FEB006                								 cmp si,1712
  4285 000075D5 0F84081A                								 je update_di_B1
  4286 000075D9 8B36[835D]              								 mov si,[CURRENT_POS_B1]
  4287 000075DD 81C69E00                								 add si,158
  4288 000075E1 81FEB006                								 cmp si,1712
  4289 000075E5 0F84F819                								 je update_di_B1
  4290 000075E9 8B36[835D]              								 mov si,[CURRENT_POS_B1]
  4291 000075ED 81C6A600                								 add si,166
  4292 000075F1 81FEB006                								 cmp si,1712
  4293 000075F5 0F84E819                								 je update_di_B1
  4294                                  
  4295                                  								 
  4296 000075F9 813E[835D]B206          								 cmp word[CURRENT_POS_B1],1714;160;-730
  4297 000075FF 0F84DE19                				                 je  update_di_B1
  4298 00007603 8B36[835D]              								  mov si,[CURRENT_POS_B1]
  4299 00007607 83C602                  								 add si,2
  4300 0000760A 81FEB206                								 cmp si,1714
  4301 0000760E 0F84CF19                								 je update_di_B1
  4302 00007612 8B36[835D]              								 mov si,[CURRENT_POS_B1]
  4303 00007616 83C604                  								 add si,4
  4304 00007619 81FEB206                								 cmp si,1714
  4305 0000761D 0F84C019                								 je update_di_B1
  4306 00007621 8B36[835D]              								 mov si,[CURRENT_POS_B1]
  4307 00007625 81C69E00                								 add si,158
  4308 00007629 81FEB206                								 cmp si,1714
  4309 0000762D 0F84B019                								 je update_di_B1
  4310 00007631 8B36[835D]              								 mov si,[CURRENT_POS_B1]
  4311 00007635 81C6A600                								 add si,166
  4312 00007639 81FEB206                								 cmp si,1714
  4313 0000763D 0F84A019                								 je update_di_B1
  4314                                  
  4315                                  								 
  4316 00007641 813E[835D]8A07          								  cmp word[CURRENT_POS_B1],1930;160;-730
  4317 00007647 0F849619                				                 je  update_di_B1
  4318 0000764B 8B36[835D]              								  mov si,[CURRENT_POS_B1]
  4319 0000764F 83C602                  								 add si,2
  4320 00007652 81FE8A07                								 cmp si,1930
  4321 00007656 0F848719                								 je update_di_B1
  4322 0000765A 8B36[835D]              								 mov si,[CURRENT_POS_B1]
  4323 0000765E 83C604                  								 add si,4
  4324 00007661 81FE8A07                								 cmp si,1930
  4325 00007665 0F847819                								 je update_di_B1
  4326 00007669 8B36[835D]              								 mov si,[CURRENT_POS_B1]
  4327 0000766D 81C69E00                								 add si,158
  4328 00007671 81FE8A07                								 cmp si,1930
  4329 00007675 0F846819                								 je update_di_B1
  4330 00007679 8B36[835D]              								 mov si,[CURRENT_POS_B1]
  4331 0000767D 81C6A600                								 add si,166
  4332 00007681 81FE8A07                								 cmp si,1930
  4333 00007685 0F845819                								 je update_di_B1
  4334                                  
  4335                                  								 
  4336 00007689 813E[835D]8C07          								  cmp word[CURRENT_POS_B1],1932;160;-730
  4337 0000768F 0F844E19                				                 je  update_di_B1
  4338 00007693 8B36[835D]              								  mov si,[CURRENT_POS_B1]
  4339 00007697 83C602                  								 add si,2
  4340 0000769A 81FE8C07                								 cmp si,1932
  4341 0000769E 0F843F19                								 je update_di_B1
  4342 000076A2 8B36[835D]              								 mov si,[CURRENT_POS_B1]
  4343 000076A6 83C604                  								 add si,4
  4344 000076A9 81FE8C07                								 cmp si,1932
  4345 000076AD 0F843019                								 je update_di_B1
  4346 000076B1 8B36[835D]              								 mov si,[CURRENT_POS_B1]
  4347 000076B5 81C69E00                								 add si,158
  4348 000076B9 81FE8C07                								 cmp si,1932
  4349 000076BD 0F842019                								 je update_di_B1
  4350 000076C1 8B36[835D]              								 mov si,[CURRENT_POS_B1]
  4351 000076C5 81C6A600                								 add si,166
  4352 000076C9 81FE8C07                								 cmp si,1932
  4353 000076CD 0F841019                								 je update_di_B1
  4354                                  								 
  4355                                  								 
  4356 000076D1 813E[835D]8E07          								  cmp word[CURRENT_POS_B1],1934;160;-730
  4357 000076D7 0F840619                				                 je  update_di_B1
  4358 000076DB 8B36[835D]              								  mov si,[CURRENT_POS_B1]
  4359 000076DF 83C602                  								 add si,2
  4360 000076E2 81FE8E07                								 cmp si,1934
  4361 000076E6 0F84F718                								 je update_di_B1
  4362 000076EA 8B36[835D]              								 mov si,[CURRENT_POS_B1]
  4363 000076EE 83C604                  								 add si,4
  4364 000076F1 81FE8E07                								 cmp si,1934
  4365 000076F5 0F84E818                								 je update_di_B1
  4366 000076F9 8B36[835D]              								 mov si,[CURRENT_POS_B1]
  4367 000076FD 81C69E00                								 add si,158
  4368 00007701 81FE8E07                								 cmp si,1934
  4369 00007705 0F84D818                								 je update_di_B1
  4370 00007709 8B36[835D]              								 mov si,[CURRENT_POS_B1]
  4371 0000770D 81C6A600                								 add si,166
  4372 00007711 81FE8E07                								 cmp si,1934
  4373 00007715 0F84C818                								 je update_di_B1
  4374                                  
  4375                                  								 
  4376 00007719 813E[835D]9007          								  cmp word[CURRENT_POS_B1],1936;160;-730
  4377 0000771F 0F84BE18                				                 je  update_di_B1
  4378 00007723 8B36[835D]              								  mov si,[CURRENT_POS_B1]
  4379 00007727 83C602                  								 add si,2
  4380 0000772A 81FE9007                								 cmp si,1936
  4381 0000772E 0F84AF18                								 je update_di_B1
  4382 00007732 8B36[835D]              								 mov si,[CURRENT_POS_B1]
  4383 00007736 83C604                  								 add si,4
  4384 00007739 81FE9007                								 cmp si,1936
  4385 0000773D 0F84A018                								 je update_di_B1
  4386 00007741 8B36[835D]              								 mov si,[CURRENT_POS_B1]
  4387 00007745 81C69E00                								 add si,158
  4388 00007749 81FE9007                								 cmp si,1936
  4389 0000774D 0F849018                								 je update_di_B1
  4390 00007751 8B36[835D]              								 mov si,[CURRENT_POS_B1]
  4391 00007755 81C6A600                								 add si,166
  4392 00007759 81FE9007                								 cmp si,1936
  4393 0000775D 0F848018                								 je update_di_B1
  4394                                  
  4395                                  								 
  4396 00007761 813E[835D]9207          								  cmp word[CURRENT_POS_B1],1938;160;-730
  4397 00007767 0F847618                				                 je  update_di_B1
  4398 0000776B 8B36[835D]              								  mov si,[CURRENT_POS_B1]
  4399 0000776F 83C602                  								 add si,2
  4400 00007772 81FE9207                								 cmp si,1938
  4401 00007776 0F846718                								 je update_di_B1
  4402 0000777A 8B36[835D]              								 mov si,[CURRENT_POS_B1]
  4403 0000777E 83C604                  								 add si,4
  4404 00007781 81FE9207                								 cmp si,1938
  4405 00007785 0F845818                								 je update_di_B1
  4406 00007789 8B36[835D]              								 mov si,[CURRENT_POS_B1]
  4407 0000778D 81C69E00                								 add si,158
  4408 00007791 81FE9207                								 cmp si,1938
  4409 00007795 0F844818                								 je update_di_B1
  4410 00007799 8B36[835D]              								 mov si,[CURRENT_POS_B1]
  4411 0000779D 81C6A600                								 add si,166
  4412 000077A1 81FE9207                								 cmp si,1938
  4413 000077A5 0F843818                								 je update_di_B1
  4414                                  
  4415                                  								 
  4416 000077A9 813E[835D]9407          								 cmp word[CURRENT_POS_B1],1940;160;-730
  4417 000077AF 0F842E18                				                 je  update_di_B1
  4418 000077B3 8B36[835D]              								  mov si,[CURRENT_POS_B1]
  4419 000077B7 83C602                  								 add si,2
  4420 000077BA 81FE9407                								 cmp si,1940
  4421 000077BE 0F841F18                								 je update_di_B1
  4422 000077C2 8B36[835D]              								 mov si,[CURRENT_POS_B1]
  4423 000077C6 83C604                  								 add si,4
  4424 000077C9 81FE9407                								 cmp si,1940
  4425 000077CD 0F841018                								 je update_di_B1
  4426 000077D1 8B36[835D]              								 mov si,[CURRENT_POS_B1]
  4427 000077D5 81C69E00                								 add si,158
  4428 000077D9 81FE9407                								 cmp si,1940
  4429 000077DD 0F840018                								 je update_di_B1
  4430 000077E1 8B36[835D]              								 mov si,[CURRENT_POS_B1]
  4431 000077E5 81C6A600                								 add si,166
  4432 000077E9 81FE9407                								 cmp si,1940
  4433 000077ED 0F84F017                								 je update_di_B1
  4434                                  
  4435                                  								 
  4436 000077F1 813E[835D]D809          								  cmp word[CURRENT_POS_B1],2520;160;-730
  4437 000077F7 0F84E617                				                 je  update_di_B1
  4438 000077FB 8B36[835D]              								  mov si,[CURRENT_POS_B1]
  4439 000077FF 83C602                  								 add si,2
  4440 00007802 81FED809                								 cmp si,2520
  4441 00007806 0F84D717                								 je update_di_B1
  4442 0000780A 8B36[835D]              								 mov si,[CURRENT_POS_B1]
  4443 0000780E 83C604                  								 add si,4
  4444 00007811 81FED809                								 cmp si,2520
  4445 00007815 0F84C817                								 je update_di_B1
  4446 00007819 8B36[835D]              								 mov si,[CURRENT_POS_B1]
  4447 0000781D 81C69E00                								 add si,158
  4448 00007821 81FED809                								 cmp si,2520
  4449 00007825 0F84B817                								 je update_di_B1
  4450 00007829 8B36[835D]              								 mov si,[CURRENT_POS_B1]
  4451 0000782D 81C6A600                								 add si,166
  4452 00007831 81FED809                								 cmp si,2520
  4453 00007835 0F84A817                								 je update_di_B1
  4454                                  
  4455                                  								 
  4456 00007839 813E[835D]DA09          								  cmp word[CURRENT_POS_B1],2522;160;-730
  4457 0000783F 0F849E17                				                 je  update_di_B1
  4458 00007843 8B36[835D]              								  mov si,[CURRENT_POS_B1]
  4459 00007847 83C602                  								 add si,2
  4460 0000784A 81FEDA09                								 cmp si,2522
  4461 0000784E 0F848F17                								 je update_di_B1
  4462 00007852 8B36[835D]              								 mov si,[CURRENT_POS_B1]
  4463 00007856 83C604                  								 add si,4
  4464 00007859 81FEDA09                								 cmp si,2522
  4465 0000785D 0F848017                								 je update_di_B1
  4466 00007861 8B36[835D]              								 mov si,[CURRENT_POS_B1]
  4467 00007865 81C69E00                								 add si,158
  4468 00007869 81FEDA09                								 cmp si,2522
  4469 0000786D 0F847017                								 je update_di_B1
  4470 00007871 8B36[835D]              								 mov si,[CURRENT_POS_B1]
  4471 00007875 81C6A600                								 add si,166
  4472 00007879 81FEDA09                								 cmp si,2522
  4473 0000787D 0F846017                								 je update_di_B1
  4474                                  								 
  4475                                  								 
  4476 00007881 813E[835D]DC09          								  cmp word[CURRENT_POS_B1],2524;160;-730
  4477 00007887 0F845617                				                 je  update_di_B1
  4478 0000788B 8B36[835D]              								  mov si,[CURRENT_POS_B1]
  4479 0000788F 83C602                  								 add si,2
  4480 00007892 81FEDC09                								 cmp si,2524
  4481 00007896 0F844717                								 je update_di_B1
  4482 0000789A 8B36[835D]              								 mov si,[CURRENT_POS_B1]
  4483 0000789E 83C604                  								 add si,4
  4484 000078A1 81FEDC09                								 cmp si,2524
  4485 000078A5 0F843817                								 je update_di_B1
  4486 000078A9 8B36[835D]              								 mov si,[CURRENT_POS_B1]
  4487 000078AD 81C69E00                								 add si,158
  4488 000078B1 81FEDC09                								 cmp si,2524
  4489 000078B5 0F842817                								 je update_di_B1
  4490 000078B9 8B36[835D]              								 mov si,[CURRENT_POS_B1]
  4491 000078BD 81C6A600                								 add si,166
  4492 000078C1 81FEDC09                								 cmp si,2524
  4493 000078C5 0F841817                								 je update_di_B1
  4494                                  
  4495                                  								 
  4496 000078C9 813E[835D]DE09          								  cmp word[CURRENT_POS_B1],2526;160;-730
  4497 000078CF 0F840E17                				                 je  update_di_B1
  4498 000078D3 8B36[835D]              								  mov si,[CURRENT_POS_B1]
  4499 000078D7 83C602                  								 add si,2
  4500 000078DA 81FEDE09                								 cmp si,2526
  4501 000078DE 0F84FF16                								 je update_di_B1
  4502 000078E2 8B36[835D]              								 mov si,[CURRENT_POS_B1]
  4503 000078E6 83C604                  								 add si,4
  4504 000078E9 81FEDE09                								 cmp si,2526
  4505 000078ED 0F84F016                								 je update_di_B1
  4506 000078F1 8B36[835D]              								 mov si,[CURRENT_POS_B1]
  4507 000078F5 81C69E00                								 add si,158
  4508 000078F9 81FEDE09                								 cmp si,2526
  4509 000078FD 0F84E016                								 je update_di_B1
  4510 00007901 8B36[835D]              								 mov si,[CURRENT_POS_B1]
  4511 00007905 81C6A600                								 add si,166
  4512 00007909 81FEDE09                								 cmp si,2526
  4513 0000790D 0F84D016                								 je update_di_B1
  4514                                  
  4515                                  								 
  4516 00007911 813E[835D]E009          								  cmp word[CURRENT_POS_B1],2528;160;-730
  4517 00007917 0F84C616                				                 je  update_di_B1
  4518 0000791B 8B36[835D]              								  mov si,[CURRENT_POS_B1]
  4519 0000791F 83C602                  								 add si,2
  4520 00007922 81FEE009                								 cmp si,2528
  4521 00007926 0F84B716                								 je update_di_B1
  4522 0000792A 8B36[835D]              								 mov si,[CURRENT_POS_B1]
  4523 0000792E 83C604                  								 add si,4
  4524 00007931 81FEE009                								 cmp si,2528
  4525 00007935 0F84A816                								 je update_di_B1
  4526 00007939 8B36[835D]              								 mov si,[CURRENT_POS_B1]
  4527 0000793D 81C69E00                								 add si,158
  4528 00007941 81FEE009                								 cmp si,2528
  4529 00007945 0F849816                								 je update_di_B1
  4530 00007949 8B36[835D]              								 mov si,[CURRENT_POS_B1]
  4531 0000794D 81C6A600                								 add si,166
  4532 00007951 81FEE009                								 cmp si,2528
  4533 00007955 0F848816                								 je update_di_B1
  4534                                  								
  4535                                  								 
  4536 00007959 813E[835D]E209          								 cmp word[CURRENT_POS_B1],2530;160;-730
  4537 0000795F 0F847E16                				                 je  update_di_B1
  4538 00007963 8B36[835D]              								  mov si,[CURRENT_POS_B1]
  4539 00007967 83C602                  								 add si,2
  4540 0000796A 81FEE209                								 cmp si,2530
  4541 0000796E 0F846F16                								 je update_di_B1
  4542 00007972 8B36[835D]              								 mov si,[CURRENT_POS_B1]
  4543 00007976 83C604                  								 add si,4
  4544 00007979 81FEE209                								 cmp si,2530
  4545 0000797D 0F846016                								 je update_di_B1
  4546 00007981 8B36[835D]              								 mov si,[CURRENT_POS_B1]
  4547 00007985 81C69E00                								 add si,158
  4548 00007989 81FEE209                								 cmp si,2530
  4549 0000798D 0F845016                								 je update_di_B1
  4550 00007991 8B36[835D]              								 mov si,[CURRENT_POS_B1]
  4551 00007995 81C6A600                								 add si,166
  4552 00007999 81FEE209                								 cmp si,2530
  4553 0000799D 0F844016                								 je update_di_B1
  4554                                  								 
  4555                                  								 
  4556                                  								 
  4557 000079A1 833E[855D]12            				                 cmp word[CURRENT_POS_B2],18;160;-730
  4558 000079A6 0F8C3917                				                 jl  update_di_B2
  4559 000079AA 833E[855D]00            				                 cmp word[CURRENT_POS_B2],0;160;-730
  4560 000079AF 0F8C3017                				                 jl  update_di_B2
  4561 000079B3 8B36[855D]              								 mov si, [CURRENT_POS_B2]
  4562 000079B7 83C606                  								add si,6
  4563 000079BA 81FE2401                								 cmp si,292;160;-730
  4564 000079BE 0F8E2117                				                               jle  update_di_B2
  4565 000079C2 813E[855D]8600          								 cmp word[CURRENT_POS_B2],134;160;-730
  4566 000079C8 0F841717                				                               je  update_di_B2
  4567 000079CC 813E[855D]8C00                                                          cmp word[CURRENT_POS_B2],140;160;-730
  4568 000079D2 0F840D17                				                               je  update_di_B2
  4569 000079D6 813E[855D]8E00          											   cmp word[CURRENT_POS_B2],142;160;-730
  4570 000079DC 0F840317                				                               je  update_di_B2
  4571 000079E0 813E[855D]9000          											   cmp word[CURRENT_POS_B2],144;160;-730
  4572 000079E6 0F84F916                				                               je  update_di_B2
  4573 000079EA 813E[855D]9200          											   cmp word[CURRENT_POS_B2],146;160;-730
  4574 000079F0 0F84EF16                				                               je  update_di_B2
  4575 000079F4 813E[855D]9400          											   cmp word[CURRENT_POS_B2],148;160;-730
  4576 000079FA 0F84E516                				                               je  update_di_B2
  4577 000079FE 813E[855D]9600          											   cmp word[CURRENT_POS_B2],150;160;-730
  4578 00007A04 0F84DB16                				                               je  update_di_B2
  4579 00007A08 813E[855D]9800          											   cmp word[CURRENT_POS_B2],152;160;-730
  4580 00007A0E 0F84D116                				                               je  update_di_B2
  4581 00007A12 813E[855D]9A00          											   cmp word[CURRENT_POS_B2],154;160;-730
  4582 00007A18 0F84C716                				                               je  update_di_B2
  4583 00007A1C 813E[855D]9C00          											   cmp word[CURRENT_POS_B2],156;160;-730
  4584 00007A22 0F84BD16                				                               je  update_di_B2
  4585 00007A26 813E[855D]9E00          											   cmp word[CURRENT_POS_B2],158;160;-730
  4586 00007A2C 0F84B316                				                               je  update_di_B2
  4587                                  								 
  4588                                  								 
  4589 00007A30 8B36[855D]              								  mov si,[CURRENT_POS_B2]
  4590 00007A34 83EE04                  								 sub si,4
  4591 00007A37 81FE4403                								 cmp si,836
  4592 00007A3B 0F84A416                								 je update_di_B2
  4593                                  								 
  4594 00007A3F 8B36[855D]              								 mov si,[CURRENT_POS_B2]
  4595 00007A43 83EE02                  								 sub si,2
  4596 00007A46 81FE4403                								 cmp si,836
  4597 00007A4A 0F849516                								 je update_di_B2
  4598 00007A4E 813E[855D]4403          								 cmp word[CURRENT_POS_B2],836;160;-730
  4599 00007A54 0F848B16                				                 je  update_di_B2
  4600 00007A58 8B36[855D]              								  mov si,[CURRENT_POS_B2]
  4601 00007A5C 83C602                  								 add si,2
  4602 00007A5F 81FE4403                								 cmp si,836
  4603 00007A63 0F847C16                								 je update_di_B2
  4604 00007A67 8B36[855D]              								 mov si,[CURRENT_POS_B2]
  4605 00007A6B 83C604                  								 add si,4
  4606 00007A6E 81FE4403                								 cmp si,836
  4607 00007A72 0F846D16                								 je update_di_B2
  4608 00007A76 8B36[855D]              								 mov si,[CURRENT_POS_B2]
  4609 00007A7A 81C69E00                								 add si,158
  4610 00007A7E 81FE4403                								 cmp si,836
  4611 00007A82 0F845D16                								 je update_di_B2
  4612 00007A86 8B36[855D]              								 mov si,[CURRENT_POS_B2]
  4613 00007A8A 81C6A600                								 add si,166
  4614 00007A8E 81FE4403                								 cmp si,836
  4615 00007A92 0F844D16                								 je update_di_B2
  4616                                  								 
  4617 00007A96 813E[855D]4603          								  cmp word[CURRENT_POS_B2],838;160;-730
  4618 00007A9C 0F844316                				                 je  update_di_B2
  4619 00007AA0 8B36[855D]              								 mov si,[CURRENT_POS_B2]
  4620 00007AA4 83C602                  								 add si,2
  4621 00007AA7 81FE4603                								 cmp si,838
  4622 00007AAB 0F843416                								 je update_di_B2
  4623 00007AAF 8B36[855D]              								 mov si,[CURRENT_POS_B2]
  4624 00007AB3 83C604                  								 add si,4
  4625 00007AB6 81FE4603                								 cmp si,838
  4626 00007ABA 0F842516                								 je update_di_B2
  4627 00007ABE 8B36[855D]              								 mov si,[CURRENT_POS_B2]
  4628 00007AC2 81C69E00                								 add si,158
  4629 00007AC6 81FE4603                								 cmp si,838
  4630 00007ACA 0F841516                								 je update_di_B2
  4631 00007ACE 8B36[855D]              								 mov si,[CURRENT_POS_B2]
  4632 00007AD2 81C6A600                								 add si,166
  4633 00007AD6 81FE4603                								 cmp si,838
  4634 00007ADA 0F840516                								 je update_di_B2
  4635                                  								 
  4636 00007ADE 813E[855D]4803          								  cmp word[CURRENT_POS_B2],840;160;-730
  4637 00007AE4 0F84FB15                				                 je  update_di_B2
  4638 00007AE8 8B36[855D]              								 mov si,[CURRENT_POS_B2]
  4639 00007AEC 83C602                  								 add si,2
  4640 00007AEF 81FE4803                								 cmp si,840
  4641 00007AF3 0F84EC15                								 je update_di_B2
  4642 00007AF7 8B36[855D]              								 mov si,[CURRENT_POS_B2]
  4643 00007AFB 83C604                  								 add si,4
  4644 00007AFE 81FE4803                								 cmp si,840
  4645 00007B02 0F84DD15                								 je update_di_B2
  4646 00007B06 8B36[855D]              								 mov si,[CURRENT_POS_B2]
  4647 00007B0A 81C69E00                								 add si,158
  4648 00007B0E 81FE4803                								 cmp si,840
  4649 00007B12 0F84CD15                								 je update_di_B2
  4650 00007B16 8B36[855D]              								 mov si,[CURRENT_POS_B2]
  4651 00007B1A 81C6A600                								 add si,166
  4652 00007B1E 81FE4803                								 cmp si,840
  4653 00007B22 0F84BD15                								 je update_di_B2
  4654                                  								 
  4655 00007B26 813E[855D]4A03          								 cmp word[CURRENT_POS_B2],842;160;-730
  4656 00007B2C 0F84B315                				                 je  update_di_B2
  4657 00007B30 8B36[855D]              								 mov si,[CURRENT_POS_B2]
  4658 00007B34 83C602                  								 add si,2
  4659 00007B37 81FE4A03                								 cmp si,842
  4660 00007B3B 0F84A415                								 je update_di_B2
  4661 00007B3F 8B36[855D]              								 mov si,[CURRENT_POS_B2]
  4662 00007B43 83C604                  								 add si,4
  4663 00007B46 81FE4A03                								 cmp si,842
  4664 00007B4A 0F849515                								 je update_di_B2
  4665 00007B4E 8B36[855D]              								 mov si,[CURRENT_POS_B2]
  4666 00007B52 81C69E00                								 add si,158
  4667 00007B56 81FE4A03                								 cmp si,842
  4668 00007B5A 0F848515                								 je update_di_B2
  4669 00007B5E 8B36[855D]              								 mov si,[CURRENT_POS_B2]
  4670 00007B62 81C6A600                								 add si,166
  4671 00007B66 81FE4A03                								 cmp si,842
  4672 00007B6A 0F847515                								 je update_di_B2
  4673                                  								 
  4674 00007B6E 813E[855D]4C03          								  cmp word[CURRENT_POS_B2],844;160;-730
  4675 00007B74 0F846B15                				                 je  update_di_B2
  4676 00007B78 8B36[855D]              								 mov si,[CURRENT_POS_B2]
  4677 00007B7C 83C602                  								 add si,2
  4678 00007B7F 81FE4C03                								 cmp si,844
  4679 00007B83 0F845C15                								 je update_di_B2
  4680 00007B87 8B36[855D]              								 mov si,[CURRENT_POS_B2]
  4681 00007B8B 83C604                  								 add si,4
  4682 00007B8E 81FE4C03                								 cmp si,844
  4683 00007B92 0F844D15                								 je update_di_B2
  4684 00007B96 8B36[855D]              								 mov si,[CURRENT_POS_B2]
  4685 00007B9A 81C69E00                								 add si,158
  4686 00007B9E 81FE4C03                								 cmp si,844
  4687 00007BA2 0F843D15                								 je update_di_B2
  4688 00007BA6 8B36[855D]              								 mov si,[CURRENT_POS_B2]
  4689 00007BAA 81C6A600                								 add si,166
  4690 00007BAE 81FE4C03                								 cmp si,844
  4691 00007BB2 0F842D15                								 je update_di_B2
  4692                                  								 
  4693 00007BB6 813E[855D]4E03          								 cmp word[CURRENT_POS_B2],846;160;-730
  4694 00007BBC 0F842315                				                 je  update_di_B2
  4695 00007BC0 8B36[855D]              								 mov si,[CURRENT_POS_B2]
  4696 00007BC4 83C602                  								 add si,2
  4697 00007BC7 81FE4E03                								 cmp si,846
  4698 00007BCB 0F841415                								 je update_di_B2
  4699 00007BCF 8B36[855D]              								 mov si,[CURRENT_POS_B2]
  4700 00007BD3 83C604                  								 add si,4
  4701 00007BD6 81FE4E03                								 cmp si,846
  4702 00007BDA 0F840515                								 je update_di_B2
  4703 00007BDE 8B36[855D]              								 mov si,[CURRENT_POS_B2]
  4704 00007BE2 81C69E00                								 add si,158
  4705 00007BE6 81FE4E03                								 cmp si,846
  4706 00007BEA 0F84F514                								 je update_di_B2
  4707 00007BEE 8B36[855D]              								 mov si,[CURRENT_POS_B2]
  4708 00007BF2 81C6A600                								 add si,166
  4709 00007BF6 81FE4E03                								 cmp si,846
  4710 00007BFA 0F84E514                								 je update_di_B2
  4711                                  								 
  4712 00007BFE 813E[855D]A806          								  cmp word[CURRENT_POS_B2],1704;160;-730
  4713 00007C04 0F84DB14                				                 je  update_di_B2
  4714 00007C08 8B36[855D]              								 mov si,[CURRENT_POS_B2]
  4715 00007C0C 83C602                  								 add si,2
  4716 00007C0F 81FEA806                								 cmp si,1704
  4717 00007C13 0F84CC14                								 je update_di_B2
  4718 00007C17 8B36[855D]              								 mov si,[CURRENT_POS_B2]
  4719 00007C1B 83C604                  								 add si,4
  4720 00007C1E 81FEA806                								 cmp si,1704
  4721 00007C22 0F84BD14                								 je update_di_B2
  4722 00007C26 8B36[855D]              								 mov si,[CURRENT_POS_B2]
  4723 00007C2A 81C69E00                								 add si,158
  4724 00007C2E 81FEA806                								 cmp si,1704
  4725 00007C32 0F84AD14                								 je update_di_B2
  4726 00007C36 8B36[855D]              								 mov si,[CURRENT_POS_B2]
  4727 00007C3A 81C6A600                								 add si,166
  4728 00007C3E 81FEA806                								 cmp si,1704
  4729 00007C42 0F849D14                								 je update_di_B2
  4730                                  								 
  4731 00007C46 813E[855D]AA06          								  cmp word[CURRENT_POS_B2],1706;160;-730
  4732 00007C4C 0F849314                				                 je  update_di_B2
  4733 00007C50 8B36[855D]              								 mov si,[CURRENT_POS_B2]
  4734 00007C54 83C602                  								 add si,2
  4735 00007C57 81FEAA06                								 cmp si,1706
  4736 00007C5B 0F848414                								 je update_di_B2
  4737 00007C5F 8B36[855D]              								 mov si,[CURRENT_POS_B2]
  4738 00007C63 83C604                  								 add si,4
  4739 00007C66 81FEAA06                								 cmp si,1706
  4740 00007C6A 0F847514                								 je update_di_B2
  4741 00007C6E 8B36[855D]              								 mov si,[CURRENT_POS_B2]
  4742 00007C72 81C69E00                								 add si,158
  4743 00007C76 81FEAA06                								 cmp si,1706
  4744 00007C7A 0F846514                								 je update_di_B2
  4745 00007C7E 8B36[855D]              								 mov si,[CURRENT_POS_B2]
  4746 00007C82 81C6A600                								 add si,166
  4747 00007C86 81FEAA06                								 cmp si,1706
  4748 00007C8A 0F845514                								 je update_di_B2
  4749                                  								 
  4750 00007C8E 813E[855D]AC06          								  cmp word[CURRENT_POS_B2],1708;160;-730
  4751 00007C94 0F844B14                				                 je  update_di_B2
  4752 00007C98 8B36[855D]              								 mov si,[CURRENT_POS_B2]
  4753 00007C9C 83C602                  								 add si,2
  4754 00007C9F 81FEAC06                								 cmp si,1708
  4755 00007CA3 0F843C14                								 je update_di_B2
  4756 00007CA7 8B36[855D]              								 mov si,[CURRENT_POS_B2]
  4757 00007CAB 83C604                  								 add si,4
  4758 00007CAE 81FEAC06                								 cmp si,1708
  4759 00007CB2 0F842D14                								 je update_di_B2
  4760 00007CB6 8B36[855D]              								 mov si,[CURRENT_POS_B2]
  4761 00007CBA 81C69E00                								 add si,158
  4762 00007CBE 81FEAC06                								 cmp si,1708
  4763 00007CC2 0F841D14                								 je update_di_B2
  4764 00007CC6 8B36[855D]              								 mov si,[CURRENT_POS_B2]
  4765 00007CCA 81C6A600                								 add si,166
  4766 00007CCE 81FEAC06                								 cmp si,1708
  4767 00007CD2 0F840D14                								 je update_di_B2
  4768                                  								 
  4769 00007CD6 813E[855D]AE06          								  cmp word[CURRENT_POS_B2],1710;160;-730
  4770 00007CDC 0F840314                				                 je  update_di_B2
  4771 00007CE0 8B36[855D]              								 mov si,[CURRENT_POS_B2]
  4772 00007CE4 83C602                  								 add si,2
  4773 00007CE7 81FEAE06                								 cmp si,1710
  4774 00007CEB 0F84F413                								 je update_di_B2
  4775 00007CEF 8B36[855D]              								 mov si,[CURRENT_POS_B2]
  4776 00007CF3 83C604                  								 add si,4
  4777 00007CF6 81FEAE06                								 cmp si,1710
  4778 00007CFA 0F84E513                								 je update_di_B2
  4779 00007CFE 8B36[855D]              								 mov si,[CURRENT_POS_B2]
  4780 00007D02 81C69E00                								 add si,158
  4781 00007D06 81FEAE06                								 cmp si,1710
  4782 00007D0A 0F84D513                								 je update_di_B2
  4783 00007D0E 8B36[855D]              								 mov si,[CURRENT_POS_B2]
  4784 00007D12 81C6A600                								 add si,166
  4785 00007D16 81FEAE06                								 cmp si,1710
  4786 00007D1A 0F84C513                								 je update_di_B2
  4787                                  								 
  4788 00007D1E 813E[855D]B006          								  cmp word[CURRENT_POS_B2],1712;160;-730
  4789 00007D24 0F84BB13                				                 je  update_di_B2
  4790 00007D28 8B36[855D]              								 mov si,[CURRENT_POS_B2]
  4791 00007D2C 83C602                  								 add si,2
  4792 00007D2F 81FEB006                								 cmp si,1712
  4793 00007D33 0F84AC13                								 je update_di_B2
  4794 00007D37 8B36[855D]              								 mov si,[CURRENT_POS_B2]
  4795 00007D3B 83C604                  								 add si,4
  4796 00007D3E 81FEB006                								 cmp si,1712
  4797 00007D42 0F849D13                								 je update_di_B2
  4798 00007D46 8B36[855D]              								 mov si,[CURRENT_POS_B2]
  4799 00007D4A 81C69E00                								 add si,158
  4800 00007D4E 81FEB006                								 cmp si,1712
  4801 00007D52 0F848D13                								 je update_di_B2
  4802 00007D56 8B36[855D]              								 mov si,[CURRENT_POS_B2]
  4803 00007D5A 81C6A600                								 add si,166
  4804 00007D5E 81FEB006                								 cmp si,1712
  4805 00007D62 0F847D13                								 je update_di_B2
  4806                                  								 
  4807 00007D66 813E[855D]B206          								 cmp word[CURRENT_POS_B2],1714;160;-730
  4808 00007D6C 0F847313                				                 je  update_di_B2
  4809 00007D70 8B36[855D]              								 mov si,[CURRENT_POS_B2]
  4810 00007D74 83C602                  								 add si,2
  4811 00007D77 81FEB206                								 cmp si,1714
  4812 00007D7B 0F846413                								 je update_di_B2
  4813 00007D7F 8B36[855D]              								 mov si,[CURRENT_POS_B2]
  4814 00007D83 83C604                  								 add si,4
  4815 00007D86 81FEB206                								 cmp si,1714
  4816 00007D8A 0F845513                								 je update_di_B2
  4817 00007D8E 8B36[855D]              								 mov si,[CURRENT_POS_B2]
  4818 00007D92 81C69E00                								 add si,158
  4819 00007D96 81FEB206                								 cmp si,1714
  4820 00007D9A 0F844513                								 je update_di_B2
  4821 00007D9E 8B36[855D]              								 mov si,[CURRENT_POS_B2]
  4822 00007DA2 81C6A600                								 add si,166
  4823 00007DA6 81FEB206                								 cmp si,1714
  4824 00007DAA 0F843513                								 je update_di_B2
  4825                                  								 
  4826 00007DAE 813E[855D]8A07          								  cmp word[CURRENT_POS_B2],1930;160;-730
  4827 00007DB4 0F842B13                				                 je  update_di_B2
  4828 00007DB8 8B36[855D]              								 mov si,[CURRENT_POS_B2]
  4829 00007DBC 83C602                  								 add si,2
  4830 00007DBF 81FE8A07                								 cmp si,1930
  4831 00007DC3 0F841C13                								 je update_di_B2
  4832 00007DC7 8B36[855D]              								 mov si,[CURRENT_POS_B2]
  4833 00007DCB 83C604                  								 add si,4
  4834 00007DCE 81FE8A07                								 cmp si,1930
  4835 00007DD2 0F840D13                								 je update_di_B2
  4836 00007DD6 8B36[855D]              								 mov si,[CURRENT_POS_B2]
  4837 00007DDA 81C69E00                								 add si,158
  4838 00007DDE 81FE8A07                								 cmp si,1930
  4839 00007DE2 0F84FD12                								 je update_di_B2
  4840 00007DE6 8B36[855D]              								 mov si,[CURRENT_POS_B2]
  4841 00007DEA 81C6A600                								 add si,166
  4842 00007DEE 81FE8A07                								 cmp si,1930
  4843 00007DF2 0F84ED12                								 je update_di_B2
  4844                                  								 
  4845 00007DF6 813E[855D]8C07          								  cmp word[CURRENT_POS_B2],1932;160;-730
  4846 00007DFC 0F84E312                				                 je  update_di_B2
  4847 00007E00 8B36[855D]              								 mov si,[CURRENT_POS_B2]
  4848 00007E04 83C602                  								 add si,2
  4849 00007E07 81FE8C07                								 cmp si,1932
  4850 00007E0B 0F84D412                								 je update_di_B2
  4851 00007E0F 8B36[855D]              								 mov si,[CURRENT_POS_B2]
  4852 00007E13 83C604                  								 add si,4
  4853 00007E16 81FE8C07                								 cmp si,1932
  4854 00007E1A 0F84C512                								 je update_di_B2
  4855 00007E1E 8B36[855D]              								 mov si,[CURRENT_POS_B2]
  4856 00007E22 81C69E00                								 add si,158
  4857 00007E26 81FE8C07                								 cmp si,1932
  4858 00007E2A 0F84B512                								 je update_di_B2
  4859 00007E2E 8B36[855D]              								 mov si,[CURRENT_POS_B2]
  4860 00007E32 81C6A600                								 add si,166
  4861 00007E36 81FE8C07                								 cmp si,1932
  4862 00007E3A 0F84A512                								 je update_di_B2
  4863                                  								 
  4864 00007E3E 813E[855D]8E07          								  cmp word[CURRENT_POS_B2],1934;160;-730
  4865 00007E44 0F849B12                				                 je  update_di_B2
  4866 00007E48 8B36[855D]              								 mov si,[CURRENT_POS_B2]
  4867 00007E4C 83C602                  								 add si,2
  4868 00007E4F 81FE8E07                								 cmp si,1934
  4869 00007E53 0F848C12                								 je update_di_B2
  4870 00007E57 8B36[855D]              								 mov si,[CURRENT_POS_B2]
  4871 00007E5B 83C604                  								 add si,4
  4872 00007E5E 81FE8E07                								 cmp si,1934
  4873 00007E62 0F847D12                								 je update_di_B2
  4874 00007E66 8B36[855D]              								 mov si,[CURRENT_POS_B2]
  4875 00007E6A 81C69E00                								 add si,158
  4876 00007E6E 81FE8E07                								 cmp si,1934
  4877 00007E72 0F846D12                								 je update_di_B2
  4878 00007E76 8B36[855D]              								 mov si,[CURRENT_POS_B2]
  4879 00007E7A 81C6A600                								 add si,166
  4880 00007E7E 81FE8E07                								 cmp si,1934
  4881 00007E82 0F845D12                								 je update_di_B2
  4882                                  								 
  4883 00007E86 813E[855D]9007          								  cmp word[CURRENT_POS_B2],1936;160;-730
  4884 00007E8C 0F845312                				                 je  update_di_B2
  4885 00007E90 8B36[855D]              								 mov si,[CURRENT_POS_B2]
  4886 00007E94 83C602                  								 add si,2
  4887 00007E97 81FE9007                								 cmp si,1936
  4888 00007E9B 0F844412                								 je update_di_B2
  4889 00007E9F 8B36[855D]              								 mov si,[CURRENT_POS_B2]
  4890 00007EA3 83C604                  								 add si,4
  4891 00007EA6 81FE9007                								 cmp si,1936
  4892 00007EAA 0F843512                								 je update_di_B2
  4893 00007EAE 8B36[855D]              								 mov si,[CURRENT_POS_B2]
  4894 00007EB2 81C69E00                								 add si,158
  4895 00007EB6 81FE9007                								 cmp si,1936
  4896 00007EBA 0F842512                								 je update_di_B2
  4897 00007EBE 8B36[855D]              								 mov si,[CURRENT_POS_B2]
  4898 00007EC2 81C6A600                								 add si,166
  4899 00007EC6 81FE9007                								 cmp si,1936
  4900 00007ECA 0F841512                								 je update_di_B2
  4901                                  								 
  4902 00007ECE 813E[855D]9207          								  cmp word[CURRENT_POS_B2],1938;160;-730
  4903 00007ED4 0F840B12                				                 je  update_di_B2
  4904 00007ED8 8B36[855D]              								 mov si,[CURRENT_POS_B2]
  4905 00007EDC 83C602                  								 add si,2
  4906 00007EDF 81FE9207                								 cmp si,1938
  4907 00007EE3 0F84FC11                								 je update_di_B2
  4908 00007EE7 8B36[855D]              								 mov si,[CURRENT_POS_B2]
  4909 00007EEB 83C604                  								 add si,4
  4910 00007EEE 81FE9207                								 cmp si,1938
  4911 00007EF2 0F84ED11                								 je update_di_B2
  4912 00007EF6 8B36[855D]              								 mov si,[CURRENT_POS_B2]
  4913 00007EFA 81C69E00                								 add si,158
  4914 00007EFE 81FE9207                								 cmp si,1938
  4915 00007F02 0F84DD11                								 je update_di_B2
  4916 00007F06 8B36[855D]              								 mov si,[CURRENT_POS_B2]
  4917 00007F0A 81C6A600                								 add si,166
  4918 00007F0E 81FE9207                								 cmp si,1938
  4919 00007F12 0F84CD11                								 je update_di_B2
  4920                                  								 
  4921 00007F16 813E[855D]9407          								 cmp word[CURRENT_POS_B2],1940;160;-730
  4922 00007F1C 0F84C311                				                 je  update_di_B2
  4923 00007F20 8B36[855D]              								 mov si,[CURRENT_POS_B2]
  4924 00007F24 83C602                  								 add si,2
  4925 00007F27 81FE9407                								 cmp si,1940
  4926 00007F2B 0F84B411                								 je update_di_B2
  4927 00007F2F 8B36[855D]              								 mov si,[CURRENT_POS_B2]
  4928 00007F33 83C604                  								 add si,4
  4929 00007F36 81FE9407                								 cmp si,1940
  4930 00007F3A 0F84A511                								 je update_di_B2
  4931 00007F3E 8B36[855D]              								 mov si,[CURRENT_POS_B2]
  4932 00007F42 81C69E00                								 add si,158
  4933 00007F46 81FE9407                								 cmp si,1940
  4934 00007F4A 0F849511                								 je update_di_B2
  4935 00007F4E 8B36[855D]              								 mov si,[CURRENT_POS_B2]
  4936 00007F52 81C6A600                								 add si,166
  4937 00007F56 81FE9407                								 cmp si,1940
  4938 00007F5A 0F848511                								 je update_di_B2
  4939                                  								 
  4940 00007F5E 813E[855D]D809          								  cmp word[CURRENT_POS_B2],2520;160;-730
  4941 00007F64 0F847B11                				                 je  update_di_B2
  4942 00007F68 8B36[855D]              								 mov si,[CURRENT_POS_B2]
  4943 00007F6C 83C602                  								 add si,2
  4944 00007F6F 81FED809                								 cmp si,2520
  4945 00007F73 0F846C11                								 je update_di_B2
  4946 00007F77 8B36[855D]              								 mov si,[CURRENT_POS_B2]
  4947 00007F7B 83C604                  								 add si,4
  4948 00007F7E 81FED809                								 cmp si,2520
  4949 00007F82 0F845D11                								 je update_di_B2
  4950 00007F86 8B36[855D]              								 mov si,[CURRENT_POS_B2]
  4951 00007F8A 81C69E00                								 add si,158
  4952 00007F8E 81FED809                								 cmp si,2520
  4953 00007F92 0F844D11                								 je update_di_B2
  4954 00007F96 8B36[855D]              								 mov si,[CURRENT_POS_B2]
  4955 00007F9A 81C6A600                								 add si,166
  4956 00007F9E 81FED809                								 cmp si,2520
  4957 00007FA2 0F843D11                								 je update_di_B2
  4958                                  								 
  4959 00007FA6 813E[855D]DA09          								  cmp word[CURRENT_POS_B2],2522;160;-730
  4960 00007FAC 0F843311                				                 je  update_di_B2
  4961 00007FB0 8B36[855D]              								 mov si,[CURRENT_POS_B2]
  4962 00007FB4 83C602                  								 add si,2
  4963 00007FB7 81FEDA09                								 cmp si,2522
  4964 00007FBB 0F842411                								 je update_di_B2
  4965 00007FBF 8B36[855D]              								 mov si,[CURRENT_POS_B2]
  4966 00007FC3 83C604                  								 add si,4
  4967 00007FC6 81FEDA09                								 cmp si,2522
  4968 00007FCA 0F841511                								 je update_di_B2
  4969 00007FCE 8B36[855D]              								 mov si,[CURRENT_POS_B2]
  4970 00007FD2 81C69E00                								 add si,158
  4971 00007FD6 81FEDA09                								 cmp si,2522
  4972 00007FDA 0F840511                								 je update_di_B2
  4973 00007FDE 8B36[855D]              								 mov si,[CURRENT_POS_B2]
  4974 00007FE2 81C6A600                								 add si,166
  4975 00007FE6 81FEDA09                								 cmp si,2522
  4976 00007FEA 0F84F510                								 je update_di_B2
  4977                                  								 
  4978 00007FEE 813E[855D]DC09          								  cmp word[CURRENT_POS_B2],2524;160;-730
  4979 00007FF4 0F84EB10                				                 je  update_di_B2
  4980 00007FF8 8B36[855D]              								 mov si,[CURRENT_POS_B2]
  4981 00007FFC 83C602                  								 add si,2
  4982 00007FFF 81FEDC09                								 cmp si,2524
  4983 00008003 0F84DC10                								 je update_di_B2
  4984 00008007 8B36[855D]              								 mov si,[CURRENT_POS_B2]
  4985 0000800B 83C604                  								 add si,4
  4986 0000800E 81FEDC09                								 cmp si,2524
  4987 00008012 0F84CD10                								 je update_di_B2
  4988 00008016 8B36[855D]              								 mov si,[CURRENT_POS_B2]
  4989 0000801A 81C69E00                								 add si,158
  4990 0000801E 81FEDC09                								 cmp si,2524
  4991 00008022 0F84BD10                								 je update_di_B2
  4992 00008026 8B36[855D]              								 mov si,[CURRENT_POS_B2]
  4993 0000802A 81C6A600                								 add si,166
  4994 0000802E 81FEDC09                								 cmp si,2524
  4995 00008032 0F84AD10                								 je update_di_B2
  4996                                  								 
  4997 00008036 813E[855D]DE09          								  cmp word[CURRENT_POS_B2],2526;160;-730
  4998 0000803C 0F84A310                				                 je  update_di_B2
  4999 00008040 8B36[855D]              								 mov si,[CURRENT_POS_B2]
  5000 00008044 83C602                  								 add si,2
  5001 00008047 81FEDE09                								 cmp si,2526
  5002 0000804B 0F849410                								 je update_di_B2
  5003 0000804F 8B36[855D]              								 mov si,[CURRENT_POS_B2]
  5004 00008053 83C604                  								 add si,4
  5005 00008056 81FEDE09                								 cmp si,2526
  5006 0000805A 0F848510                								 je update_di_B2
  5007 0000805E 8B36[855D]              								 mov si,[CURRENT_POS_B2]
  5008 00008062 81C69E00                								 add si,158
  5009 00008066 81FEDE09                								 cmp si,2526
  5010 0000806A 0F847510                								 je update_di_B2
  5011 0000806E 8B36[855D]              								 mov si,[CURRENT_POS_B2]
  5012 00008072 81C6A600                								 add si,166
  5013 00008076 81FEDE09                								 cmp si,2526
  5014 0000807A 0F846510                								 je update_di_B2
  5015                                  								 
  5016 0000807E 813E[855D]E009          								  cmp word[CURRENT_POS_B2],2528;160;-730
  5017 00008084 0F845B10                				                 je  update_di_B2
  5018 00008088 8B36[855D]              								 mov si,[CURRENT_POS_B2]
  5019 0000808C 83C602                  								 add si,2
  5020 0000808F 81FEE009                								 cmp si,2528
  5021 00008093 0F844C10                								 je update_di_B2
  5022 00008097 8B36[855D]              								 mov si,[CURRENT_POS_B2]
  5023 0000809B 83C604                  								 add si,4
  5024 0000809E 81FEE009                								 cmp si,2528
  5025 000080A2 0F843D10                								 je update_di_B2
  5026 000080A6 8B36[855D]              								 mov si,[CURRENT_POS_B2]
  5027 000080AA 81C69E00                								 add si,158
  5028 000080AE 81FEE009                								 cmp si,2528
  5029 000080B2 0F842D10                								 je update_di_B2
  5030 000080B6 8B36[855D]              								 mov si,[CURRENT_POS_B2]
  5031 000080BA 81C6A600                								 add si,166
  5032 000080BE 81FEE009                								 cmp si,2528
  5033 000080C2 0F841D10                								 je update_di_B2
  5034                                  								 
  5035 000080C6 813E[855D]E209          								 cmp word[CURRENT_POS_B2],2530;160;-730
  5036 000080CC 0F841310                				                 je  update_di_B2
  5037 000080D0 8B36[855D]              								 mov si,[CURRENT_POS_B2]
  5038 000080D4 83C602                  								 add si,2
  5039 000080D7 81FEE209                								 cmp si,2530
  5040 000080DB 0F840410                								 je update_di_B2
  5041 000080DF 8B36[855D]              								 mov si,[CURRENT_POS_B2]
  5042 000080E3 83C604                  								 add si,4
  5043 000080E6 81FEE209                								 cmp si,2530
  5044 000080EA 0F84F50F                								 je update_di_B2
  5045 000080EE 8B36[855D]              								 mov si,[CURRENT_POS_B2]
  5046 000080F2 81C69E00                								 add si,158
  5047 000080F6 81FEE209                								 cmp si,2530
  5048 000080FA 0F84E50F                								 je update_di_B2
  5049 000080FE 8B36[855D]              								 mov si,[CURRENT_POS_B2]
  5050 00008102 81C6A600                								 add si,166
  5051 00008106 81FEE209                								 cmp si,2530
  5052 0000810A 0F84D50F                								 je update_di_B2
  5053                                  								 
  5054 0000810E 833E[875D]12            				                cmp word[CURRENT_POS_B3],18;160;-730
  5055 00008113 0F8CCE10                				                 jl  update_di_B3
  5056 00008117 833E[875D]00            				                 cmp word[CURRENT_POS_B3],0;160;-730
  5057 0000811C 0F8CC510                				                 jl  update_di_B3
  5058 00008120 8B36[875D]              								 mov si, [CURRENT_POS_B3]
  5059 00008124 83C606                  								add si,6
  5060 00008127 81FE2401                								 cmp si,292;160;-730
  5061 0000812B 0F8EB610                				                               jle  update_di_B3
  5062 0000812F 813E[875D]8600          								 				cmp word[CURRENT_POS_B3],134;160;-730
  5063 00008135 0F84AC10                				                               je  update_di_B3
  5064 00008139 813E[875D]8C00                                                          cmp word[CURRENT_POS_B3],140;160;-730
  5065 0000813F 0F84A210                				                               je  update_di_B3
  5066 00008143 813E[875D]8E00          											   cmp word[CURRENT_POS_B3],142;160;-730
  5067 00008149 0F849810                				                               je  update_di_B3
  5068 0000814D 813E[875D]9000          											   cmp word[CURRENT_POS_B3],144;160;-730
  5069 00008153 0F848E10                				                               je  update_di_B3
  5070 00008157 813E[875D]9200          											   cmp word[CURRENT_POS_B3],146;160;-730
  5071 0000815D 0F848410                				                               je  update_di_B3
  5072 00008161 813E[875D]9400          											   cmp word[CURRENT_POS_B3],148;160;-730
  5073 00008167 0F847A10                				                               je  update_di_B3
  5074 0000816B 813E[875D]9600          											   cmp word[CURRENT_POS_B3],150;160;-730
  5075 00008171 0F847010                				                               je  update_di_B3
  5076 00008175 813E[875D]9800          											   cmp word[CURRENT_POS_B3],152;160;-730
  5077 0000817B 0F846610                				                               je  update_di_B3
  5078 0000817F 813E[875D]9A00          											   cmp word[CURRENT_POS_B3],154;160;-730
  5079 00008185 0F845C10                				                               je  update_di_B3
  5080 00008189 813E[875D]9C00          											   cmp word[CURRENT_POS_B3],156;160;-730
  5081 0000818F 0F845210                				                               je  update_di_B3
  5082 00008193 813E[875D]9E00          											   cmp word[CURRENT_POS_B3],158;160;-730
  5083 00008199 0F844810                				                               je  update_di_B3
  5084                                  								 
  5085 0000819D 8B36[875D]              								 mov si,[CURRENT_POS_B3]
  5086 000081A1 83EE04                  								 sub si,4
  5087 000081A4 81FE4403                								 cmp si,836
  5088 000081A8 0F843910                								 je update_di_B3
  5089                                  								 
  5090 000081AC 8B36[875D]              								 mov si,[CURRENT_POS_B3]
  5091 000081B0 83EE02                  								 sub si,2
  5092 000081B3 81FE4403                								 cmp si,836
  5093 000081B7 0F842A10                								 je update_di_B3
  5094 000081BB 813E[875D]4403          								 cmp word[CURRENT_POS_B3],836;160;-730
  5095 000081C1 0F842010                				                 je  update_di_B3
  5096 000081C5 8B36[875D]              								 mov si,[CURRENT_POS_B3]
  5097 000081C9 83C602                  								 add si,2
  5098 000081CC 81FE4403                								 cmp si,836
  5099 000081D0 0F841110                								 je update_di_B3
  5100 000081D4 8B36[875D]              								 mov si,[CURRENT_POS_B3]
  5101 000081D8 83C604                  								 add si,4
  5102 000081DB 81FE4403                								 cmp si,836
  5103 000081DF 0F840210                								 je update_di_B3
  5104 000081E3 8B36[875D]              								 mov si,[CURRENT_POS_B3]
  5105 000081E7 81C69E00                								 add si,158
  5106 000081EB 81FE4403                								 cmp si,836
  5107 000081EF 0F84F20F                								 je update_di_B3
  5108 000081F3 8B36[875D]              								 mov si,[CURRENT_POS_B3]
  5109 000081F7 81C6A600                								 add si,166
  5110 000081FB 81FE4403                								 cmp si,836
  5111 000081FF 0F84E20F                								 je update_di_B3
  5112                                  								 
  5113 00008203 813E[875D]4603          								  cmp word[CURRENT_POS_B3],838;160;-730
  5114 00008209 0F84D80F                				                 je  update_di_B3
  5115 0000820D 8B36[875D]              								  mov si,[CURRENT_POS_B3]
  5116 00008211 83C602                  								 add si,2
  5117 00008214 81FE4603                								 cmp si,838
  5118 00008218 0F84C90F                								 je update_di_B3
  5119 0000821C 8B36[875D]              								 mov si,[CURRENT_POS_B3]
  5120 00008220 83C604                  								 add si,4
  5121 00008223 81FE4603                								 cmp si,838
  5122 00008227 0F84BA0F                								 je update_di_B3
  5123 0000822B 8B36[875D]              								 mov si,[CURRENT_POS_B3]
  5124 0000822F 81C69E00                								 add si,158
  5125 00008233 81FE4603                								 cmp si,838
  5126 00008237 0F84AA0F                								 je update_di_B3
  5127 0000823B 8B36[875D]              								 mov si,[CURRENT_POS_B3]
  5128 0000823F 81C6A600                								 add si,166
  5129 00008243 81FE4603                								 cmp si,838
  5130 00008247 0F849A0F                								 je update_di_B3
  5131                                  								 
  5132 0000824B 813E[875D]4803          								  cmp word[CURRENT_POS_B3],840;160;-730
  5133 00008251 0F84900F                				                 je  update_di_B3
  5134 00008255 8B36[875D]              								  mov si,[CURRENT_POS_B3]
  5135 00008259 83C602                  								 add si,2
  5136 0000825C 81FE4803                								 cmp si,840
  5137 00008260 0F84810F                								 je update_di_B3
  5138 00008264 8B36[875D]              								 mov si,[CURRENT_POS_B3]
  5139 00008268 83C604                  								 add si,4
  5140 0000826B 81FE4803                								 cmp si,840
  5141 0000826F 0F84720F                								 je update_di_B3
  5142 00008273 8B36[875D]              								 mov si,[CURRENT_POS_B3]
  5143 00008277 81C69E00                								 add si,158
  5144 0000827B 81FE4803                								 cmp si,840
  5145 0000827F 0F84620F                								 je update_di_B3
  5146 00008283 8B36[875D]              								 mov si,[CURRENT_POS_B3]
  5147 00008287 81C6A600                								 add si,166
  5148 0000828B 81FE4803                								 cmp si,840
  5149 0000828F 0F84520F                								 je update_di_B3
  5150                                  								 
  5151 00008293 813E[875D]4A03          								 cmp word[CURRENT_POS_B3],842;160;-730
  5152 00008299 0F84480F                				                 je  update_di_B3
  5153 0000829D 8B36[875D]              								  mov si,[CURRENT_POS_B3]
  5154 000082A1 83C602                  								 add si,2
  5155 000082A4 81FE4A03                								 cmp si,842
  5156 000082A8 0F84390F                								 je update_di_B3
  5157 000082AC 8B36[875D]              								 mov si,[CURRENT_POS_B3]
  5158 000082B0 83C604                  								 add si,4
  5159 000082B3 81FE4A03                								 cmp si,842
  5160 000082B7 0F842A0F                								 je update_di_B3
  5161 000082BB 8B36[875D]              								 mov si,[CURRENT_POS_B3]
  5162 000082BF 81C69E00                								 add si,158
  5163 000082C3 81FE4A03                								 cmp si,842
  5164 000082C7 0F841A0F                								 je update_di_B3
  5165 000082CB 8B36[875D]              								 mov si,[CURRENT_POS_B3]
  5166 000082CF 81C6A600                								 add si,166
  5167 000082D3 81FE4A03                								 cmp si,842
  5168 000082D7 0F840A0F                								 je update_di_B3
  5169                                  								 
  5170 000082DB 813E[875D]4C03          								  cmp word[CURRENT_POS_B3],844;160;-730
  5171 000082E1 0F84000F                				                 je  update_di_B3
  5172 000082E5 8B36[875D]              								  mov si,[CURRENT_POS_B3]
  5173 000082E9 83C602                  								 add si,2
  5174 000082EC 81FE4C03                								 cmp si,844
  5175 000082F0 0F84F10E                								 je update_di_B3
  5176 000082F4 8B36[875D]              								 mov si,[CURRENT_POS_B3]
  5177 000082F8 83C604                  								 add si,4
  5178 000082FB 81FE4C03                								 cmp si,844
  5179 000082FF 0F84E20E                								 je update_di_B3
  5180 00008303 8B36[875D]              								 mov si,[CURRENT_POS_B3]
  5181 00008307 81C69E00                								 add si,158
  5182 0000830B 81FE4C03                								 cmp si,844
  5183 0000830F 0F84D20E                								 je update_di_B3
  5184 00008313 8B36[875D]              								 mov si,[CURRENT_POS_B3]
  5185 00008317 81C6A600                								 add si,166
  5186 0000831B 81FE4C03                								 cmp si,844
  5187 0000831F 0F84C20E                								 je update_di_B3
  5188                                  								 
  5189 00008323 813E[875D]4E03          								 cmp word[CURRENT_POS_B3],846;160;-730
  5190 00008329 0F84B80E                				                 je  update_di_B3
  5191 0000832D 8B36[875D]              								  mov si,[CURRENT_POS_B3]
  5192 00008331 83C602                  								 add si,2
  5193 00008334 81FE4E03                								 cmp si,846
  5194 00008338 0F84A90E                								 je update_di_B3
  5195 0000833C 8B36[875D]              								 mov si,[CURRENT_POS_B3]
  5196 00008340 83C604                  								 add si,4
  5197 00008343 81FE4E03                								 cmp si,846
  5198 00008347 0F849A0E                								 je update_di_B3
  5199 0000834B 8B36[875D]              								 mov si,[CURRENT_POS_B3]
  5200 0000834F 81C69E00                								 add si,158
  5201 00008353 81FE4E03                								 cmp si,846
  5202 00008357 0F848A0E                								 je update_di_B3
  5203 0000835B 8B36[875D]              								 mov si,[CURRENT_POS_B3]
  5204 0000835F 81C6A600                								 add si,166
  5205 00008363 81FE4E03                								 cmp si,846
  5206 00008367 0F847A0E                								 je update_di_B3
  5207                                  								 
  5208 0000836B 813E[875D]A806          								  cmp word[CURRENT_POS_B3],1704;160;-730
  5209 00008371 0F84700E                				                 je  update_di_B3
  5210 00008375 8B36[875D]              								  mov si,[CURRENT_POS_B3]
  5211 00008379 83C602                  								 add si,2
  5212 0000837C 81FEA806                								 cmp si,1704
  5213 00008380 0F84610E                								 je update_di_B3
  5214 00008384 8B36[875D]              								 mov si,[CURRENT_POS_B3]
  5215 00008388 83C604                  								 add si,4
  5216 0000838B 81FEA806                								 cmp si,1704
  5217 0000838F 0F84520E                								 je update_di_B3
  5218 00008393 8B36[875D]              								 mov si,[CURRENT_POS_B3]
  5219 00008397 81C69E00                								 add si,158
  5220 0000839B 81FEA806                								 cmp si,1704
  5221 0000839F 0F84420E                								 je update_di_B3
  5222 000083A3 8B36[875D]              								 mov si,[CURRENT_POS_B3]
  5223 000083A7 81C6A600                								 add si,166
  5224 000083AB 81FEA806                								 cmp si,1704
  5225 000083AF 0F84320E                								 je update_di_B3
  5226                                  								 
  5227 000083B3 813E[875D]AA06          								  cmp word[CURRENT_POS_B3],1706;160;-730
  5228 000083B9 0F84280E                				                 je  update_di_B3
  5229 000083BD 8B36[875D]              								  mov si,[CURRENT_POS_B3]
  5230 000083C1 83C602                  								 add si,2
  5231 000083C4 81FEAA06                								 cmp si,1706
  5232 000083C8 0F84190E                								 je update_di_B3
  5233 000083CC 8B36[875D]              								 mov si,[CURRENT_POS_B3]
  5234 000083D0 83C604                  								 add si,4
  5235 000083D3 81FEAA06                								 cmp si,1706
  5236 000083D7 0F840A0E                								 je update_di_B3
  5237 000083DB 8B36[875D]              								 mov si,[CURRENT_POS_B3]
  5238 000083DF 81C69E00                								 add si,158
  5239 000083E3 81FEAA06                								 cmp si,1706
  5240 000083E7 0F84FA0D                								 je update_di_B3
  5241 000083EB 8B36[875D]              								 mov si,[CURRENT_POS_B3]
  5242 000083EF 81C6A600                								 add si,166
  5243 000083F3 81FEAA06                								 cmp si,1706
  5244 000083F7 0F84EA0D                								 je update_di_B3
  5245                                  								 
  5246 000083FB 813E[875D]AC06          								  cmp word[CURRENT_POS_B3],1708;160;-730
  5247 00008401 0F84E00D                				                 je  update_di_B3
  5248 00008405 8B36[875D]              								  mov si,[CURRENT_POS_B3]
  5249 00008409 83C602                  								 add si,2
  5250 0000840C 81FEAC06                								 cmp si,1708
  5251 00008410 0F84D10D                								 je update_di_B3
  5252 00008414 8B36[875D]              								 mov si,[CURRENT_POS_B3]
  5253 00008418 83C604                  								 add si,4
  5254 0000841B 81FEAC06                								 cmp si,1708
  5255 0000841F 0F84C20D                								 je update_di_B3
  5256 00008423 8B36[875D]              								 mov si,[CURRENT_POS_B3]
  5257 00008427 81C69E00                								 add si,158
  5258 0000842B 81FEAC06                								 cmp si,1708
  5259 0000842F 0F84B20D                								 je update_di_B3
  5260 00008433 8B36[875D]              								 mov si,[CURRENT_POS_B3]
  5261 00008437 81C6A600                								 add si,166
  5262 0000843B 81FEAC06                								 cmp si,1708
  5263 0000843F 0F84A20D                								 je update_di_B3
  5264                                  								 
  5265 00008443 813E[875D]AE06          								  cmp word[CURRENT_POS_B3],1710;160;-730
  5266 00008449 0F84980D                				                 je  update_di_B3
  5267 0000844D 8B36[875D]              								  mov si,[CURRENT_POS_B3]
  5268 00008451 83C602                  								 add si,2
  5269 00008454 81FEAE06                								 cmp si,1710
  5270 00008458 0F84890D                								 je update_di_B3
  5271 0000845C 8B36[875D]              								 mov si,[CURRENT_POS_B3]
  5272 00008460 83C604                  								 add si,4
  5273 00008463 81FEAE06                								 cmp si,1710
  5274 00008467 0F847A0D                								 je update_di_B3
  5275 0000846B 8B36[875D]              								 mov si,[CURRENT_POS_B3]
  5276 0000846F 81C69E00                								 add si,158
  5277 00008473 81FEAE06                								 cmp si,1710
  5278 00008477 0F846A0D                								 je update_di_B3
  5279 0000847B 8B36[875D]              								 mov si,[CURRENT_POS_B3]
  5280 0000847F 81C6A600                								 add si,166
  5281 00008483 81FEAE06                								 cmp si,1710
  5282 00008487 0F845A0D                								 je update_di_B3
  5283                                  								 
  5284 0000848B 813E[875D]B006          								  cmp word[CURRENT_POS_B3],1712;160;-730
  5285 00008491 0F84500D                				                 je  update_di_B3
  5286 00008495 8B36[875D]              								  mov si,[CURRENT_POS_B3]
  5287 00008499 83C602                  								 add si,2
  5288 0000849C 81FEB006                								 cmp si,1712
  5289 000084A0 0F84410D                								 je update_di_B3
  5290 000084A4 8B36[875D]              								 mov si,[CURRENT_POS_B3]
  5291 000084A8 83C604                  								 add si,4
  5292 000084AB 81FEB006                								 cmp si,1712
  5293 000084AF 0F84320D                								 je update_di_B3
  5294 000084B3 8B36[875D]              								 mov si,[CURRENT_POS_B3]
  5295 000084B7 81C69E00                								 add si,158
  5296 000084BB 81FEB006                								 cmp si,1712
  5297 000084BF 0F84220D                								 je update_di_B3
  5298 000084C3 8B36[875D]              								 mov si,[CURRENT_POS_B3]
  5299 000084C7 81C6A600                								 add si,166
  5300 000084CB 81FEB006                								 cmp si,1712
  5301 000084CF 0F84120D                								 je update_di_B3
  5302                                  								 
  5303 000084D3 813E[875D]B206          								 cmp word[CURRENT_POS_B3],1714;160;-730
  5304 000084D9 0F84080D                				                 je  update_di_B3
  5305 000084DD 8B36[875D]              								  mov si,[CURRENT_POS_B3]
  5306 000084E1 83C602                  								 add si,2
  5307 000084E4 81FEB206                								 cmp si,1714
  5308 000084E8 0F84F90C                								 je update_di_B3
  5309 000084EC 8B36[875D]              								 mov si,[CURRENT_POS_B3]
  5310 000084F0 83C604                  								 add si,4
  5311 000084F3 81FEB206                								 cmp si,1714
  5312 000084F7 0F84EA0C                								 je update_di_B3
  5313 000084FB 8B36[875D]              								 mov si,[CURRENT_POS_B3]
  5314 000084FF 81C69E00                								 add si,158
  5315 00008503 81FEB206                								 cmp si,1714
  5316 00008507 0F84DA0C                								 je update_di_B3
  5317 0000850B 8B36[875D]              								 mov si,[CURRENT_POS_B3]
  5318 0000850F 81C6A600                								 add si,166
  5319 00008513 81FEB206                								 cmp si,1714
  5320 00008517 0F84CA0C                								 je update_di_B3
  5321                                  								 
  5322 0000851B 813E[875D]8A07          								  cmp word[CURRENT_POS_B3],1930;160;-730
  5323 00008521 0F84C00C                				                 je  update_di_B3
  5324 00008525 8B36[875D]              								  mov si,[CURRENT_POS_B3]
  5325 00008529 83C602                  								 add si,2
  5326 0000852C 81FE8A07                								 cmp si,1930
  5327 00008530 0F84B10C                								 je update_di_B3
  5328 00008534 8B36[875D]              								 mov si,[CURRENT_POS_B3]
  5329 00008538 83C604                  								 add si,4
  5330 0000853B 81FE8A07                								 cmp si,1930
  5331 0000853F 0F84A20C                								 je update_di_B3
  5332 00008543 8B36[875D]              								 mov si,[CURRENT_POS_B3]
  5333 00008547 81C69E00                								 add si,158
  5334 0000854B 81FE8A07                								 cmp si,1930
  5335 0000854F 0F84920C                								 je update_di_B3
  5336 00008553 8B36[875D]              								 mov si,[CURRENT_POS_B3]
  5337 00008557 81C6A600                								 add si,166
  5338 0000855B 81FE8A07                								 cmp si,1930
  5339 0000855F 0F84820C                								 je update_di_B3
  5340                                  								 
  5341 00008563 813E[875D]8C07          								  cmp word[CURRENT_POS_B3],1932;160;-730
  5342 00008569 0F84780C                				                 je  update_di_B3
  5343 0000856D 8B36[875D]              								  mov si,[CURRENT_POS_B3]
  5344 00008571 83C602                  								 add si,2
  5345 00008574 81FE8C07                								 cmp si,1932
  5346 00008578 0F84690C                								 je update_di_B3
  5347 0000857C 8B36[875D]              								 mov si,[CURRENT_POS_B3]
  5348 00008580 83C604                  								 add si,4
  5349 00008583 81FE8C07                								 cmp si,1932
  5350 00008587 0F845A0C                								 je update_di_B3
  5351 0000858B 8B36[875D]              								 mov si,[CURRENT_POS_B3]
  5352 0000858F 81C69E00                								 add si,158
  5353 00008593 81FE8C07                								 cmp si,1932
  5354 00008597 0F844A0C                								 je update_di_B3
  5355 0000859B 8B36[875D]              								 mov si,[CURRENT_POS_B3]
  5356 0000859F 81C6A600                								 add si,166
  5357 000085A3 81FE8C07                								 cmp si,1932
  5358 000085A7 0F843A0C                								 je update_di_B3
  5359                                  								 
  5360 000085AB 813E[875D]8E07          								  cmp word[CURRENT_POS_B3],1934;160;-730
  5361 000085B1 0F84300C                				                 je  update_di_B3
  5362 000085B5 8B36[875D]              								  mov si,[CURRENT_POS_B3]
  5363 000085B9 83C602                  								 add si,2
  5364 000085BC 81FE8E07                								 cmp si,1934
  5365 000085C0 0F84210C                								 je update_di_B3
  5366 000085C4 8B36[875D]              								 mov si,[CURRENT_POS_B3]
  5367 000085C8 83C604                  								 add si,4
  5368 000085CB 81FE8E07                								 cmp si,1934
  5369 000085CF 0F84120C                								 je update_di_B3
  5370 000085D3 8B36[875D]              								 mov si,[CURRENT_POS_B3]
  5371 000085D7 81C69E00                								 add si,158
  5372 000085DB 81FE8E07                								 cmp si,1934
  5373 000085DF 0F84020C                								 je update_di_B3
  5374 000085E3 8B36[875D]              								 mov si,[CURRENT_POS_B3]
  5375 000085E7 81C6A600                								 add si,166
  5376 000085EB 81FE8E07                								 cmp si,1934
  5377 000085EF 0F84F20B                								 je update_di_B3
  5378                                  								 
  5379 000085F3 813E[875D]9007          								  cmp word[CURRENT_POS_B3],1936;160;-730
  5380 000085F9 0F84E80B                				                 je  update_di_B3
  5381 000085FD 8B36[875D]              								  mov si,[CURRENT_POS_B3]
  5382 00008601 83C602                  								 add si,2
  5383 00008604 81FE9007                								 cmp si,1936
  5384 00008608 0F84D90B                								 je update_di_B3
  5385 0000860C 8B36[875D]              								 mov si,[CURRENT_POS_B3]
  5386 00008610 83C604                  								 add si,4
  5387 00008613 81FE9007                								 cmp si,1936
  5388 00008617 0F84CA0B                								 je update_di_B3
  5389 0000861B 8B36[875D]              								 mov si,[CURRENT_POS_B3]
  5390 0000861F 81C69E00                								 add si,158
  5391 00008623 81FE9007                								 cmp si,1936
  5392 00008627 0F84BA0B                								 je update_di_B3
  5393 0000862B 8B36[875D]              								 mov si,[CURRENT_POS_B3]
  5394 0000862F 81C6A600                								 add si,166
  5395 00008633 81FE9007                								 cmp si,1936
  5396 00008637 0F84AA0B                								 je update_di_B3
  5397                                  								 
  5398 0000863B 813E[875D]9207          								  cmp word[CURRENT_POS_B3],1938;160;-730
  5399 00008641 0F84A00B                				                 je  update_di_B3
  5400 00008645 8B36[875D]              								  mov si,[CURRENT_POS_B3]
  5401 00008649 83C602                  								 add si,2
  5402 0000864C 81FE9207                								 cmp si,1938
  5403 00008650 0F84910B                								 je update_di_B3
  5404 00008654 8B36[875D]              								 mov si,[CURRENT_POS_B3]
  5405 00008658 83C604                  								 add si,4
  5406 0000865B 81FE9207                								 cmp si,1938
  5407 0000865F 0F84820B                								 je update_di_B3
  5408 00008663 8B36[875D]              								 mov si,[CURRENT_POS_B3]
  5409 00008667 81C69E00                								 add si,158
  5410 0000866B 81FE9207                								 cmp si,1938
  5411 0000866F 0F84720B                								 je update_di_B3
  5412 00008673 8B36[875D]              								 mov si,[CURRENT_POS_B3]
  5413 00008677 81C6A600                								 add si,166
  5414 0000867B 81FE9207                								 cmp si,1938
  5415 0000867F 0F84620B                								 je update_di_B3
  5416                                  								 
  5417 00008683 813E[875D]9407          								 cmp word[CURRENT_POS_B3],1940;160;-730
  5418 00008689 0F84580B                				                 je  update_di_B3
  5419 0000868D 8B36[875D]              								  mov si,[CURRENT_POS_B3]
  5420 00008691 83C602                  								 add si,2
  5421 00008694 81FE9407                								 cmp si,1940
  5422 00008698 0F84490B                								 je update_di_B3
  5423 0000869C 8B36[875D]              								 mov si,[CURRENT_POS_B3]
  5424 000086A0 83C604                  								 add si,4
  5425 000086A3 81FE9407                								 cmp si,1940
  5426 000086A7 0F843A0B                								 je update_di_B3
  5427 000086AB 8B36[875D]              								 mov si,[CURRENT_POS_B3]
  5428 000086AF 81C69E00                								 add si,158
  5429 000086B3 81FE9407                								 cmp si,1940
  5430 000086B7 0F842A0B                								 je update_di_B3
  5431 000086BB 8B36[875D]              								 mov si,[CURRENT_POS_B3]
  5432 000086BF 81C6A600                								 add si,166
  5433 000086C3 81FE9407                								 cmp si,1940
  5434 000086C7 0F841A0B                								 je update_di_B3
  5435                                  								 
  5436 000086CB 813E[875D]D809          								  cmp word[CURRENT_POS_B3],2520;160;-730
  5437 000086D1 0F84100B                				                 je  update_di_B3
  5438 000086D5 8B36[875D]              								  mov si,[CURRENT_POS_B3]
  5439 000086D9 83C602                  								 add si,2
  5440 000086DC 81FED809                								 cmp si,2520
  5441 000086E0 0F84010B                								 je update_di_B3
  5442 000086E4 8B36[875D]              								 mov si,[CURRENT_POS_B3]
  5443 000086E8 83C604                  								 add si,4
  5444 000086EB 81FED809                								 cmp si,2520
  5445 000086EF 0F84F20A                								 je update_di_B3
  5446 000086F3 8B36[875D]              								 mov si,[CURRENT_POS_B3]
  5447 000086F7 81C69E00                								 add si,158
  5448 000086FB 81FED809                								 cmp si,2520
  5449 000086FF 0F84E20A                								 je update_di_B3
  5450 00008703 8B36[875D]              								 mov si,[CURRENT_POS_B3]
  5451 00008707 81C6A600                								 add si,166
  5452 0000870B 81FED809                								 cmp si,2520
  5453 0000870F 0F84D20A                								 je update_di_B3
  5454                                  								 
  5455 00008713 813E[875D]DA09          								  cmp word[CURRENT_POS_B3],2522;160;-730
  5456 00008719 0F84C80A                				                 je  update_di_B3
  5457 0000871D 8B36[875D]              								  mov si,[CURRENT_POS_B3]
  5458 00008721 83C602                  								 add si,2
  5459 00008724 81FEDA09                								 cmp si,2522
  5460 00008728 0F84B90A                								 je update_di_B3
  5461 0000872C 8B36[875D]              								 mov si,[CURRENT_POS_B3]
  5462 00008730 83C604                  								 add si,4
  5463 00008733 81FEDA09                								 cmp si,2522
  5464 00008737 0F84AA0A                								 je update_di_B3
  5465 0000873B 8B36[875D]              								 mov si,[CURRENT_POS_B3]
  5466 0000873F 81C69E00                								 add si,158
  5467 00008743 81FEDA09                								 cmp si,2522
  5468 00008747 0F849A0A                								 je update_di_B3
  5469 0000874B 8B36[875D]              								 mov si,[CURRENT_POS_B3]
  5470 0000874F 81C6A600                								 add si,166
  5471 00008753 81FEDA09                								 cmp si,2522
  5472 00008757 0F848A0A                								 je update_di_B3
  5473                                  								 
  5474 0000875B 813E[875D]DC09          								  cmp word[CURRENT_POS_B3],2524;160;-730
  5475 00008761 0F84800A                				                 je  update_di_B3
  5476 00008765 8B36[875D]              								  mov si,[CURRENT_POS_B3]
  5477 00008769 83C602                  								 add si,2
  5478 0000876C 81FEDC09                								 cmp si,2524
  5479 00008770 0F84710A                								 je update_di_B3
  5480 00008774 8B36[875D]              								 mov si,[CURRENT_POS_B3]
  5481 00008778 83C604                  								 add si,4
  5482 0000877B 81FEDC09                								 cmp si,2524
  5483 0000877F 0F84620A                								 je update_di_B3
  5484 00008783 8B36[875D]              								 mov si,[CURRENT_POS_B3]
  5485 00008787 81C69E00                								 add si,158
  5486 0000878B 81FEDC09                								 cmp si,2524
  5487 0000878F 0F84520A                								 je update_di_B3
  5488 00008793 8B36[875D]              								 mov si,[CURRENT_POS_B3]
  5489 00008797 81C6A600                								 add si,166
  5490 0000879B 81FEDC09                								 cmp si,2524
  5491 0000879F 0F84420A                								 je update_di_B3
  5492                                  								 
  5493 000087A3 813E[875D]DE09          								  cmp word[CURRENT_POS_B3],2526;160;-730
  5494 000087A9 0F84380A                				                 je  update_di_B3
  5495 000087AD 8B36[875D]              								  mov si,[CURRENT_POS_B3]
  5496 000087B1 83C602                  								 add si,2
  5497 000087B4 81FEDE09                								 cmp si,2526
  5498 000087B8 0F84290A                								 je update_di_B3
  5499 000087BC 8B36[875D]              								 mov si,[CURRENT_POS_B3]
  5500 000087C0 83C604                  								 add si,4
  5501 000087C3 81FEDE09                								 cmp si,2526
  5502 000087C7 0F841A0A                								 je update_di_B3
  5503 000087CB 8B36[875D]              								 mov si,[CURRENT_POS_B3]
  5504 000087CF 81C69E00                								 add si,158
  5505 000087D3 81FEDE09                								 cmp si,2526
  5506 000087D7 0F840A0A                								 je update_di_B3
  5507 000087DB 8B36[875D]              								 mov si,[CURRENT_POS_B3]
  5508 000087DF 81C6A600                								 add si,166
  5509 000087E3 81FEDE09                								 cmp si,2526
  5510 000087E7 0F84FA09                								 je update_di_B3
  5511                                  								 
  5512 000087EB 813E[875D]E009          								  cmp word[CURRENT_POS_B3],2528;160;-730
  5513 000087F1 0F84F009                				                 je  update_di_B3
  5514 000087F5 8B36[875D]              								  mov si,[CURRENT_POS_B3]
  5515 000087F9 83C602                  								 add si,2
  5516 000087FC 81FEE009                								 cmp si,2528
  5517 00008800 0F84E109                								 je update_di_B3
  5518 00008804 8B36[875D]              								 mov si,[CURRENT_POS_B3]
  5519 00008808 83C604                  								 add si,4
  5520 0000880B 81FEE009                								 cmp si,2528
  5521 0000880F 0F84D209                								 je update_di_B3
  5522 00008813 8B36[875D]              								 mov si,[CURRENT_POS_B3]
  5523 00008817 81C69E00                								 add si,158
  5524 0000881B 81FEE009                								 cmp si,2528
  5525 0000881F 0F84C209                								 je update_di_B3
  5526 00008823 8B36[875D]              								 mov si,[CURRENT_POS_B3]
  5527 00008827 81C6A600                								 add si,166
  5528 0000882B 81FEE009                								 cmp si,2528
  5529 0000882F 0F84B209                								 je update_di_B3
  5530                                  								 
  5531 00008833 813E[875D]E209          								 cmp word[CURRENT_POS_B3],2530;160;-730
  5532 00008839 0F84A809                				                 je  update_di_B3
  5533 0000883D 8B36[875D]              								  mov si,[CURRENT_POS_B3]
  5534 00008841 83C602                  								 add si,2
  5535 00008844 81FEE209                								 cmp si,2530
  5536 00008848 0F849909                								 je update_di_B3
  5537 0000884C 8B36[875D]              								 mov si,[CURRENT_POS_B3]
  5538 00008850 83C604                  								 add si,4
  5539 00008853 81FEE209                								 cmp si,2530
  5540 00008857 0F848A09                								 je update_di_B3
  5541 0000885B 8B36[875D]              								 mov si,[CURRENT_POS_B3]
  5542 0000885F 81C69E00                								 add si,158
  5543 00008863 81FEE209                								 cmp si,2530
  5544 00008867 0F847A09                								 je update_di_B3
  5545 0000886B 8B36[875D]              								 mov si,[CURRENT_POS_B3]
  5546 0000886F 81C6A600                								 add si,166
  5547 00008873 81FEE209                								 cmp si,2530
  5548 00008877 0F846A09                								 je update_di_B3
  5549                                  								 
  5550 0000887B 833E[895D]12                                              cmp word[CURRENT_POS_B4],18;160;-730
  5551 00008880 0F8C630A                				                 jl  update_di_B4
  5552 00008884 833E[895D]00            				                 cmp word[CURRENT_POS_B4],0;160;-730
  5553 00008889 0F8C5A0A                				                 jl  update_di_B4
  5554 0000888D 8B36[895D]              								mov si, [CURRENT_POS_B4]
  5555 00008891 83C606                  								add si,6
  5556 00008894 81FE2401                								 cmp si,292;160;-730
  5557 00008898 0F8E4B0A                				                               jle  update_di_B4
  5558 0000889C 813E[895D]8C00                                                          cmp word[CURRENT_POS_B4],140;160;-730
  5559 000088A2 0F84410A                				                               je  update_di_B4
  5560 000088A6 813E[895D]8E00          											   cmp word[CURRENT_POS_B4],142;160;-730
  5561 000088AC 0F84370A                				                               je  update_di_B4
  5562 000088B0 813E[895D]9000          											   cmp word[CURRENT_POS_B4],144;160;-730
  5563 000088B6 0F842D0A                				                               je  update_di_B4
  5564 000088BA 813E[895D]9200          											   cmp word[CURRENT_POS_B4],146;160;-730
  5565 000088C0 0F84230A                				                               je  update_di_B4
  5566 000088C4 813E[895D]9400          											   cmp word[CURRENT_POS_B4],148;160;-730
  5567 000088CA 0F84190A                				                               je  update_di_B4
  5568 000088CE 813E[895D]9600          											   cmp word[CURRENT_POS_B4],150;160;-730
  5569 000088D4 0F840F0A                				                               je  update_di_B4
  5570 000088D8 813E[895D]9800          											   cmp word[CURRENT_POS_B4],152;160;-730
  5571 000088DE 0F84050A                				                               je  update_di_B4
  5572 000088E2 813E[895D]9A00          											   cmp word[CURRENT_POS_B4],154;160;-730
  5573 000088E8 0F84FB09                				                               je  update_di_B4
  5574 000088EC 813E[895D]9C00          											   cmp word[CURRENT_POS_B4],156;160;-730
  5575 000088F2 0F84F109                				                               je  update_di_B4
  5576 000088F6 813E[895D]9E00          											   cmp word[CURRENT_POS_B4],158;160;-730
  5577 000088FC 0F84E709                				                               je  update_di_B4
  5578                                  								 
  5579 00008900 8B36[895D]              								  mov si,[CURRENT_POS_B4]
  5580 00008904 83EE04                  								 sub si,4
  5581 00008907 81FE4403                								 cmp si,836
  5582 0000890B 0F84D809                								 je update_di_B4
  5583                                  								 
  5584 0000890F 8B36[895D]              							     mov si,[CURRENT_POS_B4]
  5585 00008913 83EE02                  								 sub si,2
  5586 00008916 81FE4403                								 cmp si,836
  5587 0000891A 0F84C909                								 je update_di_B4
  5588 0000891E 813E[895D]4403          								 cmp word[CURRENT_POS_B4],836;160;-730
  5589 00008924 0F84BF09                				                 je  update_di_B4
  5590 00008928 8B36[895D]              								  mov si,[CURRENT_POS_B4]
  5591 0000892C 83C602                  								 add si,2
  5592 0000892F 81FE4403                								 cmp si,836
  5593 00008933 0F84B009                								 je update_di_B4
  5594 00008937 8B36[895D]              								 mov si,[CURRENT_POS_B4]
  5595 0000893B 83C604                  								 add si,4
  5596 0000893E 81FE4403                								 cmp si,836
  5597 00008942 0F84A109                								 je update_di_B4
  5598 00008946 8B36[895D]              								 mov si,[CURRENT_POS_B4]
  5599 0000894A 81C69E00                								 add si,158
  5600 0000894E 81FE4403                								 cmp si,836
  5601 00008952 0F849109                								 je update_di_B4
  5602 00008956 8B36[895D]              								 mov si,[CURRENT_POS_B4]
  5603 0000895A 81C6A600                								 add si,166
  5604 0000895E 81FE4403                								 cmp si,836
  5605 00008962 0F848109                								 je update_di_B4
  5606                                  								 
  5607 00008966 813E[895D]4603          								  cmp word[CURRENT_POS_B4],838;160;-730
  5608 0000896C 0F847709                				                 je  update_di_B4
  5609 00008970 8B36[895D]              								  mov si,[CURRENT_POS_B4]
  5610 00008974 83C602                  								 add si,2
  5611 00008977 81FE4603                								 cmp si,838
  5612 0000897B 0F846809                								 je update_di_B4
  5613 0000897F 8B36[895D]              								 mov si,[CURRENT_POS_B4]
  5614 00008983 83C604                  								 add si,4
  5615 00008986 81FE4603                								 cmp si,838
  5616 0000898A 0F845909                								 je update_di_B4
  5617 0000898E 8B36[895D]              								 mov si,[CURRENT_POS_B4]
  5618 00008992 81C69E00                								 add si,158
  5619 00008996 81FE4603                								 cmp si,838
  5620 0000899A 0F844909                								 je update_di_B4
  5621 0000899E 8B36[895D]              								 mov si,[CURRENT_POS_B4]
  5622 000089A2 81C6A600                								 add si,166
  5623 000089A6 81FE4603                								 cmp si,838
  5624 000089AA 0F843909                								 je update_di_B4
  5625                                  								 
  5626 000089AE 813E[895D]4803          								  cmp word[CURRENT_POS_B4],840;160;-730
  5627 000089B4 0F842F09                				                 je  update_di_B4
  5628 000089B8 8B36[895D]              								  mov si,[CURRENT_POS_B4]
  5629 000089BC 83C602                  								 add si,2
  5630 000089BF 81FE4803                								 cmp si,840
  5631 000089C3 0F842009                								 je update_di_B4
  5632 000089C7 8B36[895D]              								 mov si,[CURRENT_POS_B4]
  5633 000089CB 83C604                  								 add si,4
  5634 000089CE 81FE4803                								 cmp si,840
  5635 000089D2 0F841109                								 je update_di_B4
  5636 000089D6 8B36[895D]              								 mov si,[CURRENT_POS_B4]
  5637 000089DA 81C69E00                								 add si,158
  5638 000089DE 81FE4803                								 cmp si,840
  5639 000089E2 0F840109                								 je update_di_B4
  5640 000089E6 8B36[895D]              								 mov si,[CURRENT_POS_B4]
  5641 000089EA 81C6A600                								 add si,166
  5642 000089EE 81FE4803                								 cmp si,840
  5643 000089F2 0F84F108                								 je update_di_B4
  5644                                  								 
  5645 000089F6 813E[895D]4A03          								 cmp word[CURRENT_POS_B4],842;160;-730
  5646 000089FC 0F84E708                				                 je  update_di_B4
  5647 00008A00 8B36[895D]              								  mov si,[CURRENT_POS_B4]
  5648 00008A04 83C602                  								 add si,2
  5649 00008A07 81FE4A03                								 cmp si,842
  5650 00008A0B 0F84D808                								 je update_di_B4
  5651 00008A0F 8B36[895D]              								 mov si,[CURRENT_POS_B4]
  5652 00008A13 83C604                  								 add si,4
  5653 00008A16 81FE4A03                								 cmp si,842
  5654 00008A1A 0F84C908                								 je update_di_B4
  5655 00008A1E 8B36[895D]              								 mov si,[CURRENT_POS_B4]
  5656 00008A22 81C69E00                								 add si,158
  5657 00008A26 81FE4A03                								 cmp si,842
  5658 00008A2A 0F84B908                								 je update_di_B4
  5659 00008A2E 8B36[895D]              								 mov si,[CURRENT_POS_B4]
  5660 00008A32 81C6A600                								 add si,166
  5661 00008A36 81FE4A03                								 cmp si,842
  5662 00008A3A 0F84A908                								 je update_di_B4
  5663                                  								 
  5664 00008A3E 813E[895D]4C03          								  cmp word[CURRENT_POS_B4],844;160;-730
  5665 00008A44 0F849F08                				                 je  update_di_B4
  5666 00008A48 8B36[895D]              								  mov si,[CURRENT_POS_B4]
  5667 00008A4C 83C602                  								 add si,2
  5668 00008A4F 81FE4C03                								 cmp si,844
  5669 00008A53 0F849008                								 je update_di_B4
  5670 00008A57 8B36[895D]              								 mov si,[CURRENT_POS_B4]
  5671 00008A5B 83C604                  								 add si,4
  5672 00008A5E 81FE4C03                								 cmp si,844
  5673 00008A62 0F848108                								 je update_di_B4
  5674 00008A66 8B36[895D]              								 mov si,[CURRENT_POS_B4]
  5675 00008A6A 81C69E00                								 add si,158
  5676 00008A6E 81FE4C03                								 cmp si,844
  5677 00008A72 0F847108                								 je update_di_B4
  5678 00008A76 8B36[895D]              								 mov si,[CURRENT_POS_B4]
  5679 00008A7A 81C6A600                								 add si,166
  5680 00008A7E 81FE4C03                								 cmp si,844
  5681 00008A82 0F846108                								 je update_di_B4
  5682                                  								 
  5683 00008A86 813E[895D]4E03          								 cmp word[CURRENT_POS_B4],846;160;-730
  5684 00008A8C 0F845708                				                 je  update_di_B4
  5685 00008A90 8B36[895D]              								  mov si,[CURRENT_POS_B4]
  5686 00008A94 83C602                  								 add si,2
  5687 00008A97 81FE4E03                								 cmp si,846
  5688 00008A9B 0F844808                								 je update_di_B4
  5689 00008A9F 8B36[895D]              								 mov si,[CURRENT_POS_B4]
  5690 00008AA3 83C604                  								 add si,4
  5691 00008AA6 81FE4E03                								 cmp si,846
  5692 00008AAA 0F843908                								 je update_di_B4
  5693 00008AAE 8B36[895D]              								 mov si,[CURRENT_POS_B4]
  5694 00008AB2 81C69E00                								 add si,158
  5695 00008AB6 81FE4E03                								 cmp si,846
  5696 00008ABA 0F842908                								 je update_di_B4
  5697 00008ABE 8B36[895D]              								 mov si,[CURRENT_POS_B4]
  5698 00008AC2 81C6A600                								 add si,166
  5699 00008AC6 81FE4E03                								 cmp si,846
  5700 00008ACA 0F841908                								 je update_di_B4
  5701                                  								 
  5702 00008ACE 813E[895D]A806          								  cmp word[CURRENT_POS_B4],1704;160;-730
  5703 00008AD4 0F840F08                				                 je  update_di_B4
  5704 00008AD8 8B36[895D]              								  mov si,[CURRENT_POS_B4]
  5705 00008ADC 83C602                  								 add si,2
  5706 00008ADF 81FEA806                								 cmp si,1704
  5707 00008AE3 0F840008                								 je update_di_B4
  5708 00008AE7 8B36[895D]              								 mov si,[CURRENT_POS_B4]
  5709 00008AEB 83C604                  								 add si,4
  5710 00008AEE 81FEA806                								 cmp si,1704
  5711 00008AF2 0F84F107                								 je update_di_B4
  5712 00008AF6 8B36[895D]              								 mov si,[CURRENT_POS_B4]
  5713 00008AFA 81C69E00                								 add si,158
  5714 00008AFE 81FEA806                								 cmp si,1704
  5715 00008B02 0F84E107                								 je update_di_B4
  5716 00008B06 8B36[895D]              								 mov si,[CURRENT_POS_B4]
  5717 00008B0A 81C6A600                								 add si,166
  5718 00008B0E 81FEA806                								 cmp si,1704
  5719 00008B12 0F84D107                								 je update_di_B4
  5720                                  								 
  5721 00008B16 813E[895D]AA06          								  cmp word[CURRENT_POS_B4],1706;160;-730
  5722 00008B1C 0F84C707                				                 je  update_di_B4
  5723 00008B20 8B36[895D]              								  mov si,[CURRENT_POS_B4]
  5724 00008B24 83C602                  								 add si,2
  5725 00008B27 81FEAA06                								 cmp si,1706
  5726 00008B2B 0F84B807                								 je update_di_B4
  5727 00008B2F 8B36[895D]              								 mov si,[CURRENT_POS_B4]
  5728 00008B33 83C604                  								 add si,4
  5729 00008B36 81FEAA06                								 cmp si,1706
  5730 00008B3A 0F84A907                								 je update_di_B4
  5731 00008B3E 8B36[895D]              								 mov si,[CURRENT_POS_B4]
  5732 00008B42 81C69E00                								 add si,158
  5733 00008B46 81FEAA06                								 cmp si,1706
  5734 00008B4A 0F849907                								 je update_di_B4
  5735 00008B4E 8B36[895D]              								 mov si,[CURRENT_POS_B4]
  5736 00008B52 81C6A600                								 add si,166
  5737 00008B56 81FEAA06                								 cmp si,1706
  5738 00008B5A 0F848907                								 je update_di_B4
  5739                                  								 
  5740 00008B5E 813E[895D]AC06          								  cmp word[CURRENT_POS_B4],1708;160;-730
  5741 00008B64 0F847F07                				                 je  update_di_B4
  5742 00008B68 8B36[895D]              								  mov si,[CURRENT_POS_B4]
  5743 00008B6C 83C602                  								 add si,2
  5744 00008B6F 81FEAC06                								 cmp si,1708
  5745 00008B73 0F847007                								 je update_di_B4
  5746 00008B77 8B36[895D]              								 mov si,[CURRENT_POS_B4]
  5747 00008B7B 83C604                  								 add si,4
  5748 00008B7E 81FEAC06                								 cmp si,1708
  5749 00008B82 0F846107                								 je update_di_B4
  5750 00008B86 8B36[895D]              								 mov si,[CURRENT_POS_B4]
  5751 00008B8A 81C69E00                								 add si,158
  5752 00008B8E 81FEAC06                								 cmp si,1708
  5753 00008B92 0F845107                								 je update_di_B4
  5754 00008B96 8B36[895D]              								 mov si,[CURRENT_POS_B4]
  5755 00008B9A 81C6A600                								 add si,166
  5756 00008B9E 81FEAC06                								 cmp si,1708
  5757 00008BA2 0F844107                								 je update_di_B4
  5758                                  								 
  5759 00008BA6 813E[895D]AE06          								  cmp word[CURRENT_POS_B4],1710;160;-730
  5760 00008BAC 0F843707                				                 je  update_di_B4
  5761 00008BB0 8B36[895D]              								  mov si,[CURRENT_POS_B4]
  5762 00008BB4 83C602                  								 add si,2
  5763 00008BB7 81FEAE06                								 cmp si,1710
  5764 00008BBB 0F842807                								 je update_di_B4
  5765 00008BBF 8B36[895D]              								 mov si,[CURRENT_POS_B4]
  5766 00008BC3 83C604                  								 add si,4
  5767 00008BC6 81FEAE06                								 cmp si,1710
  5768 00008BCA 0F841907                								 je update_di_B4
  5769 00008BCE 8B36[895D]              								 mov si,[CURRENT_POS_B4]
  5770 00008BD2 81C69E00                								 add si,158
  5771 00008BD6 81FEAE06                								 cmp si,1710
  5772 00008BDA 0F840907                								 je update_di_B4
  5773 00008BDE 8B36[895D]              								 mov si,[CURRENT_POS_B4]
  5774 00008BE2 81C6A600                								 add si,166
  5775 00008BE6 81FEAE06                								 cmp si,1710
  5776 00008BEA 0F84F906                								 je update_di_B4
  5777                                  								 
  5778 00008BEE 813E[895D]B006          								  cmp word[CURRENT_POS_B4],1712;160;-730
  5779 00008BF4 0F84EF06                				                 je  update_di_B4
  5780 00008BF8 8B36[895D]              								  mov si,[CURRENT_POS_B4]
  5781 00008BFC 83C602                  								 add si,2
  5782 00008BFF 81FEB006                								 cmp si,1712
  5783 00008C03 0F84E006                								 je update_di_B4
  5784 00008C07 8B36[895D]              								 mov si,[CURRENT_POS_B4]
  5785 00008C0B 83C604                  								 add si,4
  5786 00008C0E 81FEB006                								 cmp si,1712
  5787 00008C12 0F84D106                								 je update_di_B4
  5788 00008C16 8B36[895D]              								 mov si,[CURRENT_POS_B4]
  5789 00008C1A 81C69E00                								 add si,158
  5790 00008C1E 81FEB006                								 cmp si,1712
  5791 00008C22 0F84C106                								 je update_di_B4
  5792 00008C26 8B36[895D]              								 mov si,[CURRENT_POS_B4]
  5793 00008C2A 81C6A600                								 add si,166
  5794 00008C2E 81FEB006                								 cmp si,1712
  5795 00008C32 0F84B106                								 je update_di_B4
  5796                                  								 
  5797 00008C36 813E[895D]B206          								 cmp word[CURRENT_POS_B4],1714;160;-730
  5798 00008C3C 0F84A706                				                 je  update_di_B4
  5799 00008C40 8B36[895D]              								  mov si,[CURRENT_POS_B4]
  5800 00008C44 83C602                  								 add si,2
  5801 00008C47 81FEB206                								 cmp si,1714
  5802 00008C4B 0F849806                								 je update_di_B4
  5803 00008C4F 8B36[895D]              								 mov si,[CURRENT_POS_B4]
  5804 00008C53 83C604                  								 add si,4
  5805 00008C56 81FEB206                								 cmp si,1714
  5806 00008C5A 0F848906                								 je update_di_B4
  5807 00008C5E 8B36[895D]              								 mov si,[CURRENT_POS_B4]
  5808 00008C62 81C69E00                								 add si,158
  5809 00008C66 81FEB206                								 cmp si,1714
  5810 00008C6A 0F847906                								 je update_di_B4
  5811 00008C6E 8B36[895D]              								 mov si,[CURRENT_POS_B4]
  5812 00008C72 81C6A600                								 add si,166
  5813 00008C76 81FEB206                								 cmp si,1714
  5814 00008C7A 0F846906                								 je update_di_B4
  5815                                  								 
  5816 00008C7E 813E[895D]8A07          								  cmp word[CURRENT_POS_B4],1930;160;-730
  5817 00008C84 0F845F06                				                 je  update_di_B4
  5818 00008C88 8B36[895D]              								  mov si,[CURRENT_POS_B4]
  5819 00008C8C 83C602                  								 add si,2
  5820 00008C8F 81FE8A07                								 cmp si,1930
  5821 00008C93 0F845006                								 je update_di_B4
  5822 00008C97 8B36[895D]              								 mov si,[CURRENT_POS_B4]
  5823 00008C9B 83C604                  								 add si,4
  5824 00008C9E 81FE8A07                								 cmp si,1930
  5825 00008CA2 0F844106                								 je update_di_B4
  5826 00008CA6 8B36[895D]              								 mov si,[CURRENT_POS_B4]
  5827 00008CAA 81C69E00                								 add si,158
  5828 00008CAE 81FE8A07                								 cmp si,1930
  5829 00008CB2 0F843106                								 je update_di_B4
  5830 00008CB6 8B36[895D]              								 mov si,[CURRENT_POS_B4]
  5831 00008CBA 81C6A600                								 add si,166
  5832 00008CBE 81FE8A07                								 cmp si,1930
  5833 00008CC2 0F842106                								 je update_di_B4
  5834                                  								 
  5835 00008CC6 813E[895D]8C07          								  cmp word[CURRENT_POS_B4],1932;160;-730
  5836 00008CCC 0F841706                				                 je  update_di_B4
  5837 00008CD0 8B36[895D]              								  mov si,[CURRENT_POS_B4]
  5838 00008CD4 83C602                  								 add si,2
  5839 00008CD7 81FE8C07                								 cmp si,1932
  5840 00008CDB 0F840806                								 je update_di_B4
  5841 00008CDF 8B36[895D]              								 mov si,[CURRENT_POS_B4]
  5842 00008CE3 83C604                  								 add si,4
  5843 00008CE6 81FE8C07                								 cmp si,1932
  5844 00008CEA 0F84F905                								 je update_di_B4
  5845 00008CEE 8B36[895D]              								 mov si,[CURRENT_POS_B4]
  5846 00008CF2 81C69E00                								 add si,158
  5847 00008CF6 81FE8C07                								 cmp si,1932
  5848 00008CFA 0F84E905                								 je update_di_B4
  5849 00008CFE 8B36[895D]              								 mov si,[CURRENT_POS_B4]
  5850 00008D02 81C6A600                								 add si,166
  5851 00008D06 81FE8C07                								 cmp si,1932
  5852 00008D0A 0F84D905                								 je update_di_B4
  5853                                  								 
  5854 00008D0E 813E[895D]8E07          								  cmp word[CURRENT_POS_B4],1934;160;-730
  5855 00008D14 0F84CF05                				                 je  update_di_B4
  5856 00008D18 8B36[895D]              								  mov si,[CURRENT_POS_B4]
  5857 00008D1C 83C602                  								 add si,2
  5858 00008D1F 81FE8E07                								 cmp si,1934
  5859 00008D23 0F84C005                								 je update_di_B4
  5860 00008D27 8B36[895D]              								 mov si,[CURRENT_POS_B4]
  5861 00008D2B 83C604                  								 add si,4
  5862 00008D2E 81FE8E07                								 cmp si,1934
  5863 00008D32 0F84B105                								 je update_di_B4
  5864 00008D36 8B36[895D]              								 mov si,[CURRENT_POS_B4]
  5865 00008D3A 81C69E00                								 add si,158
  5866 00008D3E 81FE8E07                								 cmp si,1934
  5867 00008D42 0F84A105                								 je update_di_B4
  5868 00008D46 8B36[895D]              								 mov si,[CURRENT_POS_B4]
  5869 00008D4A 81C6A600                								 add si,166
  5870 00008D4E 81FE8E07                								 cmp si,1934
  5871 00008D52 0F849105                								 je update_di_B4
  5872                                  								 
  5873 00008D56 813E[895D]9007          								  cmp word[CURRENT_POS_B4],1936;160;-730
  5874 00008D5C 0F848705                				                 je  update_di_B4
  5875 00008D60 8B36[895D]              								  mov si,[CURRENT_POS_B4]
  5876 00008D64 83C602                  								 add si,2
  5877 00008D67 81FE9007                								 cmp si,1936
  5878 00008D6B 0F847805                								 je update_di_B4
  5879 00008D6F 8B36[895D]              								 mov si,[CURRENT_POS_B4]
  5880 00008D73 83C604                  								 add si,4
  5881 00008D76 81FE9007                								 cmp si,1936
  5882 00008D7A 0F846905                								 je update_di_B4
  5883 00008D7E 8B36[895D]              								 mov si,[CURRENT_POS_B4]
  5884 00008D82 81C69E00                								 add si,158
  5885 00008D86 81FE9007                								 cmp si,1936
  5886 00008D8A 0F845905                								 je update_di_B4
  5887 00008D8E 8B36[895D]              								 mov si,[CURRENT_POS_B4]
  5888 00008D92 81C6A600                								 add si,166
  5889 00008D96 81FE9007                								 cmp si,1936
  5890 00008D9A 0F844905                								 je update_di_B4
  5891                                  								 
  5892 00008D9E 813E[895D]9207          								  cmp word[CURRENT_POS_B4],1938;160;-730
  5893 00008DA4 0F843F05                				                 je  update_di_B4
  5894 00008DA8 8B36[895D]              								  mov si,[CURRENT_POS_B4]
  5895 00008DAC 83C602                  								 add si,2
  5896 00008DAF 81FE9207                								 cmp si,1938
  5897 00008DB3 0F843005                								 je update_di_B4
  5898 00008DB7 8B36[895D]              								 mov si,[CURRENT_POS_B4]
  5899 00008DBB 83C604                  								 add si,4
  5900 00008DBE 81FE9207                								 cmp si,1938
  5901 00008DC2 0F842105                								 je update_di_B4
  5902 00008DC6 8B36[895D]              								 mov si,[CURRENT_POS_B4]
  5903 00008DCA 81C69E00                								 add si,158
  5904 00008DCE 81FE9207                								 cmp si,1938
  5905 00008DD2 0F841105                								 je update_di_B4
  5906 00008DD6 8B36[895D]              								 mov si,[CURRENT_POS_B4]
  5907 00008DDA 81C6A600                								 add si,166
  5908 00008DDE 81FE9207                								 cmp si,1938
  5909 00008DE2 0F840105                								 je update_di_B4
  5910                                  								 
  5911 00008DE6 813E[895D]9407          								 cmp word[CURRENT_POS_B4],1940;160;-730
  5912 00008DEC 0F84F704                				                 je  update_di_B4
  5913 00008DF0 8B36[895D]              								  mov si,[CURRENT_POS_B4]
  5914 00008DF4 83C602                  								 add si,2
  5915 00008DF7 81FE9407                								 cmp si,1940
  5916 00008DFB 0F84E804                								 je update_di_B4
  5917 00008DFF 8B36[895D]              								 mov si,[CURRENT_POS_B4]
  5918 00008E03 83C604                  								 add si,4
  5919 00008E06 81FE9407                								 cmp si,1940
  5920 00008E0A 0F84D904                								 je update_di_B4
  5921 00008E0E 8B36[895D]              								 mov si,[CURRENT_POS_B4]
  5922 00008E12 81C69E00                								 add si,158
  5923 00008E16 81FE9407                								 cmp si,1940
  5924 00008E1A 0F84C904                								 je update_di_B4
  5925 00008E1E 8B36[895D]              								 mov si,[CURRENT_POS_B4]
  5926 00008E22 81C6A600                								 add si,166
  5927 00008E26 81FE9407                								 cmp si,1940
  5928 00008E2A 0F84B904                								 je update_di_B4
  5929                                  								 
  5930 00008E2E 813E[895D]D809          								  cmp word[CURRENT_POS_B4],2520;160;-730
  5931 00008E34 0F84AF04                				                 je  update_di_B4
  5932 00008E38 8B36[895D]              								  mov si,[CURRENT_POS_B4]
  5933 00008E3C 83C602                  								 add si,2
  5934 00008E3F 81FED809                								 cmp si,2520
  5935 00008E43 0F84A004                								 je update_di_B4
  5936 00008E47 8B36[895D]              								 mov si,[CURRENT_POS_B4]
  5937 00008E4B 83C604                  								 add si,4
  5938 00008E4E 81FED809                								 cmp si,2520
  5939 00008E52 0F849104                								 je update_di_B4
  5940 00008E56 8B36[895D]              								 mov si,[CURRENT_POS_B4]
  5941 00008E5A 81C69E00                								 add si,158
  5942 00008E5E 81FED809                								 cmp si,2520
  5943 00008E62 0F848104                								 je update_di_B4
  5944 00008E66 8B36[895D]              								 mov si,[CURRENT_POS_B4]
  5945 00008E6A 81C6A600                								 add si,166
  5946 00008E6E 81FED809                								 cmp si,2520
  5947 00008E72 0F847104                								 je update_di_B4
  5948                                  								 
  5949 00008E76 813E[895D]DA09          								  cmp word[CURRENT_POS_B4],2522;160;-730
  5950 00008E7C 0F846704                				                 je  update_di_B4
  5951 00008E80 8B36[895D]              								  mov si,[CURRENT_POS_B4]
  5952 00008E84 83C602                  								 add si,2
  5953 00008E87 81FEDA09                								 cmp si,2522
  5954 00008E8B 0F845804                								 je update_di_B4
  5955 00008E8F 8B36[895D]              								 mov si,[CURRENT_POS_B4]
  5956 00008E93 83C604                  								 add si,4
  5957 00008E96 81FEDA09                								 cmp si,2522
  5958 00008E9A 0F844904                								 je update_di_B4
  5959 00008E9E 8B36[895D]              								 mov si,[CURRENT_POS_B4]
  5960 00008EA2 81C69E00                								 add si,158
  5961 00008EA6 81FEDA09                								 cmp si,2522
  5962 00008EAA 0F843904                								 je update_di_B4
  5963 00008EAE 8B36[895D]              								 mov si,[CURRENT_POS_B4]
  5964 00008EB2 81C6A600                								 add si,166
  5965 00008EB6 81FEDA09                								 cmp si,2522
  5966 00008EBA 0F842904                								 je update_di_B4
  5967                                  								 
  5968 00008EBE 813E[895D]DC09          								  cmp word[CURRENT_POS_B4],2524;160;-730
  5969 00008EC4 0F841F04                				                 je  update_di_B4
  5970 00008EC8 8B36[895D]              								  mov si,[CURRENT_POS_B4]
  5971 00008ECC 83C602                  								 add si,2
  5972 00008ECF 81FEDC09                								 cmp si,2524
  5973 00008ED3 0F841004                								 je update_di_B4
  5974 00008ED7 8B36[895D]              								 mov si,[CURRENT_POS_B4]
  5975 00008EDB 83C604                  								 add si,4
  5976 00008EDE 81FEDC09                								 cmp si,2524
  5977 00008EE2 0F840104                								 je update_di_B4
  5978 00008EE6 8B36[895D]              								 mov si,[CURRENT_POS_B4]
  5979 00008EEA 81C69E00                								 add si,158
  5980 00008EEE 81FEDC09                								 cmp si,2524
  5981 00008EF2 0F84F103                								 je update_di_B4
  5982 00008EF6 8B36[895D]              								 mov si,[CURRENT_POS_B4]
  5983 00008EFA 81C6A600                								 add si,166
  5984 00008EFE 81FEDC09                								 cmp si,2524
  5985 00008F02 0F84E103                								 je update_di_B4
  5986                                  								 
  5987 00008F06 813E[895D]DE09          								  cmp word[CURRENT_POS_B4],2526;160;-730
  5988 00008F0C 0F84D703                				                 je  update_di_B4
  5989 00008F10 8B36[895D]              								  mov si,[CURRENT_POS_B4]
  5990 00008F14 83C602                  								 add si,2
  5991 00008F17 81FEDE09                								 cmp si,2526
  5992 00008F1B 0F84C803                								 je update_di_B4
  5993 00008F1F 8B36[895D]              								 mov si,[CURRENT_POS_B4]
  5994 00008F23 83C604                  								 add si,4
  5995 00008F26 81FEDE09                								 cmp si,2526
  5996 00008F2A 0F84B903                								 je update_di_B4
  5997 00008F2E 8B36[895D]              								 mov si,[CURRENT_POS_B4]
  5998 00008F32 81C69E00                								 add si,158
  5999 00008F36 81FEDE09                								 cmp si,2526
  6000 00008F3A 0F84A903                								 je update_di_B4
  6001 00008F3E 8B36[895D]              								 mov si,[CURRENT_POS_B4]
  6002 00008F42 81C6A600                								 add si,166
  6003 00008F46 81FEDE09                								 cmp si,2526
  6004 00008F4A 0F849903                								 je update_di_B4
  6005                                  								 
  6006 00008F4E 813E[895D]E009          								  cmp word[CURRENT_POS_B4],2528;160;-730
  6007 00008F54 0F848F03                				                 je  update_di_B4
  6008 00008F58 8B36[895D]              								  mov si,[CURRENT_POS_B4]
  6009 00008F5C 83C602                  								 add si,2
  6010 00008F5F 81FEE009                								 cmp si,2528
  6011 00008F63 0F848003                								 je update_di_B4
  6012 00008F67 8B36[895D]              								 mov si,[CURRENT_POS_B4]
  6013 00008F6B 83C604                  								 add si,4
  6014 00008F6E 81FEE009                								 cmp si,2528
  6015 00008F72 0F847103                								 je update_di_B4
  6016 00008F76 8B36[895D]              								 mov si,[CURRENT_POS_B4]
  6017 00008F7A 81C69E00                								 add si,158
  6018 00008F7E 81FEE009                								 cmp si,2528
  6019 00008F82 0F846103                								 je update_di_B4
  6020 00008F86 8B36[895D]              								 mov si,[CURRENT_POS_B4]
  6021 00008F8A 81C6A600                								 add si,166
  6022 00008F8E 81FEE009                								 cmp si,2528
  6023 00008F92 0F845103                								 je update_di_B4
  6024                                  								 
  6025 00008F96 813E[895D]E209          								 cmp word[CURRENT_POS_B4],2530;160;-730
  6026 00008F9C 0F844703                				                 je  update_di_B4
  6027 00008FA0 8B36[895D]              								  mov si,[CURRENT_POS_B4]
  6028 00008FA4 83C602                  								 add si,2
  6029 00008FA7 81FEE209                								 cmp si,2530
  6030 00008FAB 0F843803                								 je update_di_B4
  6031 00008FAF 8B36[895D]              								 mov si,[CURRENT_POS_B4]
  6032 00008FB3 83C604                  								 add si,4
  6033 00008FB6 81FEE209                								 cmp si,2530
  6034 00008FBA 0F842903                								 je update_di_B4
  6035 00008FBE 8B36[895D]              								 mov si,[CURRENT_POS_B4]
  6036 00008FC2 81C69E00                								 add si,158
  6037 00008FC6 81FEE209                								 cmp si,2530
  6038 00008FCA 0F841903                								 je update_di_B4
  6039 00008FCE 8B36[895D]              								 mov si,[CURRENT_POS_B4]
  6040 00008FD2 81C6A600                								 add si,166
  6041 00008FD6 81FEE209                								 cmp si,2530
  6042 00008FDA 0F840903                								 je update_di_B4
  6043                                  								 
  6044 00008FDE E9DCD9                  			   jmp LOOP1_GAME
  6045                                  ;;//////////////////////////////BALLON1 LOGIC////////////////////////////////				
  6046                                  ;;///////////////////////////////////////////////////////////////////////////				
  6047 00008FE1 E874D0                  update_di_B1: call B1_CLEAR 
  6048 00008FE4 8306[8F5D]02                          add word[B1_COUNTER],2
  6049 00008FE9 8306[4B5E]01                          add word[B1_COLOR_COUNTER],1
  6050 00008FEE 833E[4B5E]08            			  cmp word[B1_COLOR_COUNTER],8
  6051 00008FF3 7437                    			  je UPDATE_B1_COLOR_COUNTER
  6052 00008FF5 833E[8F5D]08            B1_COLOR_COUNTER_UPDATED:              cmp word[B1_COUNTER],8
  6053 00008FFA 7428                                  je POSITION_OF_BALLON_1_WRAPPER_B1			  
  6054 00008FFC 8B36[8F5D]              WRRAPER_DONE_B1: mov si,[B1_COUNTER]
  6055 00009000 8B84[535D]                                  mov ax,[POSITION_OF_BALLON_1+si]
  6056 00009004 A3[835D]                					mov word[CURRENT_POS_B1],AX
  6057 00009007 8006[375E]01                          add byte[B1_CHARACTER_COUNTER],1
  6058 0000900C 803E[375E]1A            			  cmp byte[B1_CHARACTER_COUNTER],26
  6059 00009011 740A                    			  je reload_B1
  6060                                  
  6061 00009013 833E[30C8]01            		return_B1:  cmp word[CURRENT_mode],1
  6062 00009018 741A                                          je  update_SURVIVOR_END_1		
  6063 0000901A E9A0D9                          RET_B1:            		jmp LOOP1_GAME
  6064                                  
  6065 0000901D C606[375E]00            		reload_B1:  mov byte[B1_CHARACTER_COUNTER],0
  6066 00009022 EBEF                    				  jmp return_B1
  6067                                  				  
  6068 00009024 C706[8F5D]0000          POSITION_OF_BALLON_1_WRAPPER_B1:     mov word[B1_COUNTER],0
  6069 0000902A EBD0                                                       jmp WRRAPER_DONE_B1 		
  6070                                  
  6071 0000902C C706[4B5E]0000          UPDATE_B1_COLOR_COUNTER: mov word[B1_COLOR_COUNTER],0
  6072 00009032 EBC1                                             jmp B1_COLOR_COUNTER_UPDATED
  6073                                  
  6074 00009034 8306[815E]01            update_SURVIVOR_END_1: add word[SURVIVAL_COUNTER],1
  6075 00009039 EBDF                    							  jmp RET_B1
  6076                                  ;;;;;//////////////////////////////UPDATING SCORE DUE TO BALLON1//////////////////////////////////////
  6077                                  ;;;;;/////////////////////////////////////////////////////////////////////////////////////////////////				 
  6078 0000903B C706[1900]0100          update_B1_:   mov word[Ballon_pop],1
  6079 00009041 E814D0                  call B1_CLEAR
  6080 00009044 E8B93B                  call play_pop_sound
  6081 00009047 8306[8F5D]02                           add word[B1_COUNTER],2 
  6082 0000904C 8306[4B5E]01                           add word[B1_COLOR_COUNTER],1
  6083 00009051 833E[4B5E]08            			  cmp word[B1_COLOR_COUNTER],8
  6084 00009056 0F848000                			  je UPDATE_B1_COLOR_COUNTER_
  6085 0000905A 833E[8F5D]08            B1_COLOR_COUNTER_UPDATED_:       cmp word[B1_COUNTER],8
  6086 0000905F 7D53                                  jge POSITION_OF_BALLON_1_WRAPPER_B1_			  
  6087 00009061 8B36[8F5D]              WRRAPER_DONE_B1_:   mov si,[B1_COUNTER]           
  6088 00009065 8B84[535D]              				    mov ax,[POSITION_OF_BALLON_1+si]
  6089 00009069 A3[835D]                					mov word[CURRENT_POS_B1],AX
  6090 0000906C E8B2CF                  			  call UPDATE_SCORE
  6091 0000906F C606[455E]00            			  mov byte[B1_CURRENT_CHARACTER],0				
  6092                                  			  
  6093                                  done_THIS_B1_:				  
  6094 00009074 8006[375E]01            				add byte[B1_CHARACTER_COUNTER],1
  6095 00009079 803E[375E]1A            			  cmp byte[B1_CHARACTER_COUNTER],26
  6096 0000907E 742D                    				je reload_B1_
  6097                                  				
  6098                                  		return_B1_: ;.............;;.............
  6099 00009080 8A0E[445E]              				  mov cl,[CURRENT_ENTERED_CHARACTER]
  6100                                  				  
  6101 00009084 380E[465E]                    			  cmp byte[B2_CURRENT_CHARACTER],cl
  6102 00009088 0F84B100                				  je update_B2_
  6103 0000908C 380E[475E]                    			  cmp byte[B3_CURRENT_CHARACTER],cl
  6104 00009090 0F84AB01                				  je update_B3_
  6105 00009094 380E[485E]                    			  cmp byte[B4_CURRENT_CHARACTER],cl
  6106 00009098 0F84A502                				  je update_B4_
  6107                                  				  
  6108 0000909C 833E[E0C2]02            				  cmp word[CURRENT_LEVEL],2
  6109 000090A1 7419                    				  je OOHO_LEVEL_2_HA_1
  6110 000090A3 833E[E0C2]03            				   cmp word[CURRENT_LEVEL],3
  6111 000090A8 741D                    				  je OOHO_LEVEL_3_HA_1
  6112                                  				  
  6113                                  			  ;;;..........................................  
  6114 000090AA E910D9                  		jmp LOOP1_GAME
  6115                                  
  6116 000090AD C606[375E]00            		reload_B1_: mov byte[B1_CHARACTER_COUNTER],0; 
  6117 000090B2 EBCC                    				 jmp return_B1_
  6118                                  
  6119 000090B4 C706[8F5D]0000          POSITION_OF_BALLON_1_WRAPPER_B1_: mov word[B1_COUNTER],0
  6120 000090BA EBA5                                                  jmp WRRAPER_DONE_B1_  
  6121                                  							  
  6122 000090BC 380E[495E]              OOHO_LEVEL_2_HA_1: cmp byte[B5_CURRENT_CHARACTER],cl
  6123 000090C0 0F84A803                                    je update_B5_
  6124 000090C4 E9F6D8                                      jmp LOOP1_GAME
  6125                                  
  6126 000090C7 380E[495E]              OOHO_LEVEL_3_HA_1:cmp byte[B5_CURRENT_CHARACTER],cl
  6127 000090CB 0F849D03                                    je update_B5_
  6128 000090CF 380E[4A5E]              					cmp byte[B6_CURRENT_CHARACTER],cl
  6129 000090D3 0F845E04                                    je update_B6_
  6130 000090D7 E9E3D8                                      jmp LOOP1_GAME 		
  6131                                  
  6132                                  
  6133 000090DA C706[4B5E]0000          UPDATE_B1_COLOR_COUNTER_: mov word[B1_COLOR_COUNTER],0
  6134 000090E0 E977FF                                           jmp B1_COLOR_COUNTER_UPDATED_					
  6135                                  ;;//////////////////////////////BALLON2 LOGIC////////////////////////////////////
  6136                                  ;;//////////////////////////////////////////////////////////////////////////////
  6137                                  				
  6138                                  				
  6139 000090E3 E8EDD0                  update_di_B2: call B2_CLEAR
  6140 000090E6 8306[915D]02             add word[B2_COUNTER],2
  6141 000090EB 8306[4D5E]01            add word[B2_COLOR_COUNTER],1
  6142 000090F0 833E[4D5E]08            			  cmp word[B2_COLOR_COUNTER],8
  6143 000090F5 7437                    			  je UPDATE_B2_COLOR_COUNTER
  6144                                  B2_COLOR_COUNTER_UPDATED:
  6145 000090F7 833E[915D]08                          cmp word[B2_COUNTER],8
  6146 000090FC 7428                                  je POSITION_OF_BALLON_1_WRAPPER_B2			  
  6147 000090FE 8B36[915D]              WRRAPER_DONE_B2: mov si,[B2_COUNTER]
  6148 00009102 8B84[5B5D]                                  mov ax,[POSITION_OF_BALLON_2+si]
  6149 00009106 A3[855D]                					mov word[CURRENT_POS_B2],AX
  6150 00009109 8006[395E]01            			  	add byte[B2_CHARACTER_COUNTER],1
  6151 0000910E 803E[395E]1A            			  cmp byte[B2_CHARACTER_COUNTER],26
  6152 00009113 740A                    			  je reload_B2
  6153 00009115 833E[30C8]01            		return_B2:    cmp word[CURRENT_mode],1
  6154 0000911A 741A                                          je  update_SURVIVOR_END_2		
  6155 0000911C E99ED8                          RET_B2:            		jmp LOOP1_GAME
  6156                                  
  6157 0000911F C606[395E]00            		reload_B2:  mov byte[B2_CHARACTER_COUNTER],0;
  6158 00009124 EBEF                    				  jmp return_B2
  6159                                  				  
  6160 00009126 C706[915D]0000          POSITION_OF_BALLON_1_WRAPPER_B2:     mov word[B2_COUNTER],0
  6161 0000912C EBD0                                                       jmp WRRAPER_DONE_B2 	
  6162                                  
  6163 0000912E C706[4D5E]0000          UPDATE_B2_COLOR_COUNTER: mov word[B2_COLOR_COUNTER],0
  6164 00009134 EBC1                                             jmp B2_COLOR_COUNTER_UPDATED
  6165                                  
  6166 00009136 8306[815E]01            update_SURVIVOR_END_2: add word[SURVIVAL_COUNTER],1
  6167 0000913B EBDF                    							  jmp RET_B2								   
  6168                                  ;;;;;//////////////////////////////UPDATING SCORE DUE TO BALLON2//////////////////////////////////////
  6169                                  ;;;;;////////////////////////////////////////////////////////////////////////////////////////////////				 
  6170 0000913D C706[1900]0100          update_B2_: mov word[Ballon_pop],1
  6171 00009143 E88DD0                              call B2_CLEAR
  6172 00009146 E8B73A                   call play_pop_sound
  6173 00009149 8306[915D]02             add word[B2_COUNTER],2 
  6174 0000914E 8306[4D5E]01            add word[B2_COLOR_COUNTER],1
  6175 00009153 833E[4D5E]08            			  cmp word[B2_COLOR_COUNTER],8
  6176 00009158 0F848000                			  je UPDATE_B2_COLOR_COUNTER_
  6177                                  B2_COLOR_COUNTER_UPDATED_:
  6178 0000915C 833E[915D]08                          cmp word[B2_COUNTER],8
  6179 00009161 7D53                                  jge POSITION_OF_BALLON_1_WRAPPER_B2_			  
  6180 00009163 8B36[915D]              WRRAPER_DONE_B2_:   mov si,[B2_COUNTER]           
  6181 00009167 8B84[5B5D]              				    mov ax,[POSITION_OF_BALLON_2+si]
  6182 0000916B A3[855D]                					mov word[CURRENT_POS_B2],AX
  6183 0000916E E8B0CE                  			  call UPDATE_SCORE
  6184 00009171 C606[465E]00            			  			  mov byte[B2_CURRENT_CHARACTER],0				
  6185                                  			 
  6186                                  done_THIS_B2_:	
  6187 00009176 8006[395E]01            				add byte[B2_CHARACTER_COUNTER],1
  6188 0000917B 803E[395E]1A            			  cmp byte[B2_CHARACTER_COUNTER],26
  6189 00009180 742D                    				je reload_B2_
  6190                                  				
  6191                                  		return_B2_: ;...............................................
  6192 00009182 8A0E[445E]                mov cl,[CURRENT_ENTERED_CHARACTER]
  6193                                  				  
  6194 00009186 380E[455E]                    			  cmp byte[B1_CURRENT_CHARACTER],cl
  6195 0000918A 0F84ADFE                				  je update_B1_
  6196 0000918E 380E[475E]                    			  cmp byte[B3_CURRENT_CHARACTER],cl
  6197 00009192 0F84A900                				  je update_B3_
  6198 00009196 380E[485E]                    			  cmp byte[B4_CURRENT_CHARACTER],cl
  6199 0000919A 0F84A301                				  je update_B4_
  6200                                  				  
  6201 0000919E 833E[E0C2]02            				  cmp word[CURRENT_LEVEL],2
  6202 000091A3 7419                    				  je OOHO_LEVEL_2_HA_2
  6203 000091A5 833E[E0C2]03            				   cmp word[CURRENT_LEVEL],3
  6204 000091AA 741D                    				  je OOHO_LEVEL_3_HA_2
  6205                                  				  ;..........................................  
  6206 000091AC E90ED8                          jmp LOOP1_GAME
  6207                                  
  6208 000091AF C606[395E]00            		reload_B2_:  mov byte[B2_CHARACTER_COUNTER],0
  6209 000091B4 EBCC                    				 jmp return_B2_
  6210                                  
  6211 000091B6 C706[915D]0000          POSITION_OF_BALLON_1_WRAPPER_B2_: mov word[B2_COUNTER],0
  6212 000091BC EBA5                                                  jmp WRRAPER_DONE_B2_
  6213                                  							  
  6214 000091BE 380E[495E]              OOHO_LEVEL_2_HA_2: cmp byte[B5_CURRENT_CHARACTER],cl
  6215 000091C2 0F84A602                                    je update_B5_
  6216 000091C6 E9F4D7                                      jmp LOOP1_GAME
  6217                                  
  6218 000091C9 380E[495E]              OOHO_LEVEL_3_HA_2:cmp byte[B5_CURRENT_CHARACTER],cl
  6219 000091CD 0F849B02                                    je update_B5_
  6220 000091D1 380E[4A5E]              					cmp byte[B6_CURRENT_CHARACTER],cl
  6221 000091D5 0F845C03                                    je update_B6_
  6222 000091D9 E9E1D7                                      jmp LOOP1_GAME 			
  6223                                  
  6224 000091DC C706[4D5E]0000          UPDATE_B2_COLOR_COUNTER_: mov word[B2_COLOR_COUNTER],0
  6225 000091E2 E977FF                                           jmp B2_COLOR_COUNTER_UPDATED_					
  6226                                  ;;//////////////////////////////BALLON3 LOGIC///////////////////////////////////////
  6227                                  ;;/////////////////////////////////////////////////////////////////////////////////				
  6228                                  				
  6229 000091E5 E866D1                  update_di_B3:  call B3_CLEAR
  6230 000091E8 8306[935D]02            add word[B3_COUNTER],2
  6231 000091ED 8306[4F5E]01            add word[B3_COLOR_COUNTER],1
  6232 000091F2 833E[4F5E]08            			  cmp word[B3_COLOR_COUNTER],8
  6233 000091F7 7437                    			  je UPDATE_B3_COLOR_COUNTER
  6234                                  B3_COLOR_COUNTER_UPDATED:
  6235 000091F9 833E[935D]08                          cmp word[B3_COUNTER],8
  6236                                  			  
  6237 000091FE 7428                                  je POSITION_OF_BALLON_1_WRAPPER_B3			  
  6238 00009200 8B36[935D]              WRRAPER_DONE_B3: mov si,[B3_COUNTER]
  6239 00009204 8B84[635D]                                  mov ax,[POSITION_OF_BALLON_3+si]
  6240 00009208 A3[875D]                					mov word[CURRENT_POS_B3],AX
  6241 0000920B 8006[3B5E]01            			  add byte[B3_CHARACTER_COUNTER],1
  6242 00009210 803E[3B5E]1A            			  cmp byte[B3_CHARACTER_COUNTER],26
  6243 00009215 740A                    			  je reload_B3
  6244 00009217 833E[30C8]01            		return_B3:    cmp word[CURRENT_mode],1
  6245 0000921C 741A                                          je  update_SURVIVOR_END_3		
  6246 0000921E E99CD7                          RET_B3:            		jmp LOOP1_GAME
  6247                                  
  6248 00009221 C606[3B5E]00            		reload_B3:  mov byte[B3_CHARACTER_COUNTER],0
  6249 00009226 EBEF                    				  jmp return_B3
  6250                                  				  
  6251 00009228 C706[935D]0000          POSITION_OF_BALLON_1_WRAPPER_B3:     mov word[B3_COUNTER],0
  6252 0000922E EBD0                                                       jmp WRRAPER_DONE_B3 									  
  6253                                  
  6254 00009230 C706[4F5E]0000          UPDATE_B3_COLOR_COUNTER: mov word[B3_COLOR_COUNTER],0
  6255 00009236 EBC1                                             jmp B3_COLOR_COUNTER_UPDATED
  6256                                  
  6257 00009238 8306[815E]01            update_SURVIVOR_END_3: add word[SURVIVAL_COUNTER],1
  6258 0000923D EBDF                    							  jmp RET_B3								   
  6259                                  ;;;;;//////////////////////////////UPDATING SCORE DUE TO BALLON3//////////////////////////////////////
  6260                                  ;;;;;////////////////////////////////////////////////////////////////////////////////////////////////				 
  6261 0000923F C706[1900]0100          update_B3_:  mov word[Ballon_pop],1
  6262 00009245 E806D1                                call B3_CLEAR
  6263 00009248 E8B539                  call play_pop_sound
  6264 0000924B 8306[935D]02             add word[B3_COUNTER],2 
  6265 00009250 8306[4F5E]01            add word[B3_COLOR_COUNTER],1
  6266 00009255 833E[4F5E]08            			  cmp word[B3_COLOR_COUNTER],8
  6267 0000925A 0F848000                			  je UPDATE_B3_COLOR_COUNTER_
  6268                                  B3_COLOR_COUNTER_UPDATED_:
  6269 0000925E 833E[935D]08                          cmp word[B3_COUNTER],8
  6270 00009263 7D53                                  jge POSITION_OF_BALLON_1_WRAPPER_B3_			  
  6271 00009265 8B36[935D]              WRRAPER_DONE_B3_:   mov si,[B3_COUNTER]           
  6272 00009269 8B84[635D]              				    mov ax,[POSITION_OF_BALLON_3+si]
  6273 0000926D A3[875D]                					mov word[CURRENT_POS_B3],AX
  6274 00009270 E8AECD                  			  call UPDATE_SCORE
  6275 00009273 C606[475E]00            			  			  mov byte[B3_CURRENT_CHARACTER],0				
  6276                                  			 
  6277                                  done_THIS_B3_:		
  6278 00009278 8006[3B5E]01            				add byte[B3_CHARACTER_COUNTER],1
  6279 0000927D 803E[3B5E]1A            			  cmp byte[B3_CHARACTER_COUNTER],26
  6280 00009282 742D                    				je reload_B3_
  6281                                  				
  6282                                  		return_B3_: ;.........................................
  6283 00009284 8A0E[445E]              			    mov cl,[CURRENT_ENTERED_CHARACTER]
  6284                                  				  
  6285 00009288 380E[465E]                    			  cmp byte[B2_CURRENT_CHARACTER],cl
  6286 0000928C 0F84ADFE                				  je update_B2_
  6287 00009290 380E[455E]                    			  cmp byte[B1_CURRENT_CHARACTER],cl
  6288 00009294 0F84A3FD                				  je update_B1_
  6289 00009298 380E[485E]                    			  cmp byte[B4_CURRENT_CHARACTER],cl
  6290 0000929C 0F84A100                				  je update_B4_
  6291                                  				  
  6292 000092A0 833E[E0C2]02            				  cmp word[CURRENT_LEVEL],2
  6293 000092A5 7419                    				  je OOHO_LEVEL_2_HA_3
  6294 000092A7 833E[E0C2]03            				   cmp word[CURRENT_LEVEL],3
  6295 000092AC 741D                    				  je OOHO_LEVEL_3_HA_3
  6296                                  				  ;....................................... 
  6297 000092AE E90CD7                   		jmp LOOP1_GAME
  6298                                  
  6299 000092B1 C606[3B5E]00            		reload_B3_:  mov byte[B3_CHARACTER_COUNTER],0
  6300 000092B6 EBCC                    				 jmp return_B3_
  6301                                  
  6302 000092B8 C706[935D]0000          POSITION_OF_BALLON_1_WRAPPER_B3_: mov word[B3_COUNTER],0
  6303 000092BE EBA5                                                  jmp WRRAPER_DONE_B3_
  6304                                  							  
  6305 000092C0 380E[495E]              OOHO_LEVEL_2_HA_3: cmp byte[B5_CURRENT_CHARACTER],cl
  6306 000092C4 0F84A401                                    je update_B5_
  6307 000092C8 E9F2D6                                      jmp LOOP1_GAME
  6308                                  
  6309 000092CB 380E[495E]              OOHO_LEVEL_3_HA_3:cmp byte[B5_CURRENT_CHARACTER],cl
  6310 000092CF 0F849901                                    je update_B5_
  6311 000092D3 380E[4A5E]              					cmp byte[B6_CURRENT_CHARACTER],cl
  6312 000092D7 0F845A02                                    je update_B6_
  6313 000092DB E9DFD6                                      jmp LOOP1_GAME 			
  6314                                  
  6315 000092DE C706[4F5E]0000          UPDATE_B3_COLOR_COUNTER_: mov word[B3_COLOR_COUNTER],0
  6316 000092E4 E977FF                                           jmp B3_COLOR_COUNTER_UPDATED_					
  6317                                  ;;//////////////////////////////BALLON4 LOGIC///////////////////////////////////
  6318                                  ;;/////////////////////////////////////////////////////////////////////////////				
  6319                                  				
  6320 000092E7 E8DFD1                  update_di_B4: call B4_CLEAR
  6321 000092EA 8306[955D]02             add word[B4_COUNTER],2
  6322 000092EF 8306[515E]01            add word[B4_COLOR_COUNTER],1
  6323 000092F4 833E[515E]08            			  cmp word[B4_COLOR_COUNTER],8
  6324 000092F9 7437                    			  je UPDATE_B4_COLOR_COUNTER
  6325                                  B4_COLOR_COUNTER_UPDATED:
  6326 000092FB 833E[955D]08                          cmp word[B4_COUNTER],8
  6327 00009300 7428                                  je POSITION_OF_BALLON_1_WRAPPER_B4			  
  6328 00009302 8B36[955D]              WRRAPER_DONE_B4: mov si,[B4_COUNTER]
  6329 00009306 8B84[6B5D]                                  mov ax,[POSITION_OF_BALLON_4+si]
  6330 0000930A A3[895D]                					mov word[CURRENT_POS_B4],AX
  6331 0000930D 8006[3D5E]01            			  add byte[B4_CHARACTER_COUNTER],1
  6332 00009312 803E[3D5E]1A            			  cmp byte[B4_CHARACTER_COUNTER],26
  6333 00009317 740A                    			  je reload_B4
  6334 00009319 833E[30C8]01            		return_B4:    cmp word[CURRENT_mode],1
  6335 0000931E 741A                                          je  update_SURVIVOR_END_4		
  6336 00009320 E99AD6                          RET_B4:            		jmp LOOP1_GAME
  6337                                  
  6338 00009323 C606[3D5E]00            		reload_B4:  mov byte[B4_CHARACTER_COUNTER],0
  6339 00009328 EBEF                    				  jmp return_B4
  6340                                  				  
  6341 0000932A C706[955D]0000          POSITION_OF_BALLON_1_WRAPPER_B4:     mov word[B4_COUNTER],0
  6342 00009330 EBD0                                                       jmp WRRAPER_DONE_B4 	
  6343                                  
  6344 00009332 C706[515E]0000          UPDATE_B4_COLOR_COUNTER: mov word[B4_COLOR_COUNTER],0
  6345 00009338 EBC1                                             jmp B4_COLOR_COUNTER_UPDATED
  6346                                  
  6347 0000933A 8306[815E]01            update_SURVIVOR_END_4: add word[SURVIVAL_COUNTER],1
  6348 0000933F EBDF                    							  jmp RET_B4								   
  6349                                  ;;;;;//////////////////////////////UPDATING SCORE DUE TO BALLON4//////////////////////////////////////
  6350                                  ;;;;;////////////////////////////////////////////////////////////////////////////////////////////////				 
  6351 00009341 C706[1900]0100          update_B4_: mov word[Ballon_pop],1
  6352 00009347 E87FD1                                call B4_CLEAR
  6353 0000934A E8B338                   call play_pop_sound
  6354 0000934D 8306[955D]02            add word[B4_COUNTER],2 
  6355 00009352 8306[515E]01            add word[B4_COLOR_COUNTER],1
  6356 00009357 833E[515E]08            			  cmp word[B4_COLOR_COUNTER],8
  6357 0000935C 0F848000                			  je UPDATE_B4_COLOR_COUNTER_
  6358                                  B4_COLOR_COUNTER_UPDATED_:
  6359 00009360 833E[955D]08                          cmp word[B4_COUNTER],8
  6360 00009365 7D53                                  jge POSITION_OF_BALLON_1_WRAPPER_B4_			  
  6361 00009367 8B36[955D]              WRRAPER_DONE_B4_:   mov si,[B4_COUNTER]           
  6362 0000936B 8B84[6B5D]              				    mov ax,[POSITION_OF_BALLON_4+si]
  6363 0000936F A3[895D]                					mov word[CURRENT_POS_B4],ax
  6364 00009372 E8ACCC                  			  call UPDATE_SCORE
  6365 00009375 C606[485E]00            			  			  mov byte[B4_CURRENT_CHARACTER],0				
  6366                                  			 
  6367                                  done_THIS_B4_:	
  6368 0000937A 8006[3D5E]01            				add byte[B4_CHARACTER_COUNTER],1
  6369 0000937F 803E[3D5E]1A            			  cmp byte[B4_CHARACTER_COUNTER],26
  6370 00009384 742D                    				je reload_B4_
  6371                                  				
  6372                                  		return_B4_: ;.......................................
  6373 00009386 8A0E[445E]              		  mov cl,[CURRENT_ENTERED_CHARACTER]
  6374                                  				  
  6375 0000938A 380E[465E]                    			  cmp byte[B2_CURRENT_CHARACTER],cl
  6376 0000938E 0F84ABFD                				  je update_B2_
  6377 00009392 380E[475E]                    			  cmp byte[B3_CURRENT_CHARACTER],cl
  6378 00009396 0F84A5FE                				  je update_B3_
  6379 0000939A 380E[455E]                    			  cmp byte[B1_CURRENT_CHARACTER],cl
  6380 0000939E 0F8499FC                				  je update_B1_
  6381                                  				  
  6382 000093A2 833E[E0C2]02            				  cmp word[CURRENT_LEVEL],2
  6383 000093A7 7419                    				  je OOHO_LEVEL_2_HA_4
  6384 000093A9 833E[E0C2]03            				   cmp word[CURRENT_LEVEL],3
  6385 000093AE 741D                    				  je OOHO_LEVEL_3_HA_4
  6386                                  				  ;...................................... 
  6387 000093B0 E90AD6                  		jmp LOOP1_GAME
  6388                                  
  6389 000093B3 C606[3D5E]00            		reload_B4_:  mov byte[B4_CHARACTER_COUNTER],0
  6390 000093B8 EBCC                    				 jmp return_B4_
  6391                                  
  6392 000093BA C706[955D]0000          POSITION_OF_BALLON_1_WRAPPER_B4_: mov word[B4_COUNTER],0
  6393 000093C0 EBA5                                                  jmp WRRAPER_DONE_B4_ 
  6394                                  
  6395 000093C2 380E[495E]              OOHO_LEVEL_2_HA_4: cmp byte[B5_CURRENT_CHARACTER],cl
  6396 000093C6 0F84A200                                    je update_B5_
  6397 000093CA E9F0D5                                      jmp LOOP1_GAME
  6398                                  
  6399 000093CD 380E[495E]              OOHO_LEVEL_3_HA_4:cmp byte[B5_CURRENT_CHARACTER],cl
  6400 000093D1 0F849700                                    je update_B5_
  6401 000093D5 380E[4A5E]              					cmp byte[B6_CURRENT_CHARACTER],cl
  6402 000093D9 0F845801                                    je update_B6_
  6403 000093DD E9DDD5                                      jmp LOOP1_GAME    
  6404                                  
  6405 000093E0 C706[515E]0000          UPDATE_B4_COLOR_COUNTER_: mov word[B4_COLOR_COUNTER],0
  6406 000093E6 E977FF                                           jmp B4_COLOR_COUNTER_UPDATED_					
  6407                                  ;;;;;///////////////////////////////////////CALLING PAUSE  SCREEN//////////////////////////////
  6408                                  ;;;;//////////////////////////////////////////////////////////////////////////////////////////
  6409                                  				 
  6410 000093E9 BF0000                  stop:                       mov di,0
  6411 000093EC 268B05                  DRAWING_OF_LEVEL_COMPLETE_:	mov ax,[es:di]
  6412 000093EF 8985[5B1F]                                          mov [PAUSE_BUUFER+di],AX
  6413 000093F3 83C702                                              add di,2
  6414 000093F6 81FF401F                                            cmp di,8000
  6415 000093FA 75F0                                                jne DRAWING_OF_LEVEL_COMPLETE_ 
  6416 000093FC 57                              push di
  6417 000093FD 52                      		push dx
  6418 000093FE C606[A6CC]01            		mov byte[pauseGame_],1
  6419 00009403 E87E06                          call pause
  6420 00009406 BF0000                  mov di,0
  6421                                  DRAWING_OF_LEVEL_COMPLETE__: 
  6422 00009409 8B85[5B1F]                                          mov ax,[PAUSE_BUUFER+di]
  6423 0000940D 268905                  								mov [es:di],ax
  6424 00009410 83C702                                              add di,2
  6425 00009413 81FF401F                                            cmp di,8000
  6426 00009417 75F0                                                jne DRAWING_OF_LEVEL_COMPLETE__ 		
  6427 00009419 C606[A6CC]00            		mov byte[pauseGame_],0
  6428 0000941E 31C0                            xor ax,ax
  6429                                  		 
  6430 00009420 5A                      		pop dx
  6431 00009421 5F                      		pop di
  6432 00009422 E998D5                          jmp LOOP1_GAME		
  6433                                  		
  6434                                  ;;		
  6435                                  		
  6436                                  ; DRAW_LEVEL_1: call LEVEL_1_THEME
  6437                                                ; jmp DRAWING_OF_LEVEL_COMPLETE		
  6438                                  
  6439                                  ; DRAW_LEVEL_2: call LEVEL_2_THEME
  6440                                                ; jmp DRAWING_OF_LEVEL_COMPLETE	
  6441                                  			  
  6442                                  ;/////////////////////////////////////////////lEVEL 2 EXTRA BALLON///////////////////////////////			  
  6443                                  ;///////////////////////////////////////////////////////////////////////////////////////////////
  6444                                  
  6445                                  			  ;;//////////////////////////////BALLON5 LOGIC////////////////////////////////				
  6446                                  ;;///////////////////////////////////////////////////////////////////////////				
  6447 00009425 E81CD2                  update_di_B5:  call B5_CLEAR
  6448 00009428 8306[975D]02            add word[B5_COUNTER],2
  6449 0000942D 8306[535E]01            add word[B5_COLOR_COUNTER],1
  6450 00009432 833E[3F5E]08            cmp word[B5_CHARACTER_COUNTER],8
  6451 00009437 742B                                  je B5_UPDATE_COLOR		  
  6452 00009439 7421                    B5_COLOR_UPDATED:              je POSITION_OF_BALLON_5_WRAPPER_B5			  
  6453 0000943B 8B36[975D]              WRRAPER_DONE_B5: mov si,[B5_COUNTER]
  6454 0000943F 8B84[735D]                                  mov ax,[POSITION_OF_BALLON_5+si]
  6455 00009443 A3[8B5D]                					mov word[CURRENT_POS_B5],AX
  6456 00009446 8006[3F5E]01                          add byte[B5_CHARACTER_COUNTER],1
  6457 0000944B 803E[3F5E]1A            			  cmp byte[B5_CHARACTER_COUNTER],26
  6458 00009450 7403                    			  je reload_B5
  6459                                  
  6460 00009452 E968D5                  		return_B5:    jmp LOOP1_GAME
  6461                                  
  6462 00009455 C606[3F5E]00            		reload_B5:  mov byte[B5_CHARACTER_COUNTER],0
  6463 0000945A EBF6                    				  jmp return_B5
  6464                                  				  
  6465 0000945C C706[975D]0000          POSITION_OF_BALLON_5_WRAPPER_B5:     mov word[B5_COUNTER],0
  6466 00009462 EBD7                                                       jmp WRRAPER_DONE_B5 		
  6467                                  
  6468                                  
  6469                                  
  6470 00009464 C706[535E]0000          B5_UPDATE_COLOR: mov word[B5_COLOR_COUNTER],0
  6471 0000946A EBCD                                     jmp B5_COLOR_UPDATED
  6472                                  							  
  6473                                  ;;;;;//////////////////////////////UPDATING SCORE DUE TO BALLON5//////////////////////////////////////
  6474                                  ;;;;;/////////////////////////////////////////////////////////////////////////////////////////////////				 
  6475 0000946C C706[1900]0100          update_B5_: mov word[Ballon_pop],1
  6476 00009472 E8CFD1                              call B5_CLEAR
  6477 00009475 E88837                   call play_pop_sound
  6478 00009478 8306[975D]02            add word[B5_COUNTER],2 
  6479 0000947D 8306[535E]01            add word[B5_COLOR_COUNTER],1
  6480 00009482 833E[3F5E]08            cmp word[B5_CHARACTER_COUNTER],8
  6481 00009487 746C                                  je B5_UPDATE_COLOR_			  
  6482                                  B5_COLOR_UPDATED_:              
  6483 00009489 833E[975D]08                          cmp word[B5_COUNTER],8
  6484 0000948E 7D54                                  jge POSITION_OF_BALLON_5_WRAPPER_B5_			  
  6485 00009490 8B36[975D]              WRRAPER_DONE_B5_:   mov si,[B5_COUNTER]           
  6486 00009494 8B84[735D]              				    mov ax,[POSITION_OF_BALLON_5+si]
  6487 00009498 A3[8B5D]                					mov word[CURRENT_POS_B5],AX
  6488 0000949B E883CB                  			  call UPDATE_SCORE
  6489 0000949E C606[495E]00            			  mov byte[B5_CURRENT_CHARACTER],0				
  6490                                  			  
  6491                                  done_THIS_B5_:				  
  6492 000094A3 8006[3F5E]01            				add byte[B5_CHARACTER_COUNTER],1
  6493 000094A8 803E[3F5E]1A            			  cmp byte[B5_CHARACTER_COUNTER],26
  6494 000094AD 742E                    				je reload_B5_
  6495                                  				
  6496                                  		return_B5_: ;.............;;.............
  6497 000094AF 8A0E[445E]              				  mov cl,[CURRENT_ENTERED_CHARACTER]
  6498 000094B3 380E[455E]              				  cmp byte[B1_CURRENT_CHARACTER],cl
  6499 000094B7 0F8480FB                				  je update_B1_
  6500 000094BB 380E[465E]                    			  cmp byte[B2_CURRENT_CHARACTER],cl
  6501 000094BF 0F847AFC                				  je update_B2_
  6502 000094C3 380E[475E]                    			  cmp byte[B3_CURRENT_CHARACTER],cl
  6503 000094C7 0F8474FD                				  je update_B3_
  6504 000094CB 380E[485E]                    			  cmp byte[B4_CURRENT_CHARACTER],cl
  6505 000094CF 0F846EFE                				  je update_B4_
  6506                                  				  
  6507                                  				
  6508 000094D3 833E[E0C2]03            				   cmp word[CURRENT_LEVEL],3
  6509 000094D8 7412                    				  je OOHO_LEVEL_3_HA_5
  6510                                  			  ;;;..........................................  
  6511 000094DA E9E0D4                  		jmp LOOP1_GAME
  6512                                  
  6513 000094DD C606[3F5E]00            		reload_B5_: mov byte[B5_CHARACTER_COUNTER],0; 
  6514 000094E2 EBCB                    				 jmp return_B5_
  6515                                  
  6516 000094E4 C706[975D]0000          POSITION_OF_BALLON_5_WRAPPER_B5_: mov word[B5_COUNTER],0
  6517 000094EA EBA4                                                  jmp WRRAPER_DONE_B5_  
  6518                                  							  
  6519                                  
  6520 000094EC 380E[4A5E]              OOHO_LEVEL_3_HA_5:cmp byte[B6_CURRENT_CHARACTER],cl
  6521 000094F0 7443                                        je update_B6_
  6522 000094F2 E9C8D4                                      jmp LOOP1_GAME    							  							  
  6523                                  							  
  6524                                  							  
  6525 000094F5 C706[535E]0000          B5_UPDATE_COLOR_: mov word[B5_COLOR_COUNTER],0
  6526 000094FB EB8C                                     jmp B5_COLOR_UPDATED_							  
  6527                                  			  ;;//////////////////////////////BALLON6 LOGIC////////////////////////////////				
  6528                                  ;;///////////////////////////////////////////////////////////////////////////				
  6529 000094FD E8BFD2                  update_di_B6:  call B6_CLEAR
  6530 00009500 8306[995D]02            add word[B6_COUNTER],2
  6531 00009505 833E[995D]08                          cmp word[B6_COUNTER],8
  6532 0000950A 7421                                  je POSITION_OF_BALLON_6_WRAPPER_B6			  
  6533 0000950C 8B36[995D]              WRRAPER_DONE_B6: mov si,[B6_COUNTER]
  6534 00009510 8B84[7B5D]                                  mov ax,[POSITION_OF_BALLON_6+si]
  6535 00009514 A3[8D5D]                					mov word[CURRENT_POS_B6],AX
  6536 00009517 8006[415E]01                          add byte[B6_CHARACTER_COUNTER],1
  6537 0000951C 803E[415E]1A            			  cmp byte[B6_CHARACTER_COUNTER],26
  6538 00009521 7403                    			  je reload_B6
  6539                                  
  6540 00009523 E997D4                  		return_B6:    jmp LOOP1_GAME
  6541                                  
  6542 00009526 C606[415E]00            		reload_B6:  mov byte[B6_CHARACTER_COUNTER],0
  6543 0000952B EBF6                    				  jmp return_B6
  6544                                  				  
  6545 0000952D C706[995D]0000          POSITION_OF_BALLON_6_WRAPPER_B6:     mov word[B6_COUNTER],0
  6546 00009533 EBD7                                                       jmp WRRAPER_DONE_B6 		
  6547                                  
  6548                                  
  6549                                  
  6550                                  
  6551                                  							  
  6552                                  ;;;;;//////////////////////////////UPDATING SCORE DUE TO BALLON5//////////////////////////////////////
  6553                                  ;;;;;/////////////////////////////////////////////////////////////////////////////////////////////////				 
  6554 00009535 C706[1900]0100          update_B6_: mov word[Ballon_pop],1
  6555 0000953B E881D2                              call B6_CLEAR
  6556 0000953E E8BF36                   call play_pop_sound  
  6557 00009541 8306[995D]02             add word[B6_COUNTER],2 
  6558 00009546 833E[995D]08                          cmp word[B6_COUNTER],8
  6559 0000954B 7D55                                  jge POSITION_OF_BALLON_6_WRAPPER_B6_			  
  6560 0000954D 8B36[995D]              WRRAPER_DONE_B6_:   mov si,[B6_COUNTER]           
  6561 00009551 8B84[7B5D]              				    mov ax,[POSITION_OF_BALLON_6+si]
  6562 00009555 A3[8D5D]                					mov word[CURRENT_POS_B6],AX
  6563 00009558 E8C6CA                  			  call UPDATE_SCORE
  6564 0000955B C606[4A5E]00            			  mov byte[B6_CURRENT_CHARACTER],0				
  6565                                  			  
  6566                                  done_THIS_B6_:				  
  6567 00009560 8006[415E]01            				add byte[B6_CHARACTER_COUNTER],1
  6568 00009565 803E[415E]1A            			  cmp byte[B6_CHARACTER_COUNTER],26
  6569 0000956A 742F                    				je reload_B6_
  6570                                  				
  6571                                  		return_B6_: ;.............;;.............
  6572 0000956C 8A0E[445E]              				  mov cl,[CURRENT_ENTERED_CHARACTER]
  6573                                  				  
  6574 00009570 380E[455E]              				  cmp byte[B1_CURRENT_CHARACTER],cl
  6575 00009574 0F84C3FA                				  je update_B1_
  6576 00009578 380E[465E]                    			  cmp byte[B2_CURRENT_CHARACTER],cl
  6577 0000957C 0F84BDFB                				  je update_B2_
  6578 00009580 380E[475E]                    			  cmp byte[B3_CURRENT_CHARACTER],cl
  6579 00009584 0F84B7FC                				  je update_B3_
  6580 00009588 380E[485E]                    			  cmp byte[B4_CURRENT_CHARACTER],cl
  6581 0000958C 0F84B1FD                				  je update_B4_
  6582 00009590 380E[495E]              				  cmp byte[B5_CURRENT_CHARACTER],cl
  6583 00009594 0F84D4FE                				  je update_B5_
  6584                                  			  ;;;..........................................  
  6585 00009598 E922D4                  		jmp LOOP1_GAME
  6586                                  
  6587 0000959B C606[415E]00            		reload_B6_: mov byte[B6_CHARACTER_COUNTER],0; 
  6588 000095A0 EBCA                    				 jmp return_B6_
  6589                                  
  6590 000095A2 C706[995D]0000          POSITION_OF_BALLON_6_WRAPPER_B6_: mov word[B6_COUNTER],0
  6591 000095A8 EBA3                                                  jmp WRRAPER_DONE_B6_  							  
  6592                                  			  
  6593                                  ;;//////////////////////////////////////Ending Game/////////////////////////////////////////////
  6594                                  ;;/////////////////////////////////////////////////////////////////////////////////////////////
  6595                                  
  6596                                  
  6597                                  
  6598                                  				
  6599 000095AA 5A                      game_end:		pop dx
  6600 000095AB 5F                      				pop di
  6601 000095AC 58                      				pop AX
  6602 000095AD 07                      				pop es
  6603 000095AE 5D                      				pop bp
  6604                                  		 
  6605 000095AF C3                      				ret
  6606                                  ;;//////////////////////////////CLEAR SCREEN FUNCTION FOR PAUSE SCREEN//////////////////////////////
  6607                                  ;///////////////////////////////////////////////////////////////////////////////////////////////////
  6608                                  clrscr_PAUSE:
  6609 000095B0 50                      	push ax
  6610 000095B1 06                      	push es
  6611                                  	
  6612 000095B2 57                      	push di
  6613                                  	
  6614 000095B3 B800B8                  	mov ax , 0xb800
  6615 000095B6 BF0000                  	mov di , 0
  6616 000095B9 8EC0                    	mov es , ax
  6617                                  	
  6618                                  	nextchar_pause:
  6619 000095BB B8DB0A                  		mov ax , 0x0ADB
  6620 000095BE 268905                  		mov word [es:di] , ax
  6621 000095C1 83C702                  		add di , 2
  6622 000095C4 81FFA00F                		cmp di , 4000
  6623 000095C8 75F1                    		jne nextchar_pause	
  6624                                  
  6625 000095CA 5F                            pop di
  6626 000095CB 07                      	  pop es
  6627 000095CC 58                      	  pop ax
  6628 000095CD C3                            ret  
  6629                                  
  6630                                  
  6631                                  ;;//////////////////////////////PAUSE SCREEN////////////////////////////////////////////////////////
  6632                                  ;///////////////////////////////////////////////////////////////////////////////////////////////////	  
  6633                                  print_P1_PAUSE:
  6634 000095CE 60                              pusha
  6635                                  		
  6636                                  		
  6637                                  		
  6638 000095CF B402                    		mov ah,0x02
  6639 000095D1 B0DB                    		mov al,0xDB
  6640                                  		
  6641 000095D3 BE00B8                  		mov si,0xb800
  6642 000095D6 8EC6                    		mov es,si
  6643 000095D8 BF1800                  		mov di,24
  6644 000095DB 268985EA01              		mov word[es:di+490],ax
  6645 000095E0 268985EC01              		mov word[es:di+492],ax
  6646 000095E5 268985EE01              		mov word[es:di+494],ax
  6647 000095EA 268985F001              		mov word[es:di+496],ax
  6648 000095EF 268985F201              		mov word[es:di+498],ax
  6649 000095F4 268985F401              		mov word[es:di+500],ax
  6650                                  		
  6651 000095F9 2689858A02              		mov word[es:di+650],ax
  6652 000095FE 2689858C02              		mov word[es:di+652],ax
  6653 00009603 2689859802              		mov word[es:di+664],ax
  6654 00009608 2689859402              		mov word[es:di+660],ax
  6655 0000960D 2689859602              		mov word[es:di+662],ax
  6656                                  		
  6657 00009612 2689852A03              		mov word[es:di+810],ax
  6658 00009617 2689852C03              		mov word[es:di+812],ax
  6659 0000961C 2689853403              		mov word[es:di+820],ax
  6660 00009621 2689853603              		mov word[es:di+822],ax
  6661 00009626 2689853803              		mov word[es:di+824],ax
  6662 0000962B 2689853A03              		mov word[es:di+826],ax
  6663                                  		
  6664 00009630 268985CA03              		mov word[es:di+970],ax
  6665 00009635 268985CC03              		mov word[es:di+972],ax
  6666 0000963A 268985CE03              		mov word[es:di+974],ax
  6667 0000963F 268985D003              		mov word[es:di+976],ax
  6668 00009644 268985D203              		mov word[es:di+978],ax
  6669 00009649 268985D403              		mov word[es:di+980],ax
  6670 0000964E 268985D603              		mov word[es:di+982],ax
  6671 00009653 268985D803              		mov word[es:di+984],ax
  6672                                  		
  6673 00009658 2689856A04              		mov word[es:di+1130],ax
  6674 0000965D 2689856C04              		mov word[es:di+1132],ax
  6675 00009662 2689856E04              		mov word[es:di+1134],ax
  6676 00009667 2689857004              		mov word[es:di+1136],ax
  6677 0000966C 2689857204              		mov word[es:di+1138],ax
  6678 00009671 2689857404              		mov word[es:di+1140],ax
  6679                                  		
  6680 00009676 2689850A05              		mov word[es:di+1290],ax
  6681 0000967B 2689850C05              		mov word[es:di+1292],ax
  6682                                  		
  6683                                  
  6684 00009680 268985AA05              		mov word[es:di+1450],ax
  6685 00009685 268985AC05              		mov word[es:di+1452],ax
  6686                                  		
  6687                                  		
  6688 0000968A 2689854A06              		mov word[es:di+1610],ax
  6689 0000968F 2689854C06              		mov word[es:di+1612],ax
  6690                                  		
  6691 00009694 61                      	  popa
  6692 00009695 C3                      	  ret
  6693                                  print_A_PAUSE:
  6694 00009696 60                              pusha
  6695                                  		
  6696 00009697 B402                    		mov ah,0x02
  6697 00009699 B0DB                    		mov al,0xDB
  6698                                  		
  6699 0000969B BE00B8                  		mov si,0xb800
  6700 0000969E 8EC6                    		mov es,si
  6701 000096A0 BF2C00                  		mov di,44
  6702 000096A3 268985EE01              		mov word[es:di+490+4],ax
  6703 000096A8 268985F001              		mov word[es:di+490+6],ax
  6704 000096AD 268985F201              		mov word[es:di+490+8],ax
  6705 000096B2 268985F401              		mov word[es:di+504-4],ax
  6706                                  		
  6707 000096B7 2689858A02              		mov word[es:di+650],ax
  6708 000096BC 2689858C02              		mov word[es:di+652],ax
  6709 000096C1 2689859602              		mov word[es:di+662],ax
  6710 000096C6 2689859802              		mov word[es:di+664],ax
  6711                                  		
  6712 000096CB 2689852A03              		mov word[es:di+810],ax
  6713 000096D0 2689852C03              		mov word[es:di+812],ax
  6714 000096D5 2689853603              		mov word[es:di+822],ax
  6715 000096DA 2689853803              		mov word[es:di+824],ax
  6716                                  		
  6717 000096DF 268985CA03              		mov word[es:di+970],ax
  6718 000096E4 268985CC03              		mov word[es:di+972],ax
  6719 000096E9 268985D603              		mov word[es:di+982],ax
  6720 000096EE 268985D803              		mov word[es:di+984],ax
  6721                                  		
  6722 000096F3 2689856A04              		mov word[es:di+1130],ax
  6723 000096F8 2689856C04              		mov word[es:di+1132],ax
  6724 000096FD 2689856E04              		mov word[es:di+1134],ax
  6725 00009702 2689857004              		mov word[es:di+1136],ax
  6726 00009707 2689857204              		mov word[es:di+1138],ax
  6727 0000970C 2689857404              		mov word[es:di+1140],ax
  6728 00009711 2689857604              		mov word[es:di+1142],ax
  6729 00009716 2689857804              		mov word[es:di+1144],ax
  6730                                  		
  6731 0000971B 2689850A05              		mov word[es:di+1290],ax
  6732 00009720 2689850C05              		mov word[es:di+1292],ax
  6733 00009725 2689851605              		mov word[es:di+1302],ax
  6734 0000972A 2689851805              		mov word[es:di+1304],ax
  6735                                  		
  6736                                  		
  6737 0000972F 268985AC05              		mov word[es:di+1452],ax
  6738 00009734 268985AA05              		mov word[es:di+1452-2],ax
  6739 00009739 268985B805              	    mov word[es:di+1462+2],ax
  6740 0000973E 268985B605              		mov word[es:di+1462],ax
  6741                                  
  6742                                  		
  6743 00009743 2689854C06              		mov word[es:di+1614-2],ax
  6744 00009748 2689854A06              		mov word[es:di+1614-4],ax
  6745 0000974D 2689855606              		mov word[es:di+1620+2],ax
  6746 00009752 2689855806              		mov word[es:di+1620+4],ax
  6747                                  
  6748 00009757 61                      	  popa
  6749 00009758 C3                      	  ret
  6750                                  	  
  6751                                  	  
  6752                                  	  	  
  6753                                  print_U_PAUSE:
  6754 00009759 60                              pusha
  6755                                  		
  6756 0000975A B402                    		mov ah,0x02
  6757 0000975C B0DB                    		mov al,0xDB
  6758                                  		
  6759 0000975E BE00B8                  		mov si,0xb800
  6760 00009761 8EC6                    		mov es,si
  6761 00009763 BF4000                  		mov di,64
  6762 00009766 268985EA01              		mov word[es:di+490],ax
  6763 0000976B 268985EC01              		mov word[es:di+492],ax
  6764 00009770 268985F601              		mov word[es:di+502],ax
  6765 00009775 268985F801              		mov word[es:di+504],ax
  6766                                  		
  6767 0000977A 2689858A02              		mov word[es:di+650],ax
  6768 0000977F 2689858C02              		mov word[es:di+652],ax
  6769 00009784 2689859602              		mov word[es:di+662],ax
  6770 00009789 2689859802              		mov word[es:di+664],ax
  6771                                  		
  6772 0000978E 2689852A03              		mov word[es:di+810],ax
  6773 00009793 2689852C03              		mov word[es:di+812],ax
  6774 00009798 2689853603              		mov word[es:di+822],ax
  6775 0000979D 2689853803              		mov word[es:di+824],ax
  6776                                  		
  6777 000097A2 268985CA03              		mov word[es:di+970],ax
  6778 000097A7 268985CC03              		mov word[es:di+972],ax
  6779 000097AC 268985D603              		mov word[es:di+982],ax
  6780 000097B1 268985D803              		mov word[es:di+984],ax
  6781                                  		
  6782 000097B6 2689856A04              		mov word[es:di+1130],ax
  6783 000097BB 2689856C04              		mov word[es:di+1132],ax
  6784 000097C0 2689857604              		mov word[es:di+1142],ax
  6785 000097C5 2689857804              		mov word[es:di+1144],ax
  6786                                  		
  6787 000097CA 2689850A05              		mov word[es:di+1290],ax
  6788 000097CF 2689850C05              		mov word[es:di+1292],ax
  6789 000097D4 2689851605              		mov word[es:di+1302],ax
  6790 000097D9 2689851805              		mov word[es:di+1304],ax
  6791                                  		
  6792                                  		
  6793 000097DE 268985AC05              		mov word[es:di+1452],ax
  6794                                  
  6795 000097E3 268985B605              		mov word[es:di+1462],ax
  6796                                  
  6797                                  		
  6798 000097E8 2689854E06              		mov word[es:di+1614],ax
  6799 000097ED 2689855006              		mov word[es:di+1616],ax
  6800 000097F2 2689855206              		mov word[es:di+1618],ax
  6801 000097F7 2689855406              		mov word[es:di+1620],ax
  6802                                  
  6803 000097FC 61                      	  popa
  6804 000097FD C3                      	  ret
  6805                                  	  
  6806                                  print_S_PAUSE:
  6807 000097FE 60                              pusha
  6808                                  		
  6809 000097FF B402                    		mov ah,0x02
  6810 00009801 B0DB                    		mov al,0xDB
  6811                                  		
  6812 00009803 BE00B8                  		mov si,0xb800
  6813 00009806 8EC6                    		mov es,si
  6814 00009808 BF5600                  		mov di,86
  6815 0000980B 268985EC01              		mov word[es:di+492],ax
  6816 00009810 268985EE01              		mov word[es:di+494],ax
  6817 00009815 268985F001              		mov word[es:di+496],ax
  6818 0000981A 268985F201              		mov word[es:di+498],ax
  6819 0000981F 268985F401              		mov word[es:di+500],ax
  6820                                  		
  6821 00009824 2689858A02              		mov word[es:di+650],ax
  6822 00009829 2689858C02              		mov word[es:di+652],ax
  6823 0000982E 2689859402              		mov word[es:di+660],ax
  6824 00009833 2689859602              		mov word[es:di+662],ax
  6825                                  		
  6826 00009838 2689852A03              		mov word[es:di+810],ax
  6827 0000983D 2689852C03              		mov word[es:di+812],ax
  6828 00009842 2689852803              		mov word[es:di+808],ax
  6829                                  		
  6830 00009847 268985CA03              		mov word[es:di+970],ax
  6831 0000984C 268985CC03              		mov word[es:di+972],ax
  6832 00009851 268985CE03              		mov word[es:di+974],ax
  6833 00009856 268985D003              		mov word[es:di+976],ax
  6834 0000985B 268985D203              		mov word[es:di+978],ax
  6835 00009860 268985D403              		mov word[es:di+980],ax
  6836 00009865 2689857204              		mov word[es:di+1138],ax
  6837 0000986A 2689857404              		mov word[es:di+1140],ax
  6838 0000986F 2689857604              		mov word[es:di+1142],ax
  6839                                  		
  6840                                  		
  6841 00009874 2689851605              		mov word[es:di+1302],ax
  6842 00009879 2689851405              		mov word[es:di+1300],ax
  6843 0000987E 2689851805              		mov word[es:di+1304],ax
  6844                                  
  6845 00009883 268985AA05              		mov word[es:di+1450],ax
  6846 00009888 268985AC05              		mov word[es:di+1452],ax
  6847 0000988D 268985B405              		mov word[es:di+1460],ax
  6848 00009892 268985B605              		mov word[es:di+1462],ax
  6849                                  		
  6850                                  		
  6851 00009897 2689854C06              		mov word[es:di+1612],ax
  6852 0000989C 2689854E06              		mov word[es:di+1614],ax
  6853 000098A1 2689855006              		mov word[es:di+1616],ax
  6854 000098A6 2689855406              		mov word[es:di+1620],ax
  6855 000098AB 2689855206              		mov word[es:di+1618],ax
  6856                                  		
  6857 000098B0 61                      	  popa
  6858 000098B1 C3                      	  ret
  6859                                  	  
  6860                                  print_E_PAUSE:
  6861 000098B2 60                              pusha
  6862                                  		
  6863 000098B3 B402                    		mov ah,0x02
  6864 000098B5 B0DB                    		mov al,0xDB
  6865                                  		
  6866 000098B7 BE00B8                  		mov si,0xb800
  6867 000098BA 8EC6                    		mov es,si
  6868 000098BC BF6800                  		mov di,104
  6869 000098BF 268985EA01              		mov word[es:di+490],ax
  6870 000098C4 268985EC01              		mov word[es:di+492],ax
  6871 000098C9 268985EE01              		mov word[es:di+494],ax
  6872 000098CE 268985F001              		mov word[es:di+496],ax
  6873 000098D3 268985F201              		mov word[es:di+498],ax
  6874 000098D8 268985F401              		mov word[es:di+500],ax
  6875 000098DD 268985F601              		mov word[es:di+502],ax
  6876 000098E2 268985F801              		mov word[es:di+504],ax
  6877                                  		
  6878 000098E7 2689858A02              		mov word[es:di+650],ax
  6879 000098EC 2689858C02              		mov word[es:di+652],ax
  6880                                  		
  6881 000098F1 2689852A03              		mov word[es:di+810],ax
  6882 000098F6 2689852C03              		mov word[es:di+812],ax
  6883                                  		
  6884 000098FB 268985CA03              		mov word[es:di+970],ax
  6885 00009900 268985CC03              		mov word[es:di+972],ax
  6886 00009905 268985CE03              		mov word[es:di+974],ax
  6887 0000990A 268985D003              		mov word[es:di+976],ax
  6888 0000990F 268985D203              		mov word[es:di+978],ax
  6889 00009914 268985D403              		mov word[es:di+980],ax
  6890                                  		
  6891 00009919 2689856A04              		mov word[es:di+1130],ax
  6892 0000991E 2689856C04              		mov word[es:di+1132],ax
  6893 00009923 2689856E04              		mov word[es:di+1134],ax
  6894 00009928 2689857004              		mov word[es:di+1136],ax
  6895 0000992D 2689857204              		mov word[es:di+1138],ax
  6896 00009932 2689857404              		mov word[es:di+1140],ax
  6897                                  		
  6898 00009937 2689850A05              		mov word[es:di+1290],ax
  6899 0000993C 2689850C05              		mov word[es:di+1292],ax
  6900                                  
  6901 00009941 268985AA05              		mov word[es:di+1450],ax
  6902 00009946 268985AC05              		mov word[es:di+1452],ax
  6903                                  		
  6904                                  		
  6905 0000994B 2689854A06              		mov word[es:di+1610],ax
  6906 00009950 2689854C06              		mov word[es:di+1612],ax
  6907 00009955 2689854E06              		mov word[es:di+1614],ax
  6908 0000995A 2689855006              		mov word[es:di+1616],ax
  6909 0000995F 2689855206              		mov word[es:di+1618],ax
  6910 00009964 2689855406              		mov word[es:di+1620],ax
  6911 00009969 2689855606              		mov word[es:di+1622],ax
  6912 0000996E 2689855806              		mov word[es:di+1624],ax
  6913                                  		
  6914                                  		
  6915 00009973 61                      	  popa
  6916 00009974 C3                      	  ret
  6917                                  	  
  6918                                  
  6919                                  RESUME_PAUSE:
  6920 00009975 60                              pusha
  6921 00009976 BF8409                  		mov di,2436
  6922 00009979 BE0000                  		mov si,0
  6923 0000997C B800B8                  		mov ax,0xb800
  6924 0000997F 8EC0                    		mov es,ax
  6925 00009981 B507                    		mov ch,0x07
  6926 00009983 B120                    		mov cl,' '
  6927 00009985 26894D0A                		mov  word[es:di+10],cx
  6928 00009989 26894D01                		mov  word[es:di+1],cx
  6929 0000998D 26894DFE                		mov  word[es:di-2],cx
  6930 00009991 B50F                    		mov ch,0x0F
  6931 00009993 8A8C[F55C]              loop1_PAUSE:		mov cl,[msg1_GAME+si]
  6932 00009997 26890D                  		mov  word[es:di],cx
  6933 0000999A 83C702                  		add di,2
  6934 0000999D 83C601                  		add si,1
  6935 000099A0 3B36[FB5C]              		cmp si,[size1_GAME]
  6936 000099A4 7EED                    		jle loop1_PAUSE
  6937 000099A6 61                           popa 
  6938 000099A7 C3                           ret	 
  6939                                  	 
  6940                                  END_PAUSE:
  6941 000099A8 60                              pusha
  6942 000099A9 BFC40A                  		mov di,2756
  6943 000099AC BE0000                  		mov si,0
  6944 000099AF B800B8                  		mov ax,0xb800
  6945 000099B2 8EC0                    		mov es,ax
  6946 000099B4 B507                    		mov ch,0x07
  6947 000099B6 B120                    		mov cl,' '
  6948 000099B8 26894D06                		mov  word[es:di+6],cx
  6949 000099BC 26894DFE                		mov  word[es:di-2],cx
  6950 000099C0 B50F                    		mov ch,0x0F
  6951 000099C2 8A8C[FD5C]              loop2_PAUSE:		mov cl,[msg2_GAME+si]
  6952 000099C6 26890D                  		mov  word[es:di],cx
  6953 000099C9 83C702                  		add di,2
  6954 000099CC 83C601                  		add si,1
  6955 000099CF 3B36[005D]              		cmp si,[size2_GAME]
  6956 000099D3 7EED                    		jle loop2_PAUSE
  6957 000099D5 61                           popa 
  6958 000099D6 C3                           ret
  6959                                  	 
  6960                                  	 
  6961                                  R_TIME_PAUSE:
  6962 000099D7 60                       pusha
  6963 000099D8 BF040B                  		mov di,2820
  6964 000099DB BE0000                  		mov si,0
  6965 000099DE B800B8                  		mov ax,0xb800
  6966 000099E1 8EC0                    		mov es,ax
  6967 000099E3 B507                    		mov ch,0x07
  6968 000099E5 B120                    		mov cl,' '
  6969 000099E7 26894D06                		mov  word[es:di+6],cx
  6970 000099EB 26894DFE                		mov  word[es:di-2],cx
  6971 000099EF B50F                    		mov ch,0x0F
  6972 000099F1 8A8C[265D]              loop_R:		mov cl,[msg4_GAME+si]
  6973 000099F5 26890D                  		mov  word[es:di],cx
  6974 000099F8 83C702                  		add di,2
  6975 000099FB 83C601                  		add si,1
  6976 000099FE 3B36[355D]              		cmp si,[size4_GAME]
  6977 00009A02 7EED                    		jle loop_R
  6978 00009A04 BE0000                          mov si,0  
  6979 00009A07 8A8C[485D]              loop_REM_TIME:		mov cl,[TIME_DIGIT+si]
  6980 00009A0B 26890D                  		mov  word[es:di],cx
  6981 00009A0E 83C702                  		add di,2
  6982 00009A11 83C601                  		add si,1
  6983 00009A14 80BC[485D]00            		cmp byte[TIME_DIGIT+si],0x00
  6984 00009A19 75EC                    		jne loop_REM_TIME	
  6985                                  		
  6986                                  		
  6987 00009A1B 61                           popa 
  6988 00009A1C C3                           ret
  6989                                  	 
  6990                                  C_SCORE_PAUSE:
  6991 00009A1D 60                       pusha
  6992 00009A1E BFC409                  		mov di,2500
  6993 00009A21 BE0000                  		mov si,0
  6994 00009A24 B800B8                  		mov ax,0xb800
  6995 00009A27 8EC0                    		mov es,ax
  6996 00009A29 B507                    		mov ch,0x07
  6997 00009A2B B120                    		mov cl,' '
  6998 00009A2D 26894D06                		mov  word[es:di+6],cx
  6999 00009A31 26894DFE                		mov  word[es:di-2],cx
  7000 00009A35 B50F                    		mov ch,0x0F
  7001 00009A37 8A8C[375D]              loop_S:		mov cl,[msg5_GAME+si]
  7002 00009A3B 26890D                  		mov  word[es:di],cx
  7003 00009A3E 83C702                  		add di,2
  7004 00009A41 83C601                  		add si,1
  7005 00009A44 3B36[455D]              		cmp si,[size5_GAME]
  7006 00009A48 7EED                    		jle loop_S
  7007 00009A4A BE0000                  		mov si,0
  7008 00009A4D 8A8C[F05C]              loop_REM_SCORE:		mov cl,[SCORE_digit_GAME+si]
  7009 00009A51 26890D                  		mov  word[es:di],cx
  7010 00009A54 83C702                  		add di,2
  7011 00009A57 83C601                  		add si,1
  7012 00009A5A 83FE02                  		cmp si,2
  7013 00009A5D 7EEE                    		jle loop_REM_SCORE
  7014 00009A5F 61                           popa 
  7015 00009A60 C3                           ret
  7016                                  	 
  7017                                  
  7018                                  	 
  7019                                  Instruction_PAUSE:
  7020 00009A61 60                              pusha
  7021 00009A62 BF880E                  		mov di,3720
  7022 00009A65 BE0000                  		mov si,0
  7023 00009A68 B800B8                  		mov ax,0xb800
  7024 00009A6B 8EC0                    		mov es,ax
  7025 00009A6D B50F                    		mov ch,0x0F
  7026 00009A6F 8A8C[025D]              loop3_INSTRUCTION:		mov cl,[msg3_GAME+si]
  7027 00009A73 26890D                  		mov  word[es:di],cx
  7028 00009A76 83C702                  		add di,2
  7029 00009A79 83C601                  		add si,1
  7030 00009A7C 3B36[245D]              		cmp si,[size3_GAME]
  7031 00009A80 7EED                    		jle loop3_INSTRUCTION
  7032 00009A82 61                           popa 
  7033 00009A83 C3                           ret   		
  7034 00009A84 60                      pause:      pusha
  7035                                  
  7036 00009A85 E81132                               call stop_sound
  7037 00009A88 E825FB                  	        call clrscr_PAUSE
  7038 00009A8B E840FB                  			call print_P1_PAUSE
  7039 00009A8E E805FC                  			call print_A_PAUSE
  7040                                  			
  7041 00009A91 E8C5FC                  			call print_U_PAUSE
  7042 00009A94 E867FD                  			call print_S_PAUSE
  7043 00009A97 E818FE                  			call print_E_PAUSE
  7044                                  			
  7045 00009A9A E8D8FE                  			call RESUME_PAUSE
  7046 00009A9D E808FF                  			call END_PAUSE
  7047 00009AA0 E834FF                  			call R_TIME_PAUSE
  7048 00009AA3 E877FF                  			call C_SCORE_PAUSE
  7049 00009AA6 E8B8FF                  			call Instruction_PAUSE			
  7050 00009AA9 31C0                    		    xor ax,ax
  7051 00009AAB B400                    retu1_pause: mov ah,0x00		;call input	
  7052 00009AAD CD16                                int 16h
  7053 00009AAF 3C20                                cmp al,32
  7054 00009AB1 740B                                je back_FROM_PAUSE
  7055 00009AB3 3C1B                    			cmp al,27
  7056 00009AB5 7402                    			je GAME_END_SO_RETURN;GAME_END
  7057                                  			
  7058 00009AB7 EBF2                    			jmp retu1_pause
  7059                                  			; cmp al,32
  7060                                  			; jne retu1_pause
  7061 00009AB9 C606[435E]01            GAME_END_SO_RETURN: mov byte[GAME_END_SO],1			
  7062 00009ABE 61                      back_FROM_PAUSE: popa
  7063 00009ABF C3                                ret 				
  7064                                  ;/////////////////////////////////////////////////END_OF_GAME//////////////////////////////////
  7065                                  ;/////////////////////////////////////////////////////////////////////////////////////////////	
  7066 00009AC0 60                      Print_secren2:	pusha		
  7067 00009AC1 E876C4                  			   call clearscreen_GAME
  7068                                  
  7069 00009AC4 E873CE                  				call DrawBaloon_GAME
  7070                                  			
  7071 00009AC7 61                      GAME_END:                popa
  7072 00009AC8 C3                      				ret
  7073                                  				
  7074                                  ;;////////////////////////////////////////LEVEL 1 SCREEN//////////////////////////////////////
  7075                                  ;;///////////////////////////////////////////////////////////////////////////////////////////				
  7076                                  
  7077 00009AC9 4001                    CLOUD_1_LEVEL_1_POS: dw 320
  7078 00009ACB 74FF                    CLOUD_2_LEVEL_1_POS: dw -140
  7079 00009ACD 38FF                    CLOUD_3_LEVEL_1_POS: dw -200
  7080                                  
  7081                                  
  7082 00009ACF 60                      clscr_LEVEL_1: pusha
  7083 00009AD0 BF0000                  mov di,0
  7084 00009AD3 B800B8                         mov ax,0xb800
  7085 00009AD6 8EC0                    	   mov es,ax
  7086 00009AD8 B8DB0B                  	   mov ax,0x0BDB
  7087 00009ADB B9D007                         mov cx,2000
  7088 00009ADE FC                      	   cld
  7089 00009ADF F3AB                    	   rep stosw
  7090 00009AE1 FD                             std  
  7091 00009AE2 61                             popa 
  7092 00009AE3 C3                      	   ret
  7093                                  
  7094                                  
  7095 00009AE4 60                      GRASS: pusha
  7096 00009AE5 B800B8                         mov ax,0xb800
  7097 00009AE8 8EC0                    	   mov es,ax
  7098 00009AEA B402                    	   mov ah,0x02
  7099 00009AEC B0DB                    	   mov al,0xDB
  7100 00009AEE B90600                         mov cx,6
  7101 00009AF1 BFE00B                  	   mov di,3040
  7102 00009AF4 268905                  F_G_1_LEVEL_1:  mov word[es:di],ax
  7103 00009AF7 81C7A000                        add di,160
  7104 00009AFB E2F7                            loop F_G_1_LEVEL_1
  7105                                  
  7106 00009AFD B90500                         mov cx,5
  7107 00009B00 BF820C                  	   mov di,3202
  7108 00009B03 268905                  F_G_2_LEVEL_1:  mov word[es:di],ax
  7109 00009B06 81C7A000                        add di,160
  7110 00009B0A E2F7                            loop F_G_2_LEVEL_1
  7111                                        
  7112 00009B0C B40A                    	  mov ah,0x0A
  7113 00009B0E B90500                         mov cx,5
  7114 00009B11 BF840C                  	   mov di,3204
  7115 00009B14 268905                  F_G_3_LEVEL_1:  mov word[es:di],ax
  7116 00009B17 81C7A000                        add di,160
  7117 00009B1B E2F7                            loop F_G_3_LEVEL_1
  7118                                  		
  7119 00009B1D B90400                         mov cx,4
  7120 00009B20 BF260D                  	   mov di,3366
  7121 00009B23 268905                  F_G_4_LEVEL_1:  mov word[es:di],ax
  7122 00009B26 81C7A000                        add di,160
  7123 00009B2A E2F7                            loop F_G_4_LEVEL_1
  7124                                  
  7125 00009B2C B402                    mov ah,0x02
  7126 00009B2E B90300                         mov cx,3
  7127 00009B31 BFC80D                  	   mov di,3528
  7128 00009B34 268905                  F_G_5_LEVEL_1:  mov word[es:di],ax
  7129 00009B37 81C7A000                        add di,160
  7130 00009B3B E2F7                            loop F_G_5_LEVEL_1
  7131                                  
  7132 00009B3D B90300                         mov cx,3
  7133 00009B40 BF0A0F                  	   mov di,3850
  7134 00009B43 268905                  F_G_6_LEVEL_1:  mov word[es:di],ax
  7135 00009B46 81EFA000                        sub di,160
  7136 00009B4A E2F7                            loop F_G_6_LEVEL_1
  7137                                  		
  7138 00009B4C B90200                         mov cx,2
  7139 00009B4F BF0C0F                  	   mov di,3852
  7140 00009B52 268905                  F_G_7_LEVEL_1:  mov word[es:di],ax
  7141 00009B55 81EFA000                        sub di,160
  7142 00009B59 E2F7                            loop F_G_7_LEVEL_1
  7143                                  
  7144 00009B5B B40A                    mov ah,0x0A
  7145 00009B5D B90200                         mov cx,2
  7146 00009B60 BF0E0F                  	   mov di,3854
  7147 00009B63 268905                  F_G_8_LEVEL_1:  mov word[es:di],ax
  7148 00009B66 81EFA000                        sub di,160
  7149 00009B6A E2F7                            loop F_G_8_LEVEL_1
  7150                                  
  7151 00009B6C B90200                         mov cx,2
  7152 00009B6F BF100F                  	   mov di,3856
  7153 00009B72 268905                  F_G_9_LEVEL_1:  mov word[es:di],ax
  7154 00009B75 81EFA000                        sub di,160
  7155 00009B79 E2F7                            loop F_G_9_LEVEL_1
  7156                                  
  7157 00009B7B B402                    mov ah,0x02
  7158 00009B7D B90200                         mov cx,2
  7159 00009B80 BF120F                  	   mov di,3858
  7160 00009B83 268905                  F_G_10_LEVEL_1:  mov word[es:di],ax
  7161 00009B86 81EFA000                        sub di,160
  7162 00009B8A E2F7                            loop F_G_10_LEVEL_1
  7163                                  
  7164 00009B8C B90300                         mov cx,3
  7165 00009B8F BF140F                  	   mov di,3860
  7166 00009B92 268905                  F_G_11_LEVEL_1:  mov word[es:di],ax
  7167 00009B95 81EFA000                        sub di,160
  7168 00009B99 E2F7                            loop F_G_11_LEVEL_1
  7169                                  
  7170 00009B9B B40A                    mov ah,0x0A
  7171 00009B9D B90300                         mov cx,3
  7172 00009BA0 BF160F                  	   mov di,3862
  7173 00009BA3 268905                  F_G_12_LEVEL_1:  mov word[es:di],ax
  7174 00009BA6 81EFA000                        sub di,160
  7175 00009BAA E2F7                            loop F_G_12_LEVEL_1
  7176                                  
  7177 00009BAC B90300                      mov cx,3
  7178 00009BAF BF180F                  	   mov di,3864
  7179 00009BB2 268905                  F_G_13_LEVEL_1:  mov word[es:di],ax
  7180 00009BB5 81EFA000                        sub di,160
  7181 00009BB9 E2F7                            loop F_G_13_LEVEL_1
  7182                                  
  7183 00009BBB B402                    mov ah,0x02
  7184 00009BBD B90300                          mov cx,3
  7185 00009BC0 BF1A0F                  	   mov di,3866
  7186 00009BC3 268905                  F_G_14_LEVEL_1:  mov word[es:di],ax
  7187 00009BC6 81EFA000                        sub di,160
  7188 00009BCA E2F7                            loop F_G_14_LEVEL_1
  7189                                  				
  7190 00009BCC B90300                  		    mov cx,3
  7191 00009BCF BF1C0F                  	   mov di,3868
  7192 00009BD2 268905                  F_G_15_LEVEL_1:  mov word[es:di],ax
  7193 00009BD5 81EFA000                        sub di,160
  7194 00009BD9 E2F7                            loop F_G_15_LEVEL_1
  7195                                  		
  7196 00009BDB B40A                    		mov ah,0x0A
  7197 00009BDD B90300                  		    mov cx,3
  7198 00009BE0 BF1E0F                  	   mov di,3870
  7199 00009BE3 268905                  F_G_16_LEVEL_1:  mov word[es:di],ax
  7200 00009BE6 81EFA000                        sub di,160
  7201 00009BEA E2F7                            loop F_G_16_LEVEL_1
  7202                                  		
  7203 00009BEC B90400                  		mov cx,4
  7204 00009BEF BF200F                  	   mov di,3872
  7205 00009BF2 268905                  F_G_17_LEVEL_1:  mov word[es:di],ax
  7206 00009BF5 81EFA000                        sub di,160
  7207 00009BF9 E2F7                            loop F_G_17_LEVEL_1
  7208                                  
  7209 00009BFB B402                    mov ah,0x02
  7210 00009BFD B90400                  		mov cx,4
  7211 00009C00 BF220F                  	   mov di,3874
  7212 00009C03 268905                  F_G_18_LEVEL_1:  mov word[es:di],ax
  7213 00009C06 81EFA000                        sub di,160
  7214 00009C0A E2F7                            loop F_G_18_LEVEL_1
  7215                                  
  7216 00009C0C B90400                  		mov cx,4
  7217 00009C0F BF240F                  	   mov di,3876
  7218 00009C12 268905                  F_G_19_LEVEL_1:  mov word[es:di],ax
  7219 00009C15 81EFA000                        sub di,160
  7220 00009C19 E2F7                            loop F_G_19_LEVEL_1
  7221                                  		
  7222 00009C1B B40A                    		mov ah,0x0A
  7223 00009C1D B90400                  		mov cx,4
  7224 00009C20 BF260F                  	   mov di,3878
  7225 00009C23 268905                  F_G_20_LEVEL_1:  mov word[es:di],ax
  7226 00009C26 81EFA000                        sub di,160
  7227 00009C2A E2F7                            loop F_G_20_LEVEL_1		
  7228                                  		
  7229 00009C2C B90400                  		mov cx,4
  7230 00009C2F BF280F                  	   mov di,3880
  7231 00009C32 268905                  F_G_21_LEVEL_1:  mov word[es:di],ax
  7232 00009C35 81EFA000                        sub di,160
  7233 00009C39 E2F7                            loop F_G_21_LEVEL_1		
  7234                                  		
  7235 00009C3B B402                    		mov ah,0x02
  7236 00009C3D B90400                  			mov cx,4
  7237 00009C40 BF2A0F                  	   mov di,3882
  7238 00009C43 268905                  F_G_22_LEVEL_1:  mov word[es:di],ax
  7239 00009C46 81EFA000                        sub di,160
  7240 00009C4A E2F7                            loop F_G_22_LEVEL_1	
  7241                                  		
  7242 00009C4C B90400                  		mov cx,4
  7243 00009C4F BF2C0F                  	   mov di,3884
  7244 00009C52 268905                  F_G_23_LEVEL_1:  mov word[es:di],ax
  7245 00009C55 81EFA000                        sub di,160
  7246 00009C59 E2F7                            loop F_G_23_LEVEL_1
  7247                                  
  7248 00009C5B B40A                    mov ah,0x0A
  7249 00009C5D B90400                  		mov cx,4
  7250 00009C60 BF2E0F                  	   mov di,3886
  7251 00009C63 268905                  F_G_24_LEVEL_1:  mov word[es:di],ax
  7252 00009C66 81EFA000                        sub di,160
  7253 00009C6A E2F7                            loop F_G_24_LEVEL_1		
  7254                                  		
  7255 00009C6C B90500                  		mov cx,5
  7256 00009C6F BF300F                  	   mov di,3888
  7257 00009C72 268905                  F_G_25_LEVEL_1:  mov word[es:di],ax
  7258 00009C75 81EFA000                        sub di,160
  7259 00009C79 E2F7                            loop F_G_25_LEVEL_1		
  7260                                  		
  7261 00009C7B B402                    		mov ah,0x02
  7262 00009C7D B90500                  	mov cx,5
  7263 00009C80 BF320F                  	   mov di,3890
  7264 00009C83 268905                  F_G_26_LEVEL_1:  mov word[es:di],ax
  7265 00009C86 81EFA000                        sub di,160
  7266 00009C8A E2F7                            loop F_G_26_LEVEL_1			
  7267                                  		
  7268 00009C8C B90500                  	mov cx,5
  7269 00009C8F BF340F                  	   mov di,3892
  7270 00009C92 268905                  F_G_27_LEVEL_1:  mov word[es:di],ax
  7271 00009C95 81EFA000                        sub di,160
  7272 00009C99 E2F7                            loop F_G_27_LEVEL_1			
  7273                                  		
  7274 00009C9B B40A                    		mov ah,0x0A
  7275 00009C9D B90500                  	mov cx,5
  7276 00009CA0 BF360F                  	   mov di,3894
  7277 00009CA3 268905                  F_G_28_LEVEL_1:  mov word[es:di],ax
  7278 00009CA6 81EFA000                        sub di,160
  7279 00009CAA E2F7                            loop F_G_28_LEVEL_1			
  7280                                  		
  7281 00009CAC B90500                  	mov cx,5
  7282 00009CAF BF380F                  	   mov di,3896
  7283 00009CB2 268905                  F_G_29_LEVEL_1:  mov word[es:di],ax
  7284 00009CB5 81EFA000                        sub di,160
  7285 00009CB9 E2F7                            loop F_G_29_LEVEL_1			
  7286                                  		
  7287 00009CBB B402                    		mov ah,0x02
  7288 00009CBD B90500                  	mov cx,5
  7289 00009CC0 BF3A0F                  	   mov di,3898
  7290 00009CC3 268905                  F_G_30_LEVEL_1:  mov word[es:di],ax
  7291 00009CC6 81EFA000                        sub di,160
  7292 00009CCA E2F7                            loop F_G_30_LEVEL_1			
  7293                                  		
  7294 00009CCC B90500                  	mov cx,5
  7295 00009CCF BF3C0F                  	   mov di,3900
  7296 00009CD2 268905                  F_G_31_LEVEL_1:  mov word[es:di],ax
  7297 00009CD5 81EFA000                        sub di,160
  7298 00009CD9 E2F7                            loop F_G_31_LEVEL_1			
  7299                                  		
  7300 00009CDB B40A                    		mov ah,0x0A
  7301 00009CDD B90500                  mov cx,5
  7302 00009CE0 BF3E0F                  	   mov di,3902
  7303 00009CE3 268905                  F_G_32_LEVEL_1:  mov word[es:di],ax
  7304 00009CE6 81EFA000                        sub di,160
  7305 00009CEA E2F7                            loop F_G_32_LEVEL_1					
  7306                                  		
  7307 00009CEC B90500                  mov cx,5
  7308 00009CEF BF400F                  	   mov di,3904
  7309 00009CF2 268905                  F_G_33_LEVEL_1:  mov word[es:di],ax
  7310 00009CF5 81EFA000                        sub di,160
  7311 00009CF9 E2F7                            loop F_G_33_LEVEL_1					
  7312                                  		
  7313 00009CFB B402                    		mov ah,0x02
  7314 00009CFD B90500                  	mov cx,5
  7315 00009D00 BF420F                  	   mov di,3906
  7316 00009D03 268905                  F_G_34_LEVEL_1:  mov word[es:di],ax
  7317 00009D06 81EFA000                        sub di,160
  7318 00009D0A E2F7                            loop F_G_34_LEVEL_1				
  7319                                  		
  7320 00009D0C B90500                  mov cx,5
  7321 00009D0F BF440F                  	   mov di,3908
  7322 00009D12 268905                  F_G_35_LEVEL_1:  mov word[es:di],ax
  7323 00009D15 81EFA000                        sub di,160
  7324 00009D19 E2F7                            loop F_G_35_LEVEL_1					
  7325                                  		
  7326 00009D1B B40A                    		mov ah,0x0A
  7327 00009D1D B90500                  mov cx,5
  7328 00009D20 BF460F                  	   mov di,3910
  7329 00009D23 268905                  F_G_36_LEVEL_1:  mov word[es:di],ax
  7330 00009D26 81EFA000                        sub di,160
  7331 00009D2A E2F7                            loop F_G_36_LEVEL_1					
  7332                                  		
  7333 00009D2C B90500                  mov cx,5
  7334 00009D2F BF480F                  	   mov di,3912
  7335 00009D32 268905                  F_G_37_LEVEL_1:  mov word[es:di],ax
  7336 00009D35 81EFA000                        sub di,160
  7337 00009D39 E2F7                            loop F_G_37_LEVEL_1					
  7338                                  		
  7339 00009D3B B402                    		mov ah,0x02
  7340 00009D3D B90500                  mov cx,5
  7341 00009D40 BF4A0F                  	   mov di,3914
  7342 00009D43 268905                  F_G_38_LEVEL_1:  mov word[es:di],ax
  7343 00009D46 81EFA000                        sub di,160
  7344 00009D4A E2F7                            loop F_G_38_LEVEL_1
  7345                                  		
  7346 00009D4C B90400                  mov cx,4
  7347 00009D4F BF4C0F                  	   mov di,3916
  7348 00009D52 268905                  F_G_39_LEVEL_1:  mov word[es:di],ax
  7349 00009D55 81EFA000                        sub di,160
  7350 00009D59 E2F7                            loop F_G_39_LEVEL_1
  7351                                  
  7352 00009D5B B40A                    mov ah,0x0A
  7353 00009D5D B90400                  mov cx,4
  7354 00009D60 BF4E0F                  	   mov di,3918
  7355 00009D63 268905                  F_G_40_LEVEL_1:  mov word[es:di],ax
  7356 00009D66 81EFA000                        sub di,160
  7357 00009D6A E2F7                            loop F_G_40_LEVEL_1					
  7358                                  		
  7359 00009D6C B90400                  mov cx,4
  7360 00009D6F BF500F                  	   mov di,3920
  7361 00009D72 268905                  F_G_41_LEVEL_1:  mov word[es:di],ax
  7362 00009D75 81EFA000                        sub di,160
  7363 00009D79 E2F7                            loop F_G_41_LEVEL_1
  7364                                  		
  7365 00009D7B B402                    		mov ah,0x02
  7366 00009D7D B90400                  mov cx,4
  7367 00009D80 BF520F                  	   mov di,3922
  7368 00009D83 268905                  F_G_42_LEVEL_1:  mov word[es:di],ax
  7369 00009D86 81EFA000                        sub di,160
  7370 00009D8A E2F7                            loop F_G_42_LEVEL_1
  7371                                  						
  7372 00009D8C B90400                  mov cx,4
  7373 00009D8F BF540F                  	   mov di,3924
  7374 00009D92 268905                  F_G_43_LEVEL_1:  mov word[es:di],ax
  7375 00009D95 81EFA000                        sub di,160
  7376 00009D99 E2F7                            loop F_G_43_LEVEL_1
  7377                                  				
  7378 00009D9B B40A                    				mov ah,0x0A
  7379 00009D9D B90400                  mov cx,4
  7380 00009DA0 BF560F                  	   mov di,3926
  7381 00009DA3 268905                  F_G_44_LEVEL_1:  mov word[es:di],ax
  7382 00009DA6 81EFA000                        sub di,160
  7383 00009DAA E2F7                            loop F_G_44_LEVEL_1
  7384                                  						
  7385 00009DAC B90400                  mov cx,4
  7386 00009DAF BF580F                  	   mov di,3928
  7387 00009DB2 268905                  F_G_45_LEVEL_1:  mov word[es:di],ax
  7388 00009DB5 81EFA000                        sub di,160
  7389 00009DB9 E2F7                            loop F_G_45_LEVEL_1
  7390                                  		
  7391 00009DBB B40A                    		mov ah,0x0A		
  7392 00009DBD B90400                  mov cx,4
  7393 00009DC0 BF5A0F                  	   mov di,3930
  7394 00009DC3 268905                  F_G_46_LEVEL_1:  mov word[es:di],ax
  7395 00009DC6 81EFA000                        sub di,160
  7396 00009DCA E2F7                            loop F_G_46_LEVEL_1		
  7397                                  		
  7398 00009DCC B90300                  mov cx,3
  7399 00009DCF BF5C0F                  	   mov di,3932
  7400 00009DD2 268905                  F_G_47_LEVEL_1:  mov word[es:di],ax
  7401 00009DD5 81EFA000                        sub di,160
  7402 00009DD9 E2F7                            loop F_G_47_LEVEL_1				
  7403                                  		
  7404 00009DDB B402                    		mov ah,0x02
  7405 00009DDD B90300                  mov cx,3
  7406 00009DE0 BF5E0F                  	   mov di,3934
  7407 00009DE3 268905                  F_G_48_LEVEL_1:  mov word[es:di],ax
  7408 00009DE6 81EFA000                        sub di,160
  7409 00009DEA E2F7                            loop F_G_48_LEVEL_1			
  7410                                  		
  7411 00009DEC B90300                  mov cx,3
  7412 00009DEF BF600F                  	   mov di,3936
  7413 00009DF2 268905                  F_G_49_LEVEL_1:  mov word[es:di],ax
  7414 00009DF5 81EFA000                        sub di,160
  7415 00009DF9 E2F7                            loop F_G_49_LEVEL_1			
  7416                                  		
  7417 00009DFB B40A                    		mov ah,0x0A
  7418 00009DFD B90300                  mov cx,3
  7419 00009E00 BF620F                  	   mov di,3938
  7420 00009E03 268905                  F_G_50_LEVEL_1:  mov word[es:di],ax
  7421 00009E06 81EFA000                        sub di,160
  7422 00009E0A E2F7                            loop F_G_50_LEVEL_1			
  7423                                  		
  7424 00009E0C B90300                  mov cx,3
  7425 00009E0F BF640F                  	   mov di,3940
  7426 00009E12 268905                  F_G_51_LEVEL_1:  mov word[es:di],ax
  7427 00009E15 81EFA000                        sub di,160
  7428 00009E19 E2F7                            loop F_G_51_LEVEL_1		
  7429                                  		
  7430 00009E1B B402                    		mov ah,0x02
  7431 00009E1D B90300                  mov cx,3
  7432 00009E20 BF660F                  	   mov di,3942
  7433 00009E23 268905                  F_G_52_LEVEL_1:  mov word[es:di],ax
  7434 00009E26 81EFA000                        sub di,160
  7435 00009E2A E2F7                            loop F_G_52_LEVEL_1		
  7436                                  		
  7437 00009E2C B90200                  mov cx,2
  7438 00009E2F BF680F                  	   mov di,3944
  7439 00009E32 268905                  F_G_53_LEVEL_1:  mov word[es:di],ax
  7440 00009E35 81EFA000                        sub di,160
  7441 00009E39 E2F7                            loop F_G_53_LEVEL_1		
  7442                                  		
  7443 00009E3B B90200                  mov cx,2
  7444 00009E3E BF6A0F                  	   mov di,3946
  7445 00009E41 268905                  F_G_54_LEVEL_1:  mov word[es:di],ax
  7446 00009E44 81EFA000                        sub di,160
  7447 00009E48 E2F7                            loop F_G_54_LEVEL_1				
  7448                                  		
  7449 00009E4A B90200                  mov cx,2
  7450 00009E4D BF6C0F                  	   mov di,3948
  7451 00009E50 268905                  F_G_55_LEVEL_1:  mov word[es:di],ax
  7452 00009E53 81EFA000                        sub di,160
  7453 00009E57 E2F7                            loop F_G_55_LEVEL_1				
  7454                                  		
  7455 00009E59 B402                    		mov ah,0x02
  7456 00009E5B B90100                  mov cx,1
  7457 00009E5E BF6E0F                  	   mov di,3950
  7458 00009E61 268905                  F_G_56_LEVEL_1:  mov word[es:di],ax
  7459 00009E64 81EFA000                        sub di,160
  7460 00009E68 E2F7                            loop F_G_56_LEVEL_1				
  7461                                  		
  7462 00009E6A B90100                  mov cx,1
  7463 00009E6D BF700F                  	   mov di,3952
  7464 00009E70 268905                  F_G_57_LEVEL_1:  mov word[es:di],ax
  7465 00009E73 81EFA000                        sub di,160
  7466 00009E77 E2F7                            loop F_G_57_LEVEL_1			
  7467                                  		
  7468 00009E79 B40A                    		mov ah,0x0A
  7469 00009E7B B90100                  mov cx,1
  7470 00009E7E BF720F                  	   mov di,3954
  7471 00009E81 268905                  F_G_58_LEVEL_1:  mov word[es:di],ax
  7472 00009E84 81EFA000                        sub di,160
  7473 00009E88 E2F7                            loop F_G_58_LEVEL_1		
  7474                                  		
  7475 00009E8A B90100                  mov cx,1
  7476 00009E8D BF740F                  	   mov di,3956
  7477 00009E90 268905                  F_G_59_LEVEL_1:  mov word[es:di],ax
  7478 00009E93 81EFA000                        sub di,160
  7479 00009E97 E2F7                            loop F_G_59_LEVEL_1	      
  7480                                  
  7481 00009E99 B402                    mov ah,0x02
  7482 00009E9B B90200                  mov cx,2
  7483 00009E9E BF760F                  	   mov di,3958
  7484 00009EA1 268905                  F_G_60_LEVEL_1:  mov word[es:di],ax
  7485 00009EA4 81EFA000                        sub di,160
  7486 00009EA8 E2F7                            loop F_G_60_LEVEL_1	
  7487                                  
  7488 00009EAA B90200                  mov cx,2
  7489 00009EAD BF780F                  	   mov di,3960
  7490 00009EB0 268905                  F_G_61_LEVEL_1:  mov word[es:di],ax
  7491 00009EB3 81EFA000                        sub di,160
  7492 00009EB7 E2F7                            loop F_G_61_LEVEL_1	
  7493                                  
  7494 00009EB9 B40A                    mov ah,0x0A
  7495 00009EBB B90200                  mov cx,2
  7496 00009EBE BF7A0F                  	   mov di,3962
  7497 00009EC1 268905                  F_G_62_LEVEL_1:  mov word[es:di],ax
  7498 00009EC4 81EFA000                        sub di,160
  7499 00009EC8 E2F7                            loop F_G_62_LEVEL_1	
  7500 00009ECA B90200                  mov cx,2
  7501 00009ECD BF7C0F                  	   mov di,3964
  7502 00009ED0 268905                  F_G_63_LEVEL_1:  mov word[es:di],ax
  7503 00009ED3 81EFA000                        sub di,160
  7504 00009ED7 E2F7                            loop F_G_63_LEVEL_1	
  7505                                  
  7506 00009ED9 B40A                    mov ah,0x0A
  7507 00009EDB B90200                  mov cx,2
  7508 00009EDE BF7E0F                  	   mov di,3966
  7509 00009EE1 268905                  F_G_64_LEVEL_1:  mov word[es:di],ax
  7510 00009EE4 81EFA000                        sub di,160
  7511 00009EE8 E2F7                            loop F_G_64_LEVEL_1	
  7512                                  
  7513 00009EEA B90300                  mov cx,3
  7514 00009EED BF800F                  	   mov di,3968
  7515 00009EF0 268905                  F_G_65_LEVEL_1:  mov word[es:di],ax
  7516 00009EF3 81EFA000                        sub di,160
  7517 00009EF7 E2F7                            loop F_G_65_LEVEL_1	
  7518                                  
  7519 00009EF9 B402                    mov ah,0x02
  7520 00009EFB B90300                  mov cx,3
  7521 00009EFE BF820F                  	   mov di,3970
  7522 00009F01 268905                  F_G_66_LEVEL_1:  mov word[es:di],ax
  7523 00009F04 81EFA000                        sub di,160
  7524 00009F08 E2F7                            loop F_G_66_LEVEL_1	
  7525                                  		
  7526 00009F0A B90300                  mov cx,3
  7527 00009F0D BF840F                  	   mov di,3972
  7528 00009F10 268905                  F_G_67_LEVEL_1:  mov word[es:di],ax
  7529 00009F13 81EFA000                        sub di,160
  7530 00009F17 E2F7                            loop F_G_67_LEVEL_1			
  7531                                  
  7532 00009F19 B40A                    mov ah,0x0A
  7533 00009F1B B90300                  mov cx,3
  7534 00009F1E BF860F                  	   mov di,3974
  7535 00009F21 268905                  F_G_68_LEVEL_1:  mov word[es:di],ax
  7536 00009F24 81EFA000                        sub di,160
  7537 00009F28 E2F7                            loop F_G_68_LEVEL_1	
  7538                                  
  7539 00009F2A B90300                  mov cx,3
  7540 00009F2D BF880F                  	   mov di,3976
  7541 00009F30 268905                  F_G_69_LEVEL_1:  mov word[es:di],ax
  7542 00009F33 81EFA000                        sub di,160
  7543 00009F37 E2F7                            loop F_G_69_LEVEL_1
  7544                                  
  7545 00009F39 B402                    mov ah,0x02
  7546 00009F3B B90300                  mov cx,3
  7547 00009F3E BF8A0F                  	   mov di,3978
  7548 00009F41 268905                  F_G_70_LEVEL_1:  mov word[es:di],ax
  7549 00009F44 81EFA000                        sub di,160
  7550 00009F48 E2F7                            loop F_G_70_LEVEL_1	
  7551                                  
  7552 00009F4A B90400                  mov cx,4
  7553 00009F4D BF8C0F                  	   mov di,3980
  7554 00009F50 268905                  F_G_71_LEVEL_1:  mov word[es:di],ax
  7555 00009F53 81EFA000                        sub di,160
  7556 00009F57 E2F7                            loop F_G_71_LEVEL_1
  7557                                  
  7558 00009F59 B40A                    mov ah,0x0A
  7559 00009F5B B90400                  mov cx,4
  7560 00009F5E BF8E0F                  	   mov di,3982
  7561 00009F61 268905                  F_G_72_LEVEL_1:  mov word[es:di],ax
  7562 00009F64 81EFA000                        sub di,160
  7563 00009F68 E2F7                            loop F_G_72_LEVEL_1
  7564                                  		
  7565 00009F6A B90400                  mov cx,4
  7566 00009F6D BF900F                  	   mov di,3984
  7567 00009F70 268905                  F_G_73_LEVEL_1:  mov word[es:di],ax
  7568 00009F73 81EFA000                        sub di,160
  7569 00009F77 E2F7                            loop F_G_73_LEVEL_1
  7570                                  
  7571 00009F79 B402                    mov ah,0x02
  7572 00009F7B B90400                  mov cx,4
  7573 00009F7E BF920F                  	   mov di,3986
  7574 00009F81 268905                  F_G_74_LEVEL_1:  mov word[es:di],ax
  7575 00009F84 81EFA000                        sub di,160
  7576 00009F88 E2F7                            loop F_G_74_LEVEL_1
  7577                                  
  7578                                  
  7579 00009F8A B90400                  mov cx,4
  7580 00009F8D BF940F                  	   mov di,3988
  7581 00009F90 268905                  F_G_75_LEVEL_1:  mov word[es:di],ax
  7582 00009F93 81EFA000                        sub di,160
  7583 00009F97 E2F7                            loop F_G_75_LEVEL_1
  7584                                  
  7585 00009F99 B40A                    mov ah,0x0A
  7586 00009F9B B90500                  mov cx,5
  7587 00009F9E BF960F                  	   mov di,3990
  7588 00009FA1 268905                  F_G_76_LEVEL_1:  mov word[es:di],ax
  7589 00009FA4 81EFA000                        sub di,160
  7590 00009FA8 E2F7                            loop F_G_76_LEVEL_1
  7591                                  
  7592 00009FAA B90500                  mov cx,5
  7593 00009FAD BF980F                  	   mov di,3992
  7594 00009FB0 268905                  F_G_77_LEVEL_1:  mov word[es:di],ax
  7595 00009FB3 81EFA000                        sub di,160
  7596 00009FB7 E2F7                            loop F_G_77_LEVEL_1
  7597                                  
  7598 00009FB9 B402                    mov ah,0x02
  7599 00009FBB B90500                  mov cx,5
  7600 00009FBE BF9A0F                  	   mov di,3994
  7601 00009FC1 268905                  F_G_78_LEVEL_1:  mov word[es:di],ax
  7602 00009FC4 81EFA000                        sub di,160
  7603 00009FC8 E2F7                            loop F_G_78_LEVEL_1
  7604                                  
  7605 00009FCA B90500                  mov cx,5
  7606 00009FCD BF9C0F                  	   mov di,3996
  7607 00009FD0 268905                  F_G_79_LEVEL_1:  mov word[es:di],ax
  7608 00009FD3 81EFA000                        sub di,160
  7609 00009FD7 E2F7                            loop F_G_79_LEVEL_1
  7610                                  
  7611 00009FD9 B40A                    mov ah,0x0A
  7612 00009FDB B90500                  mov cx,5
  7613 00009FDE BF9E0F                  	   mov di,3998
  7614 00009FE1 268905                  F_G_80_LEVEL_1:  mov word[es:di],ax
  7615 00009FE4 81EFA000                        sub di,160
  7616 00009FE8 E2F7                            loop F_G_80_LEVEL_1
  7617                                  		
  7618 00009FEA 61                             popa 
  7619 00009FEB C3                      	   ret
  7620 00009FEC 60                      SUN_LEVEL_1: pusha 
  7621                                  
  7622 00009FED B440                    mov ah,0x40
  7623 00009FEF B40E                           mov ah,0x0E
  7624 00009FF1 B0DB                    		mov al,0xDB
  7625 00009FF3 B60F                    		mov dh,0x0F
  7626 00009FF5 B2DB                    		mov dl,0xDB
  7627 00009FF7 BF1AFF                  		mov di,-230
  7628                                  
  7629                                  
  7630 00009FFA 268985EC01              	mov word[es:di+492],ax
  7631 00009FFF 268985EE01              		mov word[es:di+494],ax
  7632 0000A004 268985F001              		mov word[es:di+496],ax
  7633 0000A009 268985F601              		mov word[es:di+502],ax
  7634 0000A00E 268985F201              		mov word[es:di+498],ax
  7635 0000A013 268985F401              		mov word[es:di+500],ax
  7636                                  		
  7637 0000A018 2689858802              		mov word[es:di+648],ax
  7638 0000A01D 2689858A02              		mov word[es:di+650],ax
  7639 0000A022 2689859402              		mov word[es:di+660],ax
  7640 0000A027 2689858C02              		mov word[es:di+652],ax
  7641 0000A02C 2689958E02              		mov word[es:di+654],dx
  7642 0000A031 2689959002              		mov word[es:di+656],dx
  7643 0000A036 2689859802              		mov word[es:di+664],ax
  7644 0000A03B 2689859602              		mov word[es:di+662],ax
  7645 0000A040 2689959202              		mov word[es:di+658],dx
  7646 0000A045 2689859A02              		mov word[es:di+666],ax
  7647                                  		
  7648 0000A04A 2689852603              		mov word[es:di+806],ax
  7649 0000A04F 2689852803              		mov word[es:di+808],ax
  7650 0000A054 2689852A03              		mov word[es:di+810],ax
  7651 0000A059 2689952C03              		mov word[es:di+812],dx
  7652 0000A05E 2689952E03              		mov word[es:di+814],dx
  7653 0000A063 2689953003              		mov word[es:di+816],dx
  7654 0000A068 2689853203              		mov word[es:di+818],ax
  7655 0000A06D 2689853403              		mov word[es:di+820],ax
  7656 0000A072 2689853603              		mov word[es:di+822],ax
  7657 0000A077 2689853603              		mov word[es:di+822],ax
  7658 0000A07C 2689853803              		mov word[es:di+824],ax
  7659 0000A081 2689853A03              		mov word[es:di+826],ax
  7660 0000A086 2689853C03              		mov word[es:di+828],ax
  7661                                  		
  7662 0000A08B 268985C603              		mov word[es:di+966],ax
  7663 0000A090 268985CA03              		mov word[es:di+970],ax
  7664 0000A095 268985CE03              		mov word[es:di+974],ax
  7665 0000A09A 268985CC03              		mov word[es:di+972],ax
  7666 0000A09F 268985C803              		mov word[es:di+968],ax
  7667 0000A0A4 268985D003              		mov word[es:di+976],ax
  7668 0000A0A9 268985D203              		mov word[es:di+978],ax
  7669 0000A0AE 268985DA03              		mov word[es:di+986],ax
  7670 0000A0B3 268985D603              		mov word[es:di+982],ax
  7671 0000A0B8 268985D803              		mov word[es:di+984],ax
  7672 0000A0BD 268985D403              		mov word[es:di+980],ax
  7673 0000A0C2 268985DC03              		mov word[es:di+988],ax
  7674                                  		
  7675 0000A0C7 2689856A04              		mov word[es:di+1130],ax
  7676 0000A0CC 2689856C04              		mov word[es:di+1132],ax
  7677 0000A0D1 2689856804              		mov word[es:di+1128],ax
  7678 0000A0D6 2689857204              		mov word[es:di+1138],ax
  7679 0000A0DB 2689856E04              		mov word[es:di+1134],ax
  7680 0000A0E0 2689857004              		mov word[es:di+1136],ax
  7681 0000A0E5 2689857404              		mov word[es:di+1140],ax
  7682 0000A0EA 2689857A04              		mov word[es:di+1146],ax
  7683 0000A0EF 2689857604              		mov word[es:di+1142],ax
  7684 0000A0F4 2689857804              		mov word[es:di+1144],ax
  7685                                  		
  7686 0000A0F9 2689850C05              		mov word[es:di+1292],ax
  7687 0000A0FE 2689850E05              		mov word[es:di+1294],ax
  7688 0000A103 2689851005              		mov word[es:di+1296],ax
  7689 0000A108 2689851205              		mov word[es:di+1298],ax
  7690 0000A10D 2689851405              		mov word[es:di+1300],ax
  7691 0000A112 2689851605              		mov word[es:di+1302],ax
  7692                                  		  
  7693                                  
  7694 0000A117 61                      popa
  7695 0000A118 C3                      ret		  
  7696                                  
  7697                                  
  7698 0000A119 60                      CLOUD1_LEVEL_1:pusha 
  7699                                  
  7700 0000A11A B440                    mov ah,0x40
  7701 0000A11C B40F                           mov ah,0x0F
  7702 0000A11E B0DB                    		mov al,0xDB
  7703 0000A120 B607                    		mov dh,0x07
  7704 0000A122 B2DB                    		mov dl,0xDB
  7705 0000A124 BF7C01                  		mov di,380
  7706                                  
  7707                                  
  7708 0000A127 268985EC01              	    mov word[es:di+492],ax
  7709 0000A12C 268985EE01              		mov word[es:di+494],ax
  7710 0000A131 268985F001              		mov word[es:di+496],ax
  7711 0000A136 268985F601              		mov word[es:di+502],ax
  7712 0000A13B 268985F201              		mov word[es:di+498],ax
  7713 0000A140 268985F401              		mov word[es:di+500],ax
  7714                                  		
  7715 0000A145 2689858A02              		mov word[es:di+650],ax
  7716 0000A14A 2689859402              		mov word[es:di+660],ax
  7717 0000A14F 2689858C02              		mov word[es:di+652],ax
  7718 0000A154 2689858E02              		mov word[es:di+654],ax
  7719 0000A159 2689859002              		mov word[es:di+656],ax
  7720 0000A15E 2689859802              		mov word[es:di+664],ax
  7721 0000A163 2689859602              		mov word[es:di+662],ax
  7722 0000A168 2689859202              		mov word[es:di+658],ax
  7723                                  		
  7724 0000A16D 2689852603              		mov word[es:di+806],ax
  7725 0000A172 2689852803              		mov word[es:di+808],ax
  7726 0000A177 2689852A03              		mov word[es:di+810],ax
  7727 0000A17C 2689852C03              		mov word[es:di+812],ax
  7728 0000A181 2689852E03              		mov word[es:di+814],ax
  7729 0000A186 2689853003              		mov word[es:di+816],ax
  7730 0000A18B 2689853203              		mov word[es:di+818],ax
  7731 0000A190 2689853403              		mov word[es:di+820],ax
  7732 0000A195 2689853603              		mov word[es:di+822],ax
  7733 0000A19A 2689853603              		mov word[es:di+822],ax
  7734 0000A19F 2689853803              		mov word[es:di+824],ax
  7735 0000A1A4 2689853A03              		mov word[es:di+826],ax
  7736 0000A1A9 2689853C03              		mov word[es:di+828],ax
  7737                                  		
  7738 0000A1AE 268985C403              		mov word[es:di+964],ax
  7739 0000A1B3 268985C603              		mov word[es:di+966],ax
  7740 0000A1B8 268985CA03              		mov word[es:di+970],ax
  7741 0000A1BD 268985CE03              		mov word[es:di+974],ax
  7742 0000A1C2 268985CC03              		mov word[es:di+972],ax
  7743 0000A1C7 268985C803              		mov word[es:di+968],ax
  7744 0000A1CC 268985D003              		mov word[es:di+976],ax
  7745 0000A1D1 268985D203              		mov word[es:di+978],ax
  7746 0000A1D6 268985DA03              		mov word[es:di+986],ax
  7747 0000A1DB 268985D603              		mov word[es:di+982],ax
  7748 0000A1E0 268985D803              		mov word[es:di+984],ax
  7749 0000A1E5 268985D403              		mov word[es:di+980],ax
  7750 0000A1EA 268985DC03              		mov word[es:di+988],ax
  7751 0000A1EF 268985DE03              		mov word[es:di+990],ax
  7752                                  
  7753                                  		  
  7754                                  
  7755 0000A1F4 61                      popa
  7756 0000A1F5 C3                      ret	
  7757                                  
  7758                                  
  7759 0000A1F6 60                      CLOUD2_LEVEL_1:pusha 
  7760                                  
  7761 0000A1F7 B440                    mov ah,0x40
  7762 0000A1F9 B40F                           mov ah,0x0F
  7763 0000A1FB B0DB                    		mov al,0xDB
  7764 0000A1FD B607                    		mov dh,0x07
  7765 0000A1FF B2DB                    		mov dl,0xDB
  7766 0000A201 BF74FF                  		mov di,-140
  7767                                  
  7768                                  
  7769 0000A204 268985EC01              	    mov word[es:di+492],ax
  7770 0000A209 268985EE01              		mov word[es:di+494],ax
  7771 0000A20E 268985F001              		mov word[es:di+496],ax
  7772 0000A213 268985F601              		mov word[es:di+502],ax
  7773 0000A218 268985F201              		mov word[es:di+498],ax
  7774 0000A21D 268985F401              		mov word[es:di+500],ax
  7775                                  		
  7776 0000A222 2689858A02              		mov word[es:di+650],ax
  7777 0000A227 2689859402              		mov word[es:di+660],ax
  7778 0000A22C 2689858C02              		mov word[es:di+652],ax
  7779 0000A231 2689858E02              		mov word[es:di+654],ax
  7780 0000A236 2689859002              		mov word[es:di+656],ax
  7781 0000A23B 2689859802              		mov word[es:di+664],ax
  7782 0000A240 2689859602              		mov word[es:di+662],ax
  7783 0000A245 2689859202              		mov word[es:di+658],ax
  7784                                  		
  7785 0000A24A 2689852603              		mov word[es:di+806],ax
  7786 0000A24F 2689852803              		mov word[es:di+808],ax
  7787 0000A254 2689852A03              		mov word[es:di+810],ax
  7788 0000A259 2689852C03              		mov word[es:di+812],ax
  7789 0000A25E 2689852E03              		mov word[es:di+814],ax
  7790 0000A263 2689853003              		mov word[es:di+816],ax
  7791 0000A268 2689853203              		mov word[es:di+818],ax
  7792 0000A26D 2689853403              		mov word[es:di+820],ax
  7793 0000A272 2689853603              		mov word[es:di+822],ax
  7794 0000A277 2689853603              		mov word[es:di+822],ax
  7795 0000A27C 2689853803              		mov word[es:di+824],ax
  7796 0000A281 2689853A03              		mov word[es:di+826],ax
  7797 0000A286 2689853C03              		mov word[es:di+828],ax
  7798                                  		
  7799 0000A28B 268985C403              		mov word[es:di+964],ax
  7800 0000A290 268985C603              		mov word[es:di+966],ax
  7801 0000A295 268985CA03              		mov word[es:di+970],ax
  7802 0000A29A 268985CE03              		mov word[es:di+974],ax
  7803 0000A29F 268985CC03              		mov word[es:di+972],ax
  7804 0000A2A4 268985C803              		mov word[es:di+968],ax
  7805 0000A2A9 268985D003              		mov word[es:di+976],ax
  7806 0000A2AE 268985D203              		mov word[es:di+978],ax
  7807 0000A2B3 268985DA03              		mov word[es:di+986],ax
  7808 0000A2B8 268985D603              		mov word[es:di+982],ax
  7809 0000A2BD 268985D803              		mov word[es:di+984],ax
  7810 0000A2C2 268985D403              		mov word[es:di+980],ax
  7811 0000A2C7 268985DC03              		mov word[es:di+988],ax
  7812 0000A2CC 268985DE03              		mov word[es:di+990],ax
  7813                                  		  
  7814                                  
  7815 0000A2D1 61                      popa
  7816 0000A2D2 C3                      ret	
  7817                                  
  7818 0000A2D3 60                      CLOUD3_LEVEL_1:pusha 
  7819                                  
  7820 0000A2D4 B440                    mov ah,0x40
  7821 0000A2D6 B40F                           mov ah,0x0F
  7822 0000A2D8 B0DB                    		mov al,0xDB
  7823 0000A2DA B607                    		mov dh,0x07
  7824 0000A2DC B2DB                    		mov dl,0xDB
  7825 0000A2DE BF38FF                  		mov di,-200
  7826                                  
  7827                                  
  7828 0000A2E1 268985EC01              	    mov word[es:di+492],ax
  7829 0000A2E6 268985EE01              		mov word[es:di+494],ax
  7830 0000A2EB 268985F001              		mov word[es:di+496],ax
  7831 0000A2F0 268985F601              		mov word[es:di+502],ax
  7832 0000A2F5 268985F201              		mov word[es:di+498],ax
  7833 0000A2FA 268985F401              		mov word[es:di+500],ax
  7834                                  		
  7835 0000A2FF 2689858A02              		mov word[es:di+650],ax
  7836 0000A304 2689859402              		mov word[es:di+660],ax
  7837 0000A309 2689858C02              		mov word[es:di+652],ax
  7838 0000A30E 2689858E02              		mov word[es:di+654],ax
  7839 0000A313 2689859002              		mov word[es:di+656],ax
  7840 0000A318 2689859802              		mov word[es:di+664],ax
  7841 0000A31D 2689859602              		mov word[es:di+662],ax
  7842 0000A322 2689859202              		mov word[es:di+658],ax
  7843                                  		
  7844 0000A327 2689852603              		mov word[es:di+806],ax
  7845 0000A32C 2689852803              		mov word[es:di+808],ax
  7846 0000A331 2689852A03              		mov word[es:di+810],ax
  7847 0000A336 2689852C03              		mov word[es:di+812],ax
  7848 0000A33B 2689852E03              		mov word[es:di+814],ax
  7849 0000A340 2689853003              		mov word[es:di+816],ax
  7850 0000A345 2689853203              		mov word[es:di+818],ax
  7851 0000A34A 2689853403              		mov word[es:di+820],ax
  7852 0000A34F 2689853603              		mov word[es:di+822],ax
  7853 0000A354 2689853603              		mov word[es:di+822],ax
  7854 0000A359 2689853803              		mov word[es:di+824],ax
  7855 0000A35E 2689853A03              		mov word[es:di+826],ax
  7856 0000A363 2689853C03              		mov word[es:di+828],ax
  7857                                  		
  7858 0000A368 268985C403              		mov word[es:di+964],ax
  7859 0000A36D 268985C603              		mov word[es:di+966],ax
  7860 0000A372 268985CA03              		mov word[es:di+970],ax
  7861 0000A377 268985CE03              		mov word[es:di+974],ax
  7862 0000A37C 268985CC03              		mov word[es:di+972],ax
  7863 0000A381 268985C803              		mov word[es:di+968],ax
  7864 0000A386 268985D003              		mov word[es:di+976],ax
  7865 0000A38B 268985D203              		mov word[es:di+978],ax
  7866 0000A390 268985DA03              		mov word[es:di+986],ax
  7867 0000A395 268985D603              		mov word[es:di+982],ax
  7868 0000A39A 268985D803              		mov word[es:di+984],ax
  7869 0000A39F 268985D403              		mov word[es:di+980],ax
  7870 0000A3A4 268985DC03              		mov word[es:di+988],ax
  7871 0000A3A9 268985DE03              		mov word[es:di+990],ax
  7872                                  		
  7873                                  		  
  7874                                  
  7875 0000A3AE 61                      popa
  7876 0000A3AF C3                      ret	
  7877                                  
  7878                                  ;;/////////////////////////////////////////////////LEVEL 1 BG FUNCTION/////////////////////////////////
  7879                                  ;;/////////////////////////////////////////////////////////////////////////////////////////////////////
  7880                                  
  7881 0000A3B0 60                      LEVEL_1_THEME:pusha
  7882 0000A3B1 E81BF7                         call clscr_LEVEL_1
  7883 0000A3B4 E82DF7                         call GRASS
  7884 0000A3B7 E832FC                  	   call SUN_LEVEL_1
  7885 0000A3BA E85CFD                  	   call CLOUD1_LEVEL_1
  7886 0000A3BD E836FE                  	   call CLOUD2_LEVEL_1
  7887 0000A3C0 E810FF                  	   call CLOUD3_LEVEL_1
  7888 0000A3C3 61                            popa
  7889 0000A3C4 C3                            ret
  7890                                  				
  7891                                  ;;////////////////////////////////////////////LEVEL 2 SCREEN//////////////////////////////////////
  7892                                  ;;///////////////////////////////////////////////////////////////////////////////////////////////
  7893                                  
  7894                                  
  7895 0000A3C5 2C01                    CLOUD_1_LEVEL_2_POS: dw 300
  7896 0000A3C7 7EFF                    CLOUD_2_LEVEL_2_POS: dw -130
  7897 0000A3C9 24FF                    CLOUD_3_LEVEL_2_POS: dw -220
  7898 0000A3CB BA04                    CLOUD_4_LEVEL_2_POS: dw 1210
  7899 0000A3CD 4C03                    CLOUD_5_LEVEL_2_POS: dw 844
  7900 0000A3CF 5404                    CLOUD_6_LEVEL_2_POS: dw 1108
  7901 0000A3D1 B405                    CLOUD_7_LEVEL_2_POS: dw 1460
  7902 0000A3D3 EC01                    CLOUD_8_LEVEL_2_POS: dw 492
  7903                                  
  7904 0000A3D5 60                      clscr_LEVEL_2: pusha
  7905 0000A3D6 BF0000                  mov di,0
  7906 0000A3D9 B800B8                         mov ax,0xb800
  7907 0000A3DC 8EC0                    	   mov es,ax
  7908 0000A3DE B8DB0B                  	   mov ax,0x0BDB
  7909 0000A3E1 B9B004                         mov cx,1200
  7910 0000A3E4 FC                      	   cld
  7911 0000A3E5 F3AB                    	   rep stosw
  7912                                  
  7913                                  
  7914 0000A3E7 B8DB03                  mov ax,0x03DB
  7915 0000A3EA B95803                         mov cx,856
  7916 0000A3ED F3AB                    	   rep stosw
  7917                                  	   
  7918 0000A3EF FD                      std
  7919 0000A3F0 61                             popa 
  7920 0000A3F1 C3                      	   ret
  7921                                  
  7922                                  
  7923 0000A3F2 60                      BUILDINGS_LEVEL_2: pusha
  7924 0000A3F3 B800B8                         mov ax,0xb800
  7925 0000A3F6 8EC0                    	   mov es,ax
  7926 0000A3F8 B400                    	   mov ah,0x00
  7927 0000A3FA B0DB                    	   mov al,0xDB
  7928 0000A3FC B90400                         mov cx,4
  7929 0000A3FF BF200D                  	   mov di,3360
  7930 0000A402 268905                  F_G_1:  mov word[es:di],ax
  7931 0000A405 81C7A000                        add di,160
  7932 0000A409 E2F7                            loop F_G_1
  7933                                   
  7934 0000A40B B90200                         mov cx,2
  7935 0000A40E BF620E                  	   mov di,3682
  7936 0000A411 268905                  F_G_2:  mov word[es:di],ax
  7937 0000A414 81C7A000                        add di,160
  7938 0000A418 E2F7                            loop F_G_2
  7939                                  
  7940 0000A41A B90200                        mov cx,2
  7941 0000A41D BF640E                  	   mov di,3684
  7942 0000A420 268905                  F_G_3:  mov word[es:di],ax
  7943 0000A423 81C7A000                        add di,160
  7944 0000A427 E2F7                            loop F_G_3
  7945                                  		
  7946 0000A429 B90300                        mov cx,3
  7947 0000A42C BFC60D                  	   mov di,3526
  7948 0000A42F 268905                  F_G_4:  mov word[es:di],ax
  7949 0000A432 81C7A000                        add di,160
  7950 0000A436 E2F7                            loop F_G_4		
  7951                                  
  7952                                  
  7953 0000A438 B90400                        mov cx,4
  7954 0000A43B BF280D                  	   mov di,3368
  7955 0000A43E 268905                  F_G_5:  mov word[es:di],ax
  7956 0000A441 81C7A000                        add di,160
  7957 0000A445 E2F7                            loop F_G_5
  7958                                  
  7959 0000A447 B90400                        mov cx,4
  7960 0000A44A BF2A0D                  	   mov di,3370
  7961 0000A44D 268905                  F_G_6:  mov word[es:di],ax
  7962 0000A450 81C7A000                        add di,160
  7963 0000A454 E2F7                            loop F_G_6
  7964                                  
  7965 0000A456 B90300                        mov cx,3
  7966 0000A459 BFCC0D                  	   mov di,3532
  7967 0000A45C 268905                  F_G_7:  mov word[es:di],ax
  7968 0000A45F 81C7A000                        add di,160
  7969 0000A463 E2F7                            loop F_G_7
  7970                                  
  7971 0000A465 B90500                        mov cx,5
  7972 0000A468 BF8E0C                  	   mov di,3214
  7973 0000A46B 268905                  F_G_8:  mov word[es:di],ax
  7974 0000A46E 81C7A000                        add di,160
  7975 0000A472 E2F7                            loop F_G_8
  7976                                  
  7977 0000A474 B90500                        mov cx,5
  7978 0000A477 BF900C                  	   mov di,3216
  7979 0000A47A 268905                  F_G_9:  mov word[es:di],ax
  7980 0000A47D 81C7A000                        add di,160
  7981 0000A481 E2F7                            loop F_G_9
  7982                                  
  7983 0000A483 B90300                       mov cx,3
  7984 0000A486 BFD20D                  	   mov di,3538
  7985 0000A489 268905                  F_G_10:  mov word[es:di],ax
  7986 0000A48C 81C7A000                        add di,160
  7987 0000A490 E2F7                            loop F_G_10
  7988                                  
  7989 0000A492 B90600                       mov cx,6
  7990 0000A495 BFF40B                  	   mov di,3060
  7991 0000A498 268905                  F_G_11:  mov word[es:di],ax
  7992 0000A49B 81C7A000                        add di,160
  7993 0000A49F E2F7                            loop F_G_11
  7994 0000A4A1 B90600                       mov cx,6
  7995 0000A4A4 BFF60B                  	   mov di,3062
  7996 0000A4A7 268905                  F_G_12:  mov word[es:di],ax
  7997 0000A4AA 81C7A000                        add di,160
  7998 0000A4AE E2F7                            loop F_G_12
  7999                                  
  8000 0000A4B0 B90600                       mov cx,6
  8001 0000A4B3 BFF80B                  	   mov di,3064
  8002 0000A4B6 268905                  F_G_13:  mov word[es:di],ax
  8003 0000A4B9 81C7A000                        add di,160
  8004 0000A4BD E2F7                            loop F_G_13
  8005                                  
  8006 0000A4BF B90300                       mov cx,3
  8007 0000A4C2 BFDA0D                  	   mov di,3546
  8008 0000A4C5 268905                  F_G_14:  mov word[es:di],ax
  8009 0000A4C8 81C7A000                        add di,160
  8010 0000A4CC E2F7                            loop F_G_14
  8011                                  
  8012 0000A4CE B90300                       mov cx,3
  8013 0000A4D1 BFDC0D                  	   mov di,3548
  8014 0000A4D4 268905                  F_G_15:  mov word[es:di],ax
  8015 0000A4D7 81C7A000                        add di,160
  8016 0000A4DB E2F7                            loop F_G_15
  8017                                  
  8018 0000A4DD B90300                       mov cx,3
  8019 0000A4E0 BFDE0D                  	   mov di,3550
  8020 0000A4E3 268905                  F_G_16:  mov word[es:di],ax
  8021 0000A4E6 81C7A000                        add di,160
  8022 0000A4EA E2F7                            loop F_G_16
  8023                                  
  8024 0000A4EC B90500                       mov cx,5
  8025 0000A4EF BFA00C                  	   mov di,3232
  8026 0000A4F2 268905                  F_G_17:  mov word[es:di],ax
  8027 0000A4F5 81C7A000                        add di,160
  8028 0000A4F9 E2F7                            loop F_G_17
  8029                                  
  8030 0000A4FB B90500                       mov cx,5
  8031 0000A4FE BFA20C                  	   mov di,3234
  8032 0000A501 268905                  F_G_18:  mov word[es:di],ax
  8033 0000A504 81C7A000                        add di,160
  8034 0000A508 E2F7                            loop F_G_18
  8035                                  
  8036 0000A50A B90400                       mov cx,4
  8037 0000A50D BF440D                  	   mov di,3396
  8038 0000A510 268905                  F_G_19:  mov word[es:di],ax
  8039 0000A513 81C7A000                        add di,160
  8040 0000A517 E2F7                            loop F_G_19		
  8041                                  		
  8042 0000A519 B90400                       mov cx,4
  8043 0000A51C BF460D                  	   mov di,3398
  8044 0000A51F 268905                  F_G_20:  mov word[es:di],ax
  8045 0000A522 81C7A000                        add di,160
  8046 0000A526 E2F7                            loop F_G_20				
  8047                                  		
  8048 0000A528 B90400                  	     mov cx,4
  8049 0000A52B BF480D                  	   mov di,3400
  8050 0000A52E 268905                  F_G_21:  mov word[es:di],ax
  8051 0000A531 81C7A000                        add di,160
  8052 0000A535 E2F7                            loop F_G_21		
  8053                                  		
  8054 0000A537 B90700                       mov cx,7
  8055 0000A53A BF6A0B                  	   mov di,2922
  8056 0000A53D 268905                  F_G_22:  mov word[es:di],ax
  8057 0000A540 81C7A000                        add di,160
  8058 0000A544 E2F7                            loop F_G_22				
  8059                                  		
  8060 0000A546 B90700                       mov cx,7
  8061 0000A549 BF6C0B                  	   mov di,2924
  8062 0000A54C 268905                  F_G_23:  mov word[es:di],ax
  8063 0000A54F 81C7A000                        add di,160
  8064 0000A553 E2F7                            loop F_G_23	
  8065                                  
  8066 0000A555 B90700                       mov cx,7
  8067 0000A558 BF6E0B                  	   mov di,2926
  8068 0000A55B 268905                  F_G_24:  mov word[es:di],ax
  8069 0000A55E 81C7A000                        add di,160
  8070 0000A562 E2F7                            loop F_G_24			
  8071                                  		
  8072 0000A564 B90500                       mov cx,5
  8073 0000A567 BFB00C                  	   mov di,3248
  8074 0000A56A 268905                  F_G_25:  mov word[es:di],ax
  8075 0000A56D 81C7A000                        add di,160
  8076 0000A571 E2F7                            loop F_G_25			
  8077                                  		
  8078 0000A573 B90500                       mov cx,5
  8079 0000A576 BFB20C                  	   mov di,3250
  8080 0000A579 268905                  F_G_26:  mov word[es:di],ax
  8081 0000A57C 81C7A000                        add di,160
  8082 0000A580 E2F7                            loop F_G_26			
  8083                                  		
  8084 0000A582 B90300                       mov cx,3
  8085 0000A585 BFF40D                  	   mov di,3572
  8086 0000A588 268905                  F_G_27:  mov word[es:di],ax
  8087 0000A58B 81C7A000                        add di,160
  8088 0000A58F E2F7                            loop F_G_27			
  8089                                  		
  8090 0000A591 B90300                       mov cx,3
  8091 0000A594 BFF60D                  	   mov di,3574
  8092 0000A597 268905                  F_G_28:  mov word[es:di],ax
  8093 0000A59A 81C7A000                        add di,160
  8094 0000A59E E2F7                            loop F_G_28					
  8095                                  		
  8096 0000A5A0 B90400                       mov cx,4
  8097 0000A5A3 BF580D                  	   mov di,3416
  8098 0000A5A6 268905                  F_G_29:  mov word[es:di],ax
  8099 0000A5A9 81C7A000                        add di,160
  8100 0000A5AD E2F7                            loop F_G_29					
  8101                                  		
  8102 0000A5AF B90400                       mov cx,4
  8103 0000A5B2 BF5A0D                  	   mov di,3418
  8104 0000A5B5 268905                  F_G_30:  mov word[es:di],ax
  8105 0000A5B8 81C7A000                        add di,160
  8106 0000A5BC E2F7                            loop F_G_30		
  8107                                  		
  8108 0000A5BE B90300                       mov cx,3
  8109 0000A5C1 BFFC0D                  	   mov di,3580
  8110 0000A5C4 268905                  F_G_31:  mov word[es:di],ax
  8111 0000A5C7 81C7A000                        add di,160
  8112 0000A5CB E2F7                            loop F_G_31				
  8113                                  		
  8114 0000A5CD B90300                       mov cx,3
  8115 0000A5D0 BFFE0D                  	   mov di,3582
  8116 0000A5D3 268905                  F_G_32:  mov word[es:di],ax
  8117 0000A5D6 81C7A000                        add di,160
  8118 0000A5DA E2F7                            loop F_G_32				
  8119                                  		
  8120                                  		
  8121 0000A5DC B90500                       mov cx,5
  8122 0000A5DF BFC00C                  	   mov di,3264
  8123 0000A5E2 268905                  F_G_33:  mov word[es:di],ax
  8124 0000A5E5 81C7A000                        add di,160
  8125 0000A5E9 E2F7                            loop F_G_33						
  8126                                  		
  8127 0000A5EB B90500                       mov cx,5
  8128 0000A5EE BFC20C                  	   mov di,3266
  8129 0000A5F1 268905                  F_G_34:  mov word[es:di],ax
  8130 0000A5F4 81C7A000                        add di,160
  8131 0000A5F8 E2F7                            loop F_G_34			
  8132                                  		
  8133 0000A5FA B90500                       mov cx,5
  8134 0000A5FD BFC40C                  	   mov di,3268
  8135 0000A600 268905                  F_G_35:  mov word[es:di],ax
  8136 0000A603 81C7A000                        add di,160
  8137 0000A607 E2F7                            loop F_G_35			
  8138                                  		
  8139 0000A609 B90300                       mov cx,3
  8140 0000A60C BF060E                  	   mov di,3590
  8141 0000A60F 268905                  F_G_36:  mov word[es:di],ax
  8142 0000A612 81C7A000                        add di,160
  8143 0000A616 E2F7                            loop F_G_36			
  8144                                  		
  8145 0000A618 B90400                       mov cx,4
  8146 0000A61B BF680D                  	   mov di,3432
  8147 0000A61E 268905                  F_G_37:  mov word[es:di],ax
  8148 0000A621 81C7A000                        add di,160
  8149 0000A625 E2F7                            loop F_G_37		
  8150                                  		
  8151                                  		
  8152 0000A627 B90400                       mov cx,4
  8153 0000A62A BF6A0D                  	   mov di,3434
  8154 0000A62D 268905                  F_G_38:  mov word[es:di],ax
  8155 0000A630 81C7A000                        add di,160
  8156 0000A634 E2F7                            loop F_G_38		
  8157                                  
  8158                                  		
  8159 0000A636 B90300                       mov cx,3
  8160 0000A639 BF0C0E                  	   mov di,3596
  8161 0000A63C 268905                  F_G_39:  mov word[es:di],ax
  8162 0000A63F 81C7A000                        add di,160
  8163 0000A643 E2F7                            loop F_G_39		
  8164                                  
  8165                                  		
  8166 0000A645 B90200                       mov cx,2
  8167 0000A648 BFAE0E                  	   mov di,3758
  8168 0000A64B 268905                  F_G_40:  mov word[es:di],ax
  8169 0000A64E 81C7A000                        add di,160
  8170 0000A652 E2F7                            loop F_G_40		
  8171                                  	
  8172 0000A654 B90200                       mov cx,2
  8173 0000A657 BFB00E                  	   mov di,3760
  8174 0000A65A 268905                  F_G_41:  mov word[es:di],ax
  8175 0000A65D 81C7A000                        add di,160
  8176 0000A661 E2F7                            loop F_G_41
  8177                                  
  8178 0000A663 B90400                       mov cx,4
  8179 0000A666 BF720D                  	   mov di,3442
  8180 0000A669 268905                  F_G_42:  mov word[es:di],ax
  8181 0000A66C 81C7A000                        add di,160
  8182 0000A670 E2F7                            loop F_G_42
  8183                                  
  8184 0000A672 B90400                       mov cx,4
  8185 0000A675 BF740D                  	   mov di,3444
  8186 0000A678 268905                  F_G_43:  mov word[es:di],ax
  8187 0000A67B 81C7A000                        add di,160
  8188 0000A67F E2F7                            loop F_G_43
  8189                                  
  8190 0000A681 B90400                       mov cx,4
  8191 0000A684 BF760D                  	   mov di,3446
  8192 0000A687 268905                  F_G_44:  mov word[es:di],ax
  8193 0000A68A 81C7A000                        add di,160
  8194 0000A68E E2F7                            loop F_G_44
  8195                                  
  8196 0000A690 B90400                       mov cx,4
  8197 0000A693 BF780D                  	   mov di,3448
  8198 0000A696 268905                  F_G_45:  mov word[es:di],ax
  8199 0000A699 81C7A000                        add di,160
  8200 0000A69D E2F7                            loop F_G_45
  8201                                  
  8202 0000A69F B90200                       mov cx,2
  8203 0000A6A2 BFBA0E                  	   mov di,3770
  8204 0000A6A5 268905                  F_G_46:  mov word[es:di],ax
  8205 0000A6A8 81C7A000                        add di,160
  8206 0000A6AC E2F7                            loop F_G_46
  8207                                  
  8208 0000A6AE B90200                       mov cx,2
  8209 0000A6B1 BFBC0E                  	   mov di,3772
  8210 0000A6B4 268905                  F_G_47:  mov word[es:di],ax
  8211 0000A6B7 81C7A000                        add di,160
  8212 0000A6BB E2F7                            loop F_G_47
  8213                                  
  8214                                  
  8215 0000A6BD B90500                       mov cx,5
  8216 0000A6C0 BFDE0C                  	   mov di,3294
  8217 0000A6C3 268905                  F_G_48:  mov word[es:di],ax
  8218 0000A6C6 81C7A000                        add di,160
  8219 0000A6CA E2F7                            loop F_G_48
  8220                                  
  8221 0000A6CC B90600                       mov cx,6
  8222 0000A6CF BFE00C                  	   mov di,3296
  8223 0000A6D2 268905                  F_G_49:  mov word[es:di],ax
  8224 0000A6D5 81C7A000                        add di,160
  8225 0000A6D9 E2F7                            loop F_G_49
  8226                                  
  8227 0000A6DB B90700                       mov cx,7
  8228 0000A6DE BFA20B                  	   mov di,2978
  8229 0000A6E1 268905                  F_G_50:  mov word[es:di],ax
  8230 0000A6E4 81C7A000                        add di,160
  8231 0000A6E8 E2F7                            loop F_G_50
  8232                                  
  8233 0000A6EA B90700                       mov cx,7
  8234 0000A6ED BFA40B                  	   mov di,2980
  8235 0000A6F0 268905                  F_G_51:  mov word[es:di],ax
  8236 0000A6F3 81C7A000                        add di,160
  8237 0000A6F7 E2F7                            loop F_G_51
  8238                                  
  8239 0000A6F9 B90700                       mov cx,7
  8240 0000A6FC BFA60B                  	   mov di,2982
  8241 0000A6FF 268905                  F_G_52:  mov word[es:di],ax
  8242 0000A702 81C7A000                        add di,160
  8243 0000A706 E2F7                            loop F_G_52
  8244                                  
  8245 0000A708 B90700                       mov cx,7
  8246 0000A70B BFA80B                  	   mov di,2984
  8247 0000A70E 268905                  F_G_53:  mov word[es:di],ax
  8248 0000A711 81C7A000                        add di,160
  8249 0000A715 E2F7                            loop F_G_53
  8250                                  
  8251 0000A717 B90300                       mov cx,3
  8252 0000A71A BF2A0E                  	   mov di,3626
  8253 0000A71D 268905                  F_G_54:  mov word[es:di],ax
  8254 0000A720 81C7A000                        add di,160
  8255 0000A724 E2F7                            loop F_G_54
  8256                                  
  8257 0000A726 B90300                       mov cx,3
  8258 0000A729 BF2C0E                  	   mov di,3628
  8259 0000A72C 268905                  F_G_55:  mov word[es:di],ax
  8260 0000A72F 81C7A000                        add di,160
  8261 0000A733 E2F7                            loop F_G_55
  8262                                  
  8263 0000A735 B90300                       mov cx,3
  8264 0000A738 BF2E0E                  	   mov di,3630
  8265 0000A73B 268905                  F_G_56:  mov word[es:di],ax
  8266 0000A73E 81C7A000                        add di,160
  8267 0000A742 E2F7                            loop F_G_56
  8268                                  
  8269 0000A744 B90500                       mov cx,5
  8270 0000A747 BFF00C                  	   mov di,3312
  8271 0000A74A 268905                  F_G_57:  mov word[es:di],ax
  8272 0000A74D 81C7A000                        add di,160
  8273 0000A751 E2F7                            loop F_G_57
  8274                                  
  8275 0000A753 B90500                       mov cx,5
  8276 0000A756 BFF20C                  	   mov di,3314
  8277 0000A759 268905                  F_G_58:  mov word[es:di],ax
  8278 0000A75C 81C7A000                        add di,160
  8279 0000A760 E2F7                            loop F_G_58
  8280                                  
  8281 0000A762 B90500                       mov cx,5
  8282 0000A765 BFF40C                  	   mov di,3316
  8283 0000A768 268905                  F_G_59:  mov word[es:di],ax
  8284 0000A76B 81C7A000                        add di,160
  8285 0000A76F E2F7                            loop F_G_59
  8286                                  
  8287 0000A771 B90300                       mov cx,3
  8288 0000A774 BF360E                  	   mov di,3638
  8289 0000A777 268905                  F_G_60:  mov word[es:di],ax
  8290 0000A77A 81C7A000                        add di,160
  8291 0000A77E E2F7                            loop F_G_60
  8292                                  
  8293 0000A780 B90600                       mov cx,6
  8294 0000A783 BF580C                  	   mov di,3160
  8295 0000A786 268905                  F_G_61:  mov word[es:di],ax
  8296 0000A789 81C7A000                        add di,160
  8297 0000A78D E2F7                            loop F_G_61
  8298                                  
  8299 0000A78F B90600                       mov cx,6
  8300 0000A792 BF5A0C                  	   mov di,3162
  8301 0000A795 268905                  F_G_62:  mov word[es:di],ax
  8302 0000A798 81C7A000                        add di,160
  8303 0000A79C E2F7                            loop F_G_62
  8304                                  
  8305 0000A79E B90600                       mov cx,6
  8306 0000A7A1 BF5C0C                  	   mov di,3164
  8307 0000A7A4 268905                  F_G_63:  mov word[es:di],ax
  8308 0000A7A7 81C7A000                        add di,160
  8309 0000A7AB E2F7                            loop F_G_63
  8310                                  
  8311 0000A7AD B90300                       mov cx,3
  8312 0000A7B0 BF3E0E                  	   mov di,3646
  8313 0000A7B3 268905                  F_G_64:  mov word[es:di],ax
  8314 0000A7B6 81C7A000                        add di,160
  8315 0000A7BA E2F7                            loop F_G_64
  8316                                  
  8317 0000A7BC B90300                       mov cx,3
  8318 0000A7BF BFE00E                  	   mov di,3808
  8319 0000A7C2 268905                  F_G_65:  mov word[es:di],ax
  8320 0000A7C5 81C7A000                        add di,160
  8321 0000A7C9 E2F7                            loop F_G_65
  8322                                  
  8323 0000A7CB B90400                       mov cx,4
  8324 0000A7CE BFA20D                  	   mov di,3490
  8325 0000A7D1 268905                  F_G_66:  mov word[es:di],ax
  8326 0000A7D4 81C7A000                        add di,160
  8327 0000A7D8 E2F7                            loop F_G_66
  8328                                  
  8329 0000A7DA B90400                       mov cx,4
  8330 0000A7DD BFA40D                  	   mov di,3492
  8331 0000A7E0 268905                  F_G_67:  mov word[es:di],ax
  8332 0000A7E3 81C7A000                        add di,160
  8333 0000A7E7 E2F7                            loop F_G_67
  8334                                  
  8335 0000A7E9 B90300                       mov cx,3
  8336 0000A7EC BF460E                  	   mov di,3654
  8337 0000A7EF 268905                  F_G_68:  mov word[es:di],ax
  8338 0000A7F2 81C7A000                        add di,160
  8339 0000A7F6 E2F7                            loop F_G_68
  8340                                  
  8341 0000A7F8 B90300                       mov cx,3
  8342 0000A7FB BF480E                  	   mov di,3656
  8343 0000A7FE 268905                  F_G_69:  mov word[es:di],ax
  8344 0000A801 81C7A000                        add di,160
  8345 0000A805 E2F7                            loop F_G_69
  8346                                  
  8347 0000A807 B90600                       mov cx,6
  8348 0000A80A BF6A0C                  	   mov di,3178
  8349 0000A80D 268905                  F_G_70:  mov word[es:di],ax
  8350 0000A810 81C7A000                        add di,160
  8351 0000A814 E2F7                            loop F_G_70
  8352                                  
  8353 0000A816 B90600                       mov cx,6
  8354 0000A819 BF6C0C                  	   mov di,3180
  8355 0000A81C 268905                  F_G_71:  mov word[es:di],ax
  8356 0000A81F 81C7A000                        add di,160
  8357 0000A823 E2F7                            loop F_G_71
  8358                                  
  8359 0000A825 B90600                       mov cx,6
  8360 0000A828 BF6E0C                  	   mov di,3182
  8361 0000A82B 268905                  F_G_72:  mov word[es:di],ax
  8362 0000A82E 81C7A000                        add di,160
  8363 0000A832 E2F7                            loop F_G_72
  8364                                  
  8365 0000A834 B90200                       mov cx,2
  8366 0000A837 BFF00E                  	   mov di,3824
  8367 0000A83A 268905                  F_G_73:  mov word[es:di],ax
  8368 0000A83D 81C7A000                        add di,160
  8369 0000A841 E2F7                            loop F_G_73
  8370                                  
  8371 0000A843 B90200                       mov cx,2
  8372 0000A846 BFF20E                  	   mov di,3826
  8373 0000A849 268905                  F_G_74:  mov word[es:di],ax
  8374 0000A84C 81C7A000                        add di,160
  8375 0000A850 E2F7                            loop F_G_74
  8376                                  
  8377 0000A852 B90300                       mov cx,3
  8378 0000A855 BF520E                  	   mov di,3666
  8379 0000A858 268905                  F_G_75:  mov word[es:di],ax
  8380 0000A85B 81C7A000                        add di,160
  8381 0000A85F E2F7                            loop F_G_75
  8382                                  		
  8383 0000A861 B90300                       mov cx,3
  8384 0000A864 BF540E                  	   mov di,3668
  8385 0000A867 268905                  F_G_76:  mov word[es:di],ax
  8386 0000A86A 81C7A000                        add di,160
  8387 0000A86E E2F7                            loop F_G_76		
  8388                                  		
  8389 0000A870 B90300                       mov cx,3
  8390 0000A873 BFF60E                  	   mov di,3830
  8391 0000A876 268905                  F_G_77:  mov word[es:di],ax
  8392 0000A879 81C7A000                        add di,160
  8393 0000A87D E2F7                            loop F_G_77		
  8394                                  		
  8395 0000A87F B90400                       mov cx,4
  8396 0000A882 BFB80D                  	   mov di,3512
  8397 0000A885 268905                  F_G_78:  mov word[es:di],ax
  8398 0000A888 81C7A000                        add di,160
  8399 0000A88C E2F7                            loop F_G_78		
  8400                                  		
  8401 0000A88E B90600                       mov cx,6
  8402 0000A891 BF7A0C                  	   mov di,3194
  8403 0000A894 268905                  F_G_79:  mov word[es:di],ax
  8404 0000A897 81C7A000                        add di,160
  8405 0000A89B E2F7                            loop F_G_79			
  8406                                  		
  8407 0000A89D B90600                       mov cx,6
  8408 0000A8A0 BF7C0C                  	   mov di,3196
  8409 0000A8A3 268905                  F_G_80:  mov word[es:di],ax
  8410 0000A8A6 81C7A000                        add di,160
  8411 0000A8AA E2F7                            loop F_G_80	
  8412                                  		
  8413 0000A8AC B90600                       mov cx,6
  8414 0000A8AF BF7E0C                  	   mov di,3198
  8415 0000A8B2 268905                  F_G_81:  mov word[es:di],ax
  8416 0000A8B5 81C7A000                        add di,160
  8417 0000A8B9 E2F7                            loop F_G_81
  8418                                  		
  8419 0000A8BB 61                             popa 
  8420 0000A8BC C3                      	   ret
  8421                                  	   
  8422                                  
  8423                                  	   
  8424 0000A8BD 60                      SUN_LEVEL_2: pusha 
  8425                                  
  8426 0000A8BE B440                    mov ah,0x40
  8427 0000A8C0 B40E                           mov ah,0x0E
  8428 0000A8C2 B0DB                    		mov al,0xDB
  8429 0000A8C4 B60F                    		mov dh,0x0F
  8430 0000A8C6 B2DB                    		mov dl,0xDB
  8431 0000A8C8 BFA404                  		mov di,1188
  8432                                  		
  8433                                  		
  8434                                          
  8435                                  		
  8436 0000A8CB 268985EA01                      mov word[es:di+490],ax
  8437 0000A8D0 268985EC01              	    mov word[es:di+492],ax
  8438 0000A8D5 268985EE01              		mov word[es:di+494],ax
  8439 0000A8DA 268985F001              		mov word[es:di+496],ax
  8440 0000A8DF 268985F601              		mov word[es:di+502],ax
  8441 0000A8E4 268985F201              		mov word[es:di+498],ax
  8442 0000A8E9 268985F401              		mov word[es:di+500],ax
  8443 0000A8EE 268985F801              		mov word[es:di+504],ax
  8444                                  		
  8445 0000A8F3 2689858602              		mov word[es:di+646],ax
  8446 0000A8F8 2689858802              		mov word[es:di+648],ax
  8447 0000A8FD 2689858A02              		mov word[es:di+650],ax
  8448 0000A902 2689959402              		mov word[es:di+660],dx
  8449 0000A907 2689858C02              		mov word[es:di+652],ax
  8450 0000A90C 2689958E02              		mov word[es:di+654],dx
  8451 0000A911 2689959002              		mov word[es:di+656],dx
  8452 0000A916 2689859802              		mov word[es:di+664],ax
  8453 0000A91B 2689859602              		mov word[es:di+662],ax
  8454 0000A920 2689959202              		mov word[es:di+658],dx
  8455 0000A925 2689859A02              		mov word[es:di+666],ax
  8456 0000A92A 2689859C02              		mov word[es:di+668],ax
  8457                                  		
  8458 0000A92F 2689852203              		mov word[es:di+802],ax
  8459 0000A934 2689852403              		mov word[es:di+804],ax
  8460 0000A939 2689852603              		mov word[es:di+806],ax
  8461 0000A93E 2689852803              		mov word[es:di+808],ax
  8462 0000A943 2689852A03              		mov word[es:di+810],ax
  8463 0000A948 2689952C03              		mov word[es:di+812],dx
  8464 0000A94D 2689952E03              		mov word[es:di+814],dx
  8465 0000A952 2689953003              		mov word[es:di+816],dx
  8466 0000A957 2689953203              		mov word[es:di+818],dx
  8467 0000A95C 2689853403              		mov word[es:di+820],ax
  8468 0000A961 2689853603              		mov word[es:di+822],ax
  8469 0000A966 2689853603              		mov word[es:di+822],ax
  8470 0000A96B 2689853803              		mov word[es:di+824],ax
  8471 0000A970 2689853A03              		mov word[es:di+826],ax
  8472 0000A975 2689853C03              		mov word[es:di+828],ax
  8473 0000A97A 2689853E03              		mov word[es:di+830],ax
  8474 0000A97F 2689854003              		mov word[es:di+832],ax
  8475                                  		
  8476 0000A984 268985C003              		mov word[es:di+960],ax
  8477 0000A989 268985C203              		mov word[es:di+962],ax
  8478 0000A98E 268985C403              		 mov word[es:di+964],ax
  8479 0000A993 268985C603              		 mov word[es:di+966],ax
  8480 0000A998 268995CA03              		 mov word[es:di+970],dx
  8481 0000A99D 268995CE03              		 mov word[es:di+974],dx
  8482 0000A9A2 268995CC03              		 mov word[es:di+972],dx
  8483 0000A9A7 268985C803              		 mov word[es:di+968],ax
  8484 0000A9AC 268995D003              		 mov word[es:di+976],dx
  8485 0000A9B1 268985D203              		 mov word[es:di+978],ax
  8486 0000A9B6 268985DA03              		 mov word[es:di+986],ax
  8487 0000A9BB 268985D603              		 mov word[es:di+982],ax
  8488 0000A9C0 268985D803              		 mov word[es:di+984],ax
  8489 0000A9C5 268985D403              	      mov word[es:di+980],ax
  8490 0000A9CA 268985DC03              		 mov word[es:di+988],ax
  8491 0000A9CF 268985DE03              		  mov word[es:di+990],ax
  8492 0000A9D4 268985E003              		  mov word[es:di+992],ax
  8493 0000A9D9 268985E203              		  mov word[es:di+994],ax
  8494                                  		
  8495 0000A9DE 2689855E04              		mov word[es:di+1118],ax
  8496 0000A9E3 2689856004              		mov word[es:di+1120],ax
  8497 0000A9E8 2689856204              		mov word[es:di+1122],ax
  8498 0000A9ED 2689856404              		mov word[es:di+1124],ax
  8499 0000A9F2 2689856604              		mov word[es:di+1126],ax
  8500 0000A9F7 2689856A04              		 mov word[es:di+1130],ax
  8501 0000A9FC 2689856C04              		 mov word[es:di+1132],ax
  8502 0000AA01 2689856804              		 mov word[es:di+1128],ax
  8503 0000AA06 2689857204              		 mov word[es:di+1138],ax
  8504 0000AA0B 2689856E04              		 mov word[es:di+1134],ax
  8505 0000AA10 2689857004              		 mov word[es:di+1136],ax
  8506 0000AA15 2689857404              		 mov word[es:di+1140],ax
  8507 0000AA1A 2689857A04              		mov word[es:di+1146],ax
  8508 0000AA1F 2689857604              		 mov word[es:di+1142],ax
  8509 0000AA24 2689857804              		 mov word[es:di+1144],ax
  8510 0000AA29 2689857C04              		mov word[es:di+1148],ax
  8511 0000AA2E 2689857E04              		mov word[es:di+1150],ax
  8512 0000AA33 2689858004              		mov word[es:di+1152],ax
  8513 0000AA38 2689858204              		mov word[es:di+1154],ax
  8514 0000AA3D 2689858404              		mov word[es:di+1156],ax
  8515                                  
  8516                                  
  8517 0000AA42 61                      popa
  8518 0000AA43 C3                      ret		  
  8519                                  
  8520                                  
  8521 0000AA44 60                      CLOUD1_LEVEL_2:pusha 
  8522                                  
  8523 0000AA45 B440                    mov ah,0x40
  8524 0000AA47 B40F                           mov ah,0x0F
  8525 0000AA49 B0DB                    		mov al,0xDB
  8526 0000AA4B B607                    		mov dh,0x07
  8527 0000AA4D B2DB                    		mov dl,0xDB
  8528 0000AA4F 8B3E[C5A3]              		mov di,[CLOUD_1_LEVEL_2_POS]
  8529                                  
  8530                                  
  8531 0000AA53 268985EC01              	    mov word[es:di+492],ax
  8532 0000AA58 268985EE01              		mov word[es:di+494],ax
  8533 0000AA5D 268985F001              		mov word[es:di+496],ax
  8534 0000AA62 268985F601              		mov word[es:di+502],ax
  8535 0000AA67 268985F201              		mov word[es:di+498],ax
  8536 0000AA6C 268985F401              		mov word[es:di+500],ax
  8537                                  		
  8538 0000AA71 2689858A02              		mov word[es:di+650],ax
  8539 0000AA76 2689859402              		mov word[es:di+660],ax
  8540 0000AA7B 2689858C02              		mov word[es:di+652],ax
  8541 0000AA80 2689858E02              		mov word[es:di+654],ax
  8542 0000AA85 2689859002              		mov word[es:di+656],ax
  8543 0000AA8A 2689859802              		mov word[es:di+664],ax
  8544 0000AA8F 2689859602              		mov word[es:di+662],ax
  8545 0000AA94 2689859202              		mov word[es:di+658],ax
  8546                                  		
  8547 0000AA99 2689852603              		mov word[es:di+806],ax
  8548 0000AA9E 2689852803              		mov word[es:di+808],ax
  8549 0000AAA3 2689852A03              		mov word[es:di+810],ax
  8550 0000AAA8 2689852C03              		mov word[es:di+812],ax
  8551 0000AAAD 2689852E03              		mov word[es:di+814],ax
  8552 0000AAB2 2689853003              		mov word[es:di+816],ax
  8553 0000AAB7 2689853203              		mov word[es:di+818],ax
  8554 0000AABC 2689853403              		mov word[es:di+820],ax
  8555 0000AAC1 2689853603              		mov word[es:di+822],ax
  8556 0000AAC6 2689853603              		mov word[es:di+822],ax
  8557 0000AACB 2689853803              		mov word[es:di+824],ax
  8558 0000AAD0 2689853A03              		mov word[es:di+826],ax
  8559 0000AAD5 2689853C03              		mov word[es:di+828],ax
  8560                                  		
  8561 0000AADA 268985C403              		mov word[es:di+964],ax
  8562 0000AADF 268985C603              		mov word[es:di+966],ax
  8563 0000AAE4 268985CA03              		mov word[es:di+970],ax
  8564 0000AAE9 268985CE03              		mov word[es:di+974],ax
  8565 0000AAEE 268985CC03              		mov word[es:di+972],ax
  8566 0000AAF3 268985C803              		mov word[es:di+968],ax
  8567 0000AAF8 268985D003              		mov word[es:di+976],ax
  8568 0000AAFD 268985D203              		mov word[es:di+978],ax
  8569 0000AB02 268985DA03              		mov word[es:di+986],ax
  8570 0000AB07 268985D603              		mov word[es:di+982],ax
  8571 0000AB0C 268985D803              		mov word[es:di+984],ax
  8572 0000AB11 268985D403              		mov word[es:di+980],ax
  8573 0000AB16 268985DC03              		mov word[es:di+988],ax
  8574 0000AB1B 268985DE03              		mov word[es:di+990],ax
  8575                                  
  8576                                  		  
  8577                                  
  8578 0000AB20 61                      popa
  8579 0000AB21 C3                      ret	
  8580                                  
  8581                                  
  8582 0000AB22 60                      CLOUD2_LEVEL_2:pusha 
  8583                                  
  8584 0000AB23 B440                    mov ah,0x40
  8585 0000AB25 B40F                           mov ah,0x0F
  8586 0000AB27 B0DB                    		mov al,0xDB
  8587 0000AB29 B607                    		mov dh,0x07
  8588 0000AB2B B2DB                    		mov dl,0xDB
  8589 0000AB2D 8B3E[C7A3]              		mov di,[CLOUD_2_LEVEL_2_POS]
  8590                                  
  8591                                  
  8592 0000AB31 268985EC01              	    mov word[es:di+492],ax
  8593 0000AB36 268985EE01              		mov word[es:di+494],ax
  8594 0000AB3B 268985F001              		mov word[es:di+496],ax
  8595 0000AB40 268985F601              		mov word[es:di+502],ax
  8596 0000AB45 268985F201              		mov word[es:di+498],ax
  8597 0000AB4A 268985F401              		mov word[es:di+500],ax
  8598                                  		
  8599 0000AB4F 2689858A02              		mov word[es:di+650],ax
  8600 0000AB54 2689859402              		mov word[es:di+660],ax
  8601 0000AB59 2689858C02              		mov word[es:di+652],ax
  8602 0000AB5E 2689858E02              		mov word[es:di+654],ax
  8603 0000AB63 2689859002              		mov word[es:di+656],ax
  8604 0000AB68 2689859802              		mov word[es:di+664],ax
  8605 0000AB6D 2689859602              		mov word[es:di+662],ax
  8606 0000AB72 2689859202              		mov word[es:di+658],ax
  8607                                  		
  8608 0000AB77 2689852603              		mov word[es:di+806],ax
  8609 0000AB7C 2689852803              		mov word[es:di+808],ax
  8610 0000AB81 2689852A03              		mov word[es:di+810],ax
  8611 0000AB86 2689852C03              		mov word[es:di+812],ax
  8612 0000AB8B 2689852E03              		mov word[es:di+814],ax
  8613 0000AB90 2689853003              		mov word[es:di+816],ax
  8614 0000AB95 2689853203              		mov word[es:di+818],ax
  8615 0000AB9A 2689853403              		mov word[es:di+820],ax
  8616 0000AB9F 2689853603              		mov word[es:di+822],ax
  8617 0000ABA4 2689853603              		mov word[es:di+822],ax
  8618 0000ABA9 2689853803              		mov word[es:di+824],ax
  8619 0000ABAE 2689853A03              		mov word[es:di+826],ax
  8620 0000ABB3 2689853C03              		mov word[es:di+828],ax
  8621                                  		
  8622 0000ABB8 268985C403              		mov word[es:di+964],ax
  8623 0000ABBD 268985C603              		mov word[es:di+966],ax
  8624 0000ABC2 268985CA03              		mov word[es:di+970],ax
  8625 0000ABC7 268985CE03              		mov word[es:di+974],ax
  8626 0000ABCC 268985CC03              		mov word[es:di+972],ax
  8627 0000ABD1 268985C803              		mov word[es:di+968],ax
  8628 0000ABD6 268985D003              		mov word[es:di+976],ax
  8629 0000ABDB 268985D203              		mov word[es:di+978],ax
  8630 0000ABE0 268985DA03              		mov word[es:di+986],ax
  8631 0000ABE5 268985D603              		mov word[es:di+982],ax
  8632 0000ABEA 268985D803              		mov word[es:di+984],ax
  8633 0000ABEF 268985D403              		mov word[es:di+980],ax
  8634 0000ABF4 268985DC03              		mov word[es:di+988],ax
  8635 0000ABF9 268985DE03              		mov word[es:di+990],ax
  8636                                  		  
  8637                                  
  8638 0000ABFE 61                      popa
  8639 0000ABFF C3                      ret	
  8640                                  
  8641 0000AC00 60                      CLOUD3_LEVEL_2:pusha 
  8642                                  
  8643 0000AC01 B440                    mov ah,0x40
  8644 0000AC03 B40F                           mov ah,0x0F
  8645 0000AC05 B0DB                    		mov al,0xDB
  8646 0000AC07 B607                    		mov dh,0x07
  8647 0000AC09 B2DB                    		mov dl,0xDB
  8648 0000AC0B 8B3E[C9A3]              		mov di,[CLOUD_3_LEVEL_2_POS]
  8649                                  
  8650                                  
  8651 0000AC0F 268985EC01              	    mov word[es:di+492],ax
  8652 0000AC14 268985EE01              		mov word[es:di+494],ax
  8653 0000AC19 268985F001              		mov word[es:di+496],ax
  8654 0000AC1E 268985F601              		mov word[es:di+502],ax
  8655 0000AC23 268985F201              		mov word[es:di+498],ax
  8656 0000AC28 268985F401              		mov word[es:di+500],ax
  8657                                  		
  8658 0000AC2D 2689858A02              		mov word[es:di+650],ax
  8659 0000AC32 2689859402              		mov word[es:di+660],ax
  8660 0000AC37 2689858C02              		mov word[es:di+652],ax
  8661 0000AC3C 2689858E02              		mov word[es:di+654],ax
  8662 0000AC41 2689859002              		mov word[es:di+656],ax
  8663 0000AC46 2689859802              		mov word[es:di+664],ax
  8664 0000AC4B 2689859602              		mov word[es:di+662],ax
  8665 0000AC50 2689859202              		mov word[es:di+658],ax
  8666                                  		
  8667 0000AC55 2689852603              		mov word[es:di+806],ax
  8668 0000AC5A 2689852803              		mov word[es:di+808],ax
  8669 0000AC5F 2689852A03              		mov word[es:di+810],ax
  8670 0000AC64 2689852C03              		mov word[es:di+812],ax
  8671 0000AC69 2689852E03              		mov word[es:di+814],ax
  8672 0000AC6E 2689853003              		mov word[es:di+816],ax
  8673 0000AC73 2689853203              		mov word[es:di+818],ax
  8674 0000AC78 2689853403              		mov word[es:di+820],ax
  8675 0000AC7D 2689853603              		mov word[es:di+822],ax
  8676 0000AC82 2689853603              		mov word[es:di+822],ax
  8677 0000AC87 2689853803              		mov word[es:di+824],ax
  8678 0000AC8C 2689853A03              		mov word[es:di+826],ax
  8679 0000AC91 2689853C03              		mov word[es:di+828],ax
  8680                                  		
  8681 0000AC96 268985C403              		mov word[es:di+964],ax
  8682 0000AC9B 268985C603              		mov word[es:di+966],ax
  8683 0000ACA0 268985CA03              		mov word[es:di+970],ax
  8684 0000ACA5 268985CE03              		mov word[es:di+974],ax
  8685 0000ACAA 268985CC03              		mov word[es:di+972],ax
  8686 0000ACAF 268985C803              		mov word[es:di+968],ax
  8687 0000ACB4 268985D003              		mov word[es:di+976],ax
  8688 0000ACB9 268985D203              		mov word[es:di+978],ax
  8689 0000ACBE 268985DA03              		mov word[es:di+986],ax
  8690 0000ACC3 268985D603              		mov word[es:di+982],ax
  8691 0000ACC8 268985D803              		mov word[es:di+984],ax
  8692 0000ACCD 268985D403              		mov word[es:di+980],ax
  8693 0000ACD2 268985DC03              		mov word[es:di+988],ax
  8694 0000ACD7 268985DE03              		mov word[es:di+990],ax
  8695                                  		
  8696                                  		  
  8697                                  
  8698 0000ACDC 61                      popa
  8699 0000ACDD C3                      ret	
  8700                                  
  8701 0000ACDE 60                      CLOUD4_LEVEL_2:pusha 
  8702                                  
  8703 0000ACDF B440                    mov ah,0x40
  8704 0000ACE1 B40F                           mov ah,0x0F
  8705 0000ACE3 B0DB                    		mov al,0xDB
  8706 0000ACE5 B607                    		mov dh,0x07
  8707 0000ACE7 B2DB                    		mov dl,0xDB
  8708 0000ACE9 8B3E[CBA3]              		mov di,[CLOUD_4_LEVEL_2_POS]
  8709                                  
  8710                                  
  8711 0000ACED 268985EC01              	    mov word[es:di+492],ax
  8712 0000ACF2 268985EE01              		mov word[es:di+494],ax
  8713 0000ACF7 268985F001              		mov word[es:di+496],ax
  8714 0000ACFC 268985F601              		mov word[es:di+502],ax
  8715 0000AD01 268985F201              		mov word[es:di+498],ax
  8716 0000AD06 268985F401              		mov word[es:di+500],ax
  8717                                  		
  8718 0000AD0B 2689858A02              		mov word[es:di+650],ax
  8719 0000AD10 2689859402              		mov word[es:di+660],ax
  8720 0000AD15 2689858C02              		mov word[es:di+652],ax
  8721 0000AD1A 2689858E02              		mov word[es:di+654],ax
  8722 0000AD1F 2689859002              		mov word[es:di+656],ax
  8723 0000AD24 2689859802              		mov word[es:di+664],ax
  8724 0000AD29 2689859602              		mov word[es:di+662],ax
  8725 0000AD2E 2689859202              		mov word[es:di+658],ax
  8726                                  		
  8727 0000AD33 2689852603              		mov word[es:di+806],ax
  8728 0000AD38 2689852803              		mov word[es:di+808],ax
  8729 0000AD3D 2689852A03              		mov word[es:di+810],ax
  8730 0000AD42 2689852C03              		mov word[es:di+812],ax
  8731 0000AD47 2689852E03              		mov word[es:di+814],ax
  8732 0000AD4C 2689853003              		mov word[es:di+816],ax
  8733 0000AD51 2689853203              		mov word[es:di+818],ax
  8734 0000AD56 2689853403              		mov word[es:di+820],ax
  8735 0000AD5B 2689853603              		mov word[es:di+822],ax
  8736 0000AD60 2689853603              		mov word[es:di+822],ax
  8737 0000AD65 2689853803              		mov word[es:di+824],ax
  8738 0000AD6A 2689853A03              		mov word[es:di+826],ax
  8739 0000AD6F 2689853C03              		mov word[es:di+828],ax
  8740                                  		
  8741 0000AD74 268985C403              		mov word[es:di+964],ax
  8742 0000AD79 268985C603              		mov word[es:di+966],ax
  8743 0000AD7E 268985CA03              		mov word[es:di+970],ax
  8744 0000AD83 268985CE03              		mov word[es:di+974],ax
  8745 0000AD88 268985CC03              		mov word[es:di+972],ax
  8746 0000AD8D 268985C803              		mov word[es:di+968],ax
  8747 0000AD92 268985D003              		mov word[es:di+976],ax
  8748 0000AD97 268985D203              		mov word[es:di+978],ax
  8749 0000AD9C 268985DA03              		mov word[es:di+986],ax
  8750 0000ADA1 268985D603              		mov word[es:di+982],ax
  8751 0000ADA6 268985D803              		mov word[es:di+984],ax
  8752 0000ADAB 268985D403              		mov word[es:di+980],ax
  8753 0000ADB0 268985DC03              		mov word[es:di+988],ax
  8754 0000ADB5 268985DE03              		mov word[es:di+990],ax
  8755                                  		
  8756                                  		  
  8757                                  
  8758 0000ADBA 61                      popa
  8759 0000ADBB C3                      ret	
  8760                                  
  8761 0000ADBC 60                      CLOUD5_LEVEL_2:pusha 
  8762                                  
  8763 0000ADBD B440                    mov ah,0x40
  8764 0000ADBF B40F                           mov ah,0x0F
  8765 0000ADC1 B0DB                    		mov al,0xDB
  8766 0000ADC3 B607                    		mov dh,0x07
  8767 0000ADC5 B2DB                    		mov dl,0xDB
  8768 0000ADC7 8B3E[CDA3]              		mov di,[CLOUD_5_LEVEL_2_POS]
  8769                                  
  8770                                  
  8771 0000ADCB 268985EC01              	    mov word[es:di+492],ax
  8772 0000ADD0 268985EE01              		mov word[es:di+494],ax
  8773 0000ADD5 268985F001              		mov word[es:di+496],ax
  8774 0000ADDA 268985F601              		mov word[es:di+502],ax
  8775 0000ADDF 268985F201              		mov word[es:di+498],ax
  8776 0000ADE4 268985F401              		mov word[es:di+500],ax
  8777                                  		
  8778 0000ADE9 2689858A02              		mov word[es:di+650],ax
  8779 0000ADEE 2689859402              		mov word[es:di+660],ax
  8780 0000ADF3 2689858C02              		mov word[es:di+652],ax
  8781 0000ADF8 2689858E02              		mov word[es:di+654],ax
  8782 0000ADFD 2689859002              		mov word[es:di+656],ax
  8783 0000AE02 2689859802              		mov word[es:di+664],ax
  8784 0000AE07 2689859602              		mov word[es:di+662],ax
  8785 0000AE0C 2689859202              		mov word[es:di+658],ax
  8786                                  		
  8787 0000AE11 2689852603              		mov word[es:di+806],ax
  8788 0000AE16 2689852803              		mov word[es:di+808],ax
  8789 0000AE1B 2689852A03              		mov word[es:di+810],ax
  8790 0000AE20 2689852C03              		mov word[es:di+812],ax
  8791 0000AE25 2689852E03              		mov word[es:di+814],ax
  8792 0000AE2A 2689853003              		mov word[es:di+816],ax
  8793 0000AE2F 2689853203              		mov word[es:di+818],ax
  8794 0000AE34 2689853403              		mov word[es:di+820],ax
  8795 0000AE39 2689853603              		mov word[es:di+822],ax
  8796 0000AE3E 2689853603              		mov word[es:di+822],ax
  8797 0000AE43 2689853803              		mov word[es:di+824],ax
  8798 0000AE48 2689853A03              		mov word[es:di+826],ax
  8799 0000AE4D 2689853C03              		mov word[es:di+828],ax
  8800                                  		
  8801 0000AE52 268985C403              		mov word[es:di+964],ax
  8802 0000AE57 268985C603              		mov word[es:di+966],ax
  8803 0000AE5C 268985CA03              		mov word[es:di+970],ax
  8804 0000AE61 268985CE03              		mov word[es:di+974],ax
  8805 0000AE66 268985CC03              		mov word[es:di+972],ax
  8806 0000AE6B 268985C803              		mov word[es:di+968],ax
  8807 0000AE70 268985D003              		mov word[es:di+976],ax
  8808 0000AE75 268985D203              		mov word[es:di+978],ax
  8809 0000AE7A 268985DA03              		mov word[es:di+986],ax
  8810 0000AE7F 268985D603              		mov word[es:di+982],ax
  8811 0000AE84 268985D803              		mov word[es:di+984],ax
  8812 0000AE89 268985D403              		mov word[es:di+980],ax
  8813 0000AE8E 268985DC03              		mov word[es:di+988],ax
  8814 0000AE93 268985DE03              		mov word[es:di+990],ax
  8815                                  		
  8816                                  		  
  8817                                  
  8818 0000AE98 61                      popa
  8819 0000AE99 C3                      ret	
  8820                                  
  8821 0000AE9A 60                      CLOUD6_LEVEL_2:pusha 
  8822                                  
  8823 0000AE9B B440                    mov ah,0x40
  8824 0000AE9D B40F                           mov ah,0x0F
  8825 0000AE9F B0DB                    		mov al,0xDB
  8826 0000AEA1 B607                    		mov dh,0x07
  8827 0000AEA3 B2DB                    		mov dl,0xDB
  8828 0000AEA5 8B3E[CFA3]              		mov di,[CLOUD_6_LEVEL_2_POS]
  8829                                  
  8830                                  
  8831 0000AEA9 268985EC01              	    mov word[es:di+492],ax
  8832 0000AEAE 268985EE01              		mov word[es:di+494],ax
  8833 0000AEB3 268985F001              		mov word[es:di+496],ax
  8834 0000AEB8 268985F601              		mov word[es:di+502],ax
  8835 0000AEBD 268985F201              		mov word[es:di+498],ax
  8836 0000AEC2 268985F401              		mov word[es:di+500],ax
  8837                                  		
  8838 0000AEC7 2689858A02              		mov word[es:di+650],ax
  8839 0000AECC 2689859402              		mov word[es:di+660],ax
  8840 0000AED1 2689858C02              		mov word[es:di+652],ax
  8841 0000AED6 2689858E02              		mov word[es:di+654],ax
  8842 0000AEDB 2689859002              		mov word[es:di+656],ax
  8843 0000AEE0 2689859802              		mov word[es:di+664],ax
  8844 0000AEE5 2689859602              		mov word[es:di+662],ax
  8845 0000AEEA 2689859202              		mov word[es:di+658],ax
  8846                                  		
  8847 0000AEEF 2689852603              		mov word[es:di+806],ax
  8848 0000AEF4 2689852803              		mov word[es:di+808],ax
  8849 0000AEF9 2689852A03              		mov word[es:di+810],ax
  8850 0000AEFE 2689852C03              		mov word[es:di+812],ax
  8851 0000AF03 2689852E03              		mov word[es:di+814],ax
  8852 0000AF08 2689853003              		mov word[es:di+816],ax
  8853 0000AF0D 2689853203              		mov word[es:di+818],ax
  8854 0000AF12 2689853403              		mov word[es:di+820],ax
  8855 0000AF17 2689853603              		mov word[es:di+822],ax
  8856 0000AF1C 2689853603              		mov word[es:di+822],ax
  8857 0000AF21 2689853803              		mov word[es:di+824],ax
  8858 0000AF26 2689853A03              		mov word[es:di+826],ax
  8859 0000AF2B 2689853C03              		mov word[es:di+828],ax
  8860                                  		
  8861 0000AF30 268985C403              		mov word[es:di+964],ax
  8862 0000AF35 268985C603              		mov word[es:di+966],ax
  8863 0000AF3A 268985CA03              		mov word[es:di+970],ax
  8864 0000AF3F 268985CE03              		mov word[es:di+974],ax
  8865 0000AF44 268985CC03              		mov word[es:di+972],ax
  8866 0000AF49 268985C803              		mov word[es:di+968],ax
  8867 0000AF4E 268985D003              		mov word[es:di+976],ax
  8868 0000AF53 268985D203              		mov word[es:di+978],ax
  8869 0000AF58 268985DA03              		mov word[es:di+986],ax
  8870 0000AF5D 268985D603              		mov word[es:di+982],ax
  8871 0000AF62 268985D803              		mov word[es:di+984],ax
  8872 0000AF67 268985D403              		mov word[es:di+980],ax
  8873 0000AF6C 268985DC03              		mov word[es:di+988],ax
  8874 0000AF71 268985DE03              		mov word[es:di+990],ax
  8875                                  		
  8876                                  		  
  8877                                  
  8878 0000AF76 61                      popa
  8879 0000AF77 C3                      ret	
  8880                                  
  8881 0000AF78 60                      CLOUD7_LEVEL_2:pusha 
  8882                                  
  8883 0000AF79 B440                    mov ah,0x40
  8884 0000AF7B B40F                           mov ah,0x0F
  8885 0000AF7D B0DB                    		mov al,0xDB
  8886 0000AF7F B607                    		mov dh,0x07
  8887 0000AF81 B2DB                    		mov dl,0xDB
  8888 0000AF83 8B3E[D1A3]              		mov di,[CLOUD_7_LEVEL_2_POS]
  8889                                  
  8890                                  
  8891 0000AF87 268985EC01              	    mov word[es:di+492],ax
  8892 0000AF8C 268985EE01              		mov word[es:di+494],ax
  8893 0000AF91 268985F001              		mov word[es:di+496],ax
  8894 0000AF96 268985F601              		mov word[es:di+502],ax
  8895 0000AF9B 268985F201              		mov word[es:di+498],ax
  8896 0000AFA0 268985F401              		mov word[es:di+500],ax
  8897                                  		
  8898 0000AFA5 2689858A02              		mov word[es:di+650],ax
  8899 0000AFAA 2689859402              		mov word[es:di+660],ax
  8900 0000AFAF 2689858C02              		mov word[es:di+652],ax
  8901 0000AFB4 2689858E02              		mov word[es:di+654],ax
  8902 0000AFB9 2689859002              		mov word[es:di+656],ax
  8903 0000AFBE 2689859802              		mov word[es:di+664],ax
  8904 0000AFC3 2689859602              		mov word[es:di+662],ax
  8905 0000AFC8 2689859202              		mov word[es:di+658],ax
  8906                                  		
  8907 0000AFCD 2689852603              		mov word[es:di+806],ax
  8908 0000AFD2 2689852803              		mov word[es:di+808],ax
  8909 0000AFD7 2689852A03              		mov word[es:di+810],ax
  8910 0000AFDC 2689852C03              		mov word[es:di+812],ax
  8911 0000AFE1 2689852E03              		mov word[es:di+814],ax
  8912 0000AFE6 2689853003              		mov word[es:di+816],ax
  8913 0000AFEB 2689853203              		mov word[es:di+818],ax
  8914 0000AFF0 2689853403              		mov word[es:di+820],ax
  8915 0000AFF5 2689853603              		mov word[es:di+822],ax
  8916 0000AFFA 2689853603              		mov word[es:di+822],ax
  8917 0000AFFF 2689853803              		mov word[es:di+824],ax
  8918 0000B004 2689853A03              		mov word[es:di+826],ax
  8919 0000B009 2689853C03              		mov word[es:di+828],ax
  8920                                  		
  8921                                  	
  8922                                  		
  8923                                  		  
  8924                                  
  8925 0000B00E 61                      popa
  8926 0000B00F C3                      ret	
  8927                                  
  8928 0000B010 60                      CLOUD8_LEVEL_2:pusha 
  8929                                  
  8930 0000B011 B440                    mov ah,0x40
  8931 0000B013 B40F                           mov ah,0x0F
  8932 0000B015 B0DB                    		mov al,0xDB
  8933 0000B017 B607                    		mov dh,0x07
  8934 0000B019 B2DB                    		mov dl,0xDB
  8935 0000B01B 8B3E[D3A3]              		mov di,[CLOUD_8_LEVEL_2_POS]
  8936                                  
  8937                                  
  8938 0000B01F 268985EC01              	    mov word[es:di+492],ax
  8939 0000B024 268985EE01              		mov word[es:di+494],ax
  8940 0000B029 268985F001              		mov word[es:di+496],ax
  8941 0000B02E 268985F601              		mov word[es:di+502],ax
  8942 0000B033 268985F201              		mov word[es:di+498],ax
  8943 0000B038 268985F401              		mov word[es:di+500],ax
  8944                                  		
  8945 0000B03D 2689858A02              		mov word[es:di+650],ax
  8946 0000B042 2689859402              		mov word[es:di+660],ax
  8947 0000B047 2689858C02              		mov word[es:di+652],ax
  8948 0000B04C 2689858E02              		mov word[es:di+654],ax
  8949 0000B051 2689859002              		mov word[es:di+656],ax
  8950 0000B056 2689859802              		mov word[es:di+664],ax
  8951 0000B05B 2689859602              		mov word[es:di+662],ax
  8952 0000B060 2689859202              		mov word[es:di+658],ax
  8953                                  		
  8954 0000B065 2689852603              		mov word[es:di+806],ax
  8955 0000B06A 2689852803              		mov word[es:di+808],ax
  8956 0000B06F 2689852A03              		mov word[es:di+810],ax
  8957 0000B074 2689852C03              		mov word[es:di+812],ax
  8958 0000B079 2689852E03              		mov word[es:di+814],ax
  8959 0000B07E 2689853003              		mov word[es:di+816],ax
  8960 0000B083 2689853203              		mov word[es:di+818],ax
  8961 0000B088 2689853403              		mov word[es:di+820],ax
  8962 0000B08D 2689853603              		mov word[es:di+822],ax
  8963 0000B092 2689853603              		mov word[es:di+822],ax
  8964 0000B097 2689853803              		mov word[es:di+824],ax
  8965 0000B09C 2689853A03              		mov word[es:di+826],ax
  8966 0000B0A1 2689853C03              		mov word[es:di+828],ax
  8967                                  		
  8968                                  
  8969 0000B0A6 61                      popa
  8970 0000B0A7 C3                      ret	
  8971                                  
  8972                                  ;;////////////////////////////////////LEVEL 2 BG FUNCTION///////////////////////////
  8973                                  ;;/////////////////////////////////////////////////////////////////////////////////
  8974 0000B0A8 60                      LEVEL_2_THEME:pusha 
  8975 0000B0A9 E829F3                         call clscr_LEVEL_2
  8976 0000B0AC E843F3                         call BUILDINGS_LEVEL_2
  8977 0000B0AF E80BF8                  	   call SUN_LEVEL_2
  8978 0000B0B2 E88FF9                  	   call CLOUD1_LEVEL_2
  8979 0000B0B5 E86AFA                  	   call CLOUD2_LEVEL_2
  8980 0000B0B8 E845FB                  	   call CLOUD3_LEVEL_2
  8981 0000B0BB E820FC                  	   call CLOUD4_LEVEL_2
  8982 0000B0BE E8FBFC                  	   call CLOUD5_LEVEL_2
  8983 0000B0C1 E8D6FD                  	   call CLOUD6_LEVEL_2
  8984 0000B0C4 E8B1FE                  	   call CLOUD7_LEVEL_2
  8985 0000B0C7 E846FF                  	   call CLOUD8_LEVEL_2
  8986                                    
  8987 0000B0CA 61                             popa
  8988 0000B0CB C3                      	   ret
  8989                                  				
  8990                                  ;;////////////////////////////////////////LEVEL 3 SCREEN//////////////////////////////
  8991                                  ;;///////////////////////////////////////////////////////////////////////////////////
  8992                                  
  8993                                  
  8994                                  
  8995 0000B0CC E2FE                    CLOUD_1_LEVEL_3_POS: dw -286
  8996 0000B0CE A000                    CLOUD_2_LEVEL_3_POS: dw 160
  8997 0000B0D0 26FF                    CLOUD_3_LEVEL_3_POS: dw -218
  8998 0000B0D2 EC04                    CLOUD_4_LEVEL_3_POS: dw 1260
  8999 0000B0D4 6603                    CLOUD_5_LEVEL_3_POS: dw 870
  9000 0000B0D6 AC06                    CLOUD_6_LEVEL_3_POS: dw 1708
  9001 0000B0D8 5802                    CLOUD_7_LEVEL_3_POS: dw 600
  9002 0000B0DA 8204                    CLOUD_8_LEVEL_3_POS: dw 1154
  9003 0000B0DC 9807                    CLOUD_9_LEVEL_3_POS: dw 1944
  9004                                  
  9005 0000B0DE 60                      clscr_LEVEL_3: pusha
  9006 0000B0DF BF0000                  mov di,0
  9007 0000B0E2 B800B8                         mov ax,0xb800
  9008 0000B0E5 8EC0                    	   mov es,ax
  9009 0000B0E7 B8DB00                  	   mov ax,0x00DB
  9010 0000B0EA B9D207                         mov cx,2002
  9011 0000B0ED FC                      	   cld
  9012 0000B0EE F3AB                    	   rep stosw
  9013 0000B0F0 FD                      std
  9014 0000B0F1 61                             popa 
  9015 0000B0F2 C3                      	   ret
  9016                                  	   
  9017                                  
  9018 0000B0F3 60                      BUILDINGS__LEVEL_3: pusha
  9019 0000B0F4 B808B8                         mov ax,0xb808
  9020 0000B0F7 8EC0                    	   mov es,ax
  9021 0000B0F9 B40F                    	   mov ah,0x0F
  9022 0000B0FB B0DB                    	   mov al,0xDB
  9023 0000B0FD B90400                         mov cx,4
  9024 0000B100 BF200D                  	   mov di,3360
  9025 0000B103 268905                  F_G_1_LEVEL_3:  mov word[es:di],ax
  9026 0000B106 81C7A000                        add di,160
  9027 0000B10A E2F7                            loop F_G_1_LEVEL_3
  9028                                   
  9029 0000B10C B90200                         mov cx,2
  9030 0000B10F BF620E                  	   mov di,3682
  9031 0000B112 268905                  F_G_2_LEVEL_3:  mov word[es:di],ax
  9032 0000B115 81C7A000                        add di,160
  9033 0000B119 E2F7                            loop F_G_2_LEVEL_3
  9034                                  
  9035 0000B11B B90200                        mov cx,2
  9036 0000B11E BF640E                  	   mov di,3684
  9037 0000B121 268905                  F_G_3_LEVEL_3:  mov word[es:di],ax
  9038 0000B124 81C7A000                        add di,160
  9039 0000B128 E2F7                            loop F_G_3_LEVEL_3
  9040                                  		
  9041 0000B12A B90300                        mov cx,3
  9042 0000B12D BFC60D                  	   mov di,3526
  9043 0000B130 268905                  F_G_4_LEVEL_3:  mov word[es:di],ax
  9044 0000B133 81C7A000                        add di,160
  9045 0000B137 E2F7                            loop F_G_4_LEVEL_3		
  9046                                  
  9047                                  
  9048 0000B139 B90400                        mov cx,4
  9049 0000B13C BF280D                  	   mov di,3368
  9050 0000B13F 268905                  F_G_5_LEVEL_3:  mov word[es:di],ax
  9051 0000B142 81C7A000                        add di,160
  9052 0000B146 E2F7                            loop F_G_5_LEVEL_3
  9053                                  
  9054 0000B148 B90400                        mov cx,4
  9055 0000B14B BF2A0D                  	   mov di,3370
  9056 0000B14E 268905                  F_G_6_LEVEL_3:  mov word[es:di],ax
  9057 0000B151 81C7A000                        add di,160
  9058 0000B155 E2F7                            loop F_G_6_LEVEL_3
  9059                                  
  9060 0000B157 B90300                        mov cx,3
  9061 0000B15A BFCC0D                  	   mov di,3532
  9062 0000B15D 268905                  F_G_7_LEVEL_3:  mov word[es:di],ax
  9063 0000B160 81C7A000                        add di,160
  9064 0000B164 E2F7                            loop F_G_7_LEVEL_3
  9065                                  
  9066 0000B166 B90500                        mov cx,5
  9067 0000B169 BF8E0C                  	   mov di,3214
  9068 0000B16C 268905                  F_G_8_LEVEL_3:  mov word[es:di],ax
  9069 0000B16F 81C7A000                        add di,160
  9070 0000B173 E2F7                            loop F_G_8_LEVEL_3
  9071                                  
  9072 0000B175 B90500                        mov cx,5
  9073 0000B178 BF900C                  	   mov di,3216
  9074 0000B17B 268905                  F_G_9_LEVEL_3:  mov word[es:di],ax
  9075 0000B17E 81C7A000                        add di,160
  9076 0000B182 E2F7                            loop F_G_9_LEVEL_3
  9077                                  
  9078 0000B184 B90300                       mov cx,3
  9079 0000B187 BFD20D                  	   mov di,3538
  9080 0000B18A 268905                  F_G_10_LEVEL_3:  mov word[es:di],ax
  9081 0000B18D 81C7A000                        add di,160
  9082 0000B191 E2F7                            loop F_G_10_LEVEL_3
  9083                                  
  9084 0000B193 B90600                       mov cx,6
  9085 0000B196 BFF40B                  	   mov di,3060
  9086 0000B199 268905                  F_G_11_LEVEL_3:  mov word[es:di],ax
  9087 0000B19C 81C7A000                        add di,160
  9088 0000B1A0 E2F7                            loop F_G_11_LEVEL_3
  9089 0000B1A2 B90600                       mov cx,6
  9090 0000B1A5 BFF60B                  	   mov di,3062
  9091 0000B1A8 268905                  F_G_12_LEVEL_3:  mov word[es:di],ax
  9092 0000B1AB 81C7A000                        add di,160
  9093 0000B1AF E2F7                            loop F_G_12_LEVEL_3
  9094                                  
  9095 0000B1B1 B90600                       mov cx,6
  9096 0000B1B4 BFF80B                  	   mov di,3064
  9097 0000B1B7 268905                  F_G_13_LEVEL_3:  mov word[es:di],ax
  9098 0000B1BA 81C7A000                        add di,160
  9099 0000B1BE E2F7                            loop F_G_13_LEVEL_3
  9100                                  
  9101 0000B1C0 B90300                       mov cx,3
  9102 0000B1C3 BFDA0D                  	   mov di,3546
  9103 0000B1C6 268905                  F_G_14_LEVEL_3:  mov word[es:di],ax
  9104 0000B1C9 81C7A000                        add di,160
  9105 0000B1CD E2F7                            loop F_G_14_LEVEL_3
  9106                                  
  9107 0000B1CF B90300                       mov cx,3
  9108 0000B1D2 BFDC0D                  	   mov di,3548
  9109 0000B1D5 268905                  F_G_15_LEVEL_3:  mov word[es:di],ax
  9110 0000B1D8 81C7A000                        add di,160
  9111 0000B1DC E2F7                            loop F_G_15_LEVEL_3
  9112                                  
  9113 0000B1DE B90300                       mov cx,3
  9114 0000B1E1 BFDE0D                  	   mov di,3550
  9115 0000B1E4 268905                  F_G_16_LEVEL_3:  mov word[es:di],ax
  9116 0000B1E7 81C7A000                        add di,160
  9117 0000B1EB E2F7                            loop F_G_16_LEVEL_3
  9118                                  
  9119 0000B1ED B90500                       mov cx,5
  9120 0000B1F0 BFA00C                  	   mov di,3232
  9121 0000B1F3 268905                  F_G_17_LEVEL_3:  mov word[es:di],ax
  9122 0000B1F6 81C7A000                        add di,160
  9123 0000B1FA E2F7                            loop F_G_17_LEVEL_3
  9124                                  
  9125 0000B1FC B90500                       mov cx,5
  9126 0000B1FF BFA20C                  	   mov di,3234
  9127 0000B202 268905                  F_G_18_LEVEL_3:  mov word[es:di],ax
  9128 0000B205 81C7A000                        add di,160
  9129 0000B209 E2F7                            loop F_G_18_LEVEL_3
  9130                                  
  9131 0000B20B B90400                       mov cx,4
  9132 0000B20E BF440D                  	   mov di,3396
  9133 0000B211 268905                  F_G_19_LEVEL_3:  mov word[es:di],ax
  9134 0000B214 81C7A000                        add di,160
  9135 0000B218 E2F7                            loop F_G_19_LEVEL_3		
  9136                                  		
  9137 0000B21A B90400                       mov cx,4
  9138 0000B21D BF460D                  	   mov di,3398
  9139 0000B220 268905                  F_G_20_LEVEL_3:  mov word[es:di],ax
  9140 0000B223 81C7A000                        add di,160
  9141 0000B227 E2F7                            loop F_G_20_LEVEL_3				
  9142                                  		
  9143 0000B229 B90400                  	     mov cx,4
  9144 0000B22C BF480D                  	   mov di,3400
  9145 0000B22F 268905                  F_G_21_LEVEL_3:  mov word[es:di],ax
  9146 0000B232 81C7A000                        add di,160
  9147 0000B236 E2F7                            loop F_G_21_LEVEL_3		
  9148                                  		
  9149 0000B238 B90700                       mov cx,7
  9150 0000B23B BF6A0B                  	   mov di,2922
  9151 0000B23E 268905                  F_G_22_LEVEL_3:  mov word[es:di],ax
  9152 0000B241 81C7A000                        add di,160
  9153 0000B245 E2F7                            loop F_G_22_LEVEL_3				
  9154                                  		
  9155 0000B247 B90700                       mov cx,7
  9156 0000B24A BF6C0B                  	   mov di,2924
  9157 0000B24D 268905                  F_G_23_LEVEL_3:  mov word[es:di],ax
  9158 0000B250 81C7A000                        add di,160
  9159 0000B254 E2F7                            loop F_G_23_LEVEL_3	
  9160                                  
  9161 0000B256 B90700                       mov cx,7
  9162 0000B259 BF6E0B                  	   mov di,2926
  9163 0000B25C 268905                  F_G_24_LEVEL_3:  mov word[es:di],ax
  9164 0000B25F 81C7A000                        add di,160
  9165 0000B263 E2F7                            loop F_G_24_LEVEL_3			
  9166                                  		
  9167 0000B265 B90500                       mov cx,5
  9168 0000B268 BFB00C                  	   mov di,3248
  9169 0000B26B 268905                  F_G_25_LEVEL_3:  mov word[es:di],ax
  9170 0000B26E 81C7A000                        add di,160
  9171 0000B272 E2F7                            loop F_G_25_LEVEL_3			
  9172                                  		
  9173 0000B274 B90500                       mov cx,5
  9174 0000B277 BFB20C                  	   mov di,3250
  9175 0000B27A 268905                  F_G_26_LEVEL_3:  mov word[es:di],ax
  9176 0000B27D 81C7A000                        add di,160
  9177 0000B281 E2F7                            loop F_G_26_LEVEL_3			
  9178                                  		
  9179 0000B283 B90300                       mov cx,3
  9180 0000B286 BFF40D                  	   mov di,3572
  9181 0000B289 268905                  F_G_27_LEVEL_3:  mov word[es:di],ax
  9182 0000B28C 81C7A000                        add di,160
  9183 0000B290 E2F7                            loop F_G_27_LEVEL_3			
  9184                                  		
  9185 0000B292 B90300                       mov cx,3
  9186 0000B295 BFF60D                  	   mov di,3574
  9187 0000B298 268905                  F_G_28_LEVEL_3:  mov word[es:di],ax
  9188 0000B29B 81C7A000                        add di,160
  9189 0000B29F E2F7                            loop F_G_28_LEVEL_3					
  9190                                  		
  9191 0000B2A1 B90400                       mov cx,4
  9192 0000B2A4 BF580D                  	   mov di,3416
  9193 0000B2A7 268905                  F_G_29_LEVEL_3:  mov word[es:di],ax
  9194 0000B2AA 81C7A000                        add di,160
  9195 0000B2AE E2F7                            loop F_G_29_LEVEL_3					
  9196                                  		
  9197 0000B2B0 B90400                       mov cx,4
  9198 0000B2B3 BF5A0D                  	   mov di,3418
  9199 0000B2B6 268905                  F_G_30_LEVEL_3:  mov word[es:di],ax
  9200 0000B2B9 81C7A000                        add di,160
  9201 0000B2BD E2F7                            loop F_G_30_LEVEL_3		
  9202                                  		
  9203 0000B2BF B90300                       mov cx,3
  9204 0000B2C2 BFFC0D                  	   mov di,3580
  9205 0000B2C5 268905                  F_G_31_LEVEL_3:  mov word[es:di],ax
  9206 0000B2C8 81C7A000                        add di,160
  9207 0000B2CC E2F7                            loop F_G_31_LEVEL_3				
  9208                                  		
  9209 0000B2CE B90300                       mov cx,3
  9210 0000B2D1 BFFE0D                  	   mov di,3582
  9211 0000B2D4 268905                  F_G_32_LEVEL_3:  mov word[es:di],ax
  9212 0000B2D7 81C7A000                        add di,160
  9213 0000B2DB E2F7                            loop F_G_32_LEVEL_3				
  9214                                  		
  9215                                  		
  9216 0000B2DD B90500                       mov cx,5
  9217 0000B2E0 BFC00C                  	   mov di,3264
  9218 0000B2E3 268905                  F_G_33_LEVEL_3:  mov word[es:di],ax
  9219 0000B2E6 81C7A000                        add di,160
  9220 0000B2EA E2F7                            loop F_G_33_LEVEL_3						
  9221                                  		
  9222 0000B2EC B90500                       mov cx,5
  9223 0000B2EF BFC20C                  	   mov di,3266
  9224 0000B2F2 268905                  F_G_34_LEVEL_3:  mov word[es:di],ax
  9225 0000B2F5 81C7A000                        add di,160
  9226 0000B2F9 E2F7                            loop F_G_34_LEVEL_3			
  9227                                  		
  9228 0000B2FB B90500                       mov cx,5
  9229 0000B2FE BFC40C                  	   mov di,3268
  9230 0000B301 268905                  F_G_35_LEVEL_3:  mov word[es:di],ax
  9231 0000B304 81C7A000                        add di,160
  9232 0000B308 E2F7                            loop F_G_35_LEVEL_3			
  9233                                  		
  9234 0000B30A B90300                       mov cx,3
  9235 0000B30D BF060E                  	   mov di,3590
  9236 0000B310 268905                  F_G_36_LEVEL_3:  mov word[es:di],ax
  9237 0000B313 81C7A000                        add di,160
  9238 0000B317 E2F7                            loop F_G_36_LEVEL_3			
  9239                                  		
  9240 0000B319 B90400                       mov cx,4
  9241 0000B31C BF680D                  	   mov di,3432
  9242 0000B31F 268905                  F_G_37_LEVEL_3:  mov word[es:di],ax
  9243 0000B322 81C7A000                        add di,160
  9244 0000B326 E2F7                            loop F_G_37_LEVEL_3		
  9245                                  		
  9246                                  		
  9247 0000B328 B90400                       mov cx,4
  9248 0000B32B BF6A0D                  	   mov di,3434
  9249 0000B32E 268905                  F_G_38_LEVEL_3:  mov word[es:di],ax
  9250 0000B331 81C7A000                        add di,160
  9251 0000B335 E2F7                            loop F_G_38_LEVEL_3		
  9252                                  
  9253                                  		
  9254 0000B337 B90300                       mov cx,3
  9255 0000B33A BF0C0E                  	   mov di,3596
  9256 0000B33D 268905                  F_G_39_LEVEL_3:  mov word[es:di],ax
  9257 0000B340 81C7A000                        add di,160
  9258 0000B344 E2F7                            loop F_G_39_LEVEL_3		
  9259                                  
  9260                                  		
  9261 0000B346 B90200                       mov cx,2
  9262 0000B349 BFAE0E                  	   mov di,3758
  9263 0000B34C 268905                  F_G_40_LEVEL_3:  mov word[es:di],ax
  9264 0000B34F 81C7A000                        add di,160
  9265 0000B353 E2F7                            loop F_G_40_LEVEL_3		
  9266                                  	
  9267 0000B355 B90200                       mov cx,2
  9268 0000B358 BFB00E                  	   mov di,3760
  9269 0000B35B 268905                  F_G_41_LEVEL_3:  mov word[es:di],ax
  9270 0000B35E 81C7A000                        add di,160
  9271 0000B362 E2F7                            loop F_G_41_LEVEL_3
  9272                                  
  9273 0000B364 B90400                       mov cx,4
  9274 0000B367 BF720D                  	   mov di,3442
  9275 0000B36A 268905                  F_G_42_LEVEL_3:  mov word[es:di],ax
  9276 0000B36D 81C7A000                        add di,160
  9277 0000B371 E2F7                            loop F_G_42_LEVEL_3
  9278                                  
  9279 0000B373 B90400                       mov cx,4
  9280 0000B376 BF740D                  	   mov di,3444
  9281 0000B379 268905                  F_G_43_LEVEL_3:  mov word[es:di],ax
  9282 0000B37C 81C7A000                        add di,160
  9283 0000B380 E2F7                            loop F_G_43_LEVEL_3
  9284                                  
  9285 0000B382 B90400                       mov cx,4
  9286 0000B385 BF760D                  	   mov di,3446
  9287 0000B388 268905                  F_G_44_LEVEL_3:  mov word[es:di],ax
  9288 0000B38B 81C7A000                        add di,160
  9289 0000B38F E2F7                            loop F_G_44_LEVEL_3
  9290                                  
  9291 0000B391 B90400                       mov cx,4
  9292 0000B394 BF780D                  	   mov di,3448
  9293 0000B397 268905                  F_G_45_LEVEL_3:  mov word[es:di],ax
  9294 0000B39A 81C7A000                        add di,160
  9295 0000B39E E2F7                            loop F_G_45_LEVEL_3
  9296                                  
  9297 0000B3A0 B90200                       mov cx,2
  9298 0000B3A3 BFBA0E                  	   mov di,3770
  9299 0000B3A6 268905                  F_G_46_LEVEL_3:  mov word[es:di],ax
  9300 0000B3A9 81C7A000                        add di,160
  9301 0000B3AD E2F7                            loop F_G_46_LEVEL_3
  9302                                  
  9303 0000B3AF B90200                       mov cx,2
  9304 0000B3B2 BFBC0E                  	   mov di,3772
  9305 0000B3B5 268905                  F_G_47_LEVEL_3:  mov word[es:di],ax
  9306 0000B3B8 81C7A000                        add di,160
  9307 0000B3BC E2F7                            loop F_G_47_LEVEL_3
  9308                                  
  9309                                  
  9310 0000B3BE B90500                       mov cx,5
  9311 0000B3C1 BFDE0C                  	   mov di,3294
  9312 0000B3C4 268905                  F_G_48_LEVEL_3:  mov word[es:di],ax
  9313 0000B3C7 81C7A000                        add di,160
  9314 0000B3CB E2F7                            loop F_G_48_LEVEL_3
  9315                                  
  9316 0000B3CD B90600                       mov cx,6
  9317 0000B3D0 BFE00C                  	   mov di,3296
  9318 0000B3D3 268905                  F_G_49_LEVEL_3:  mov word[es:di],ax
  9319 0000B3D6 81C7A000                        add di,160
  9320 0000B3DA E2F7                            loop F_G_49_LEVEL_3
  9321                                  
  9322 0000B3DC B90700                       mov cx,7
  9323 0000B3DF BFA20B                  	   mov di,2978
  9324 0000B3E2 268905                  F_G_50_LEVEL_3:  mov word[es:di],ax
  9325 0000B3E5 81C7A000                        add di,160
  9326 0000B3E9 E2F7                            loop F_G_50_LEVEL_3
  9327                                  
  9328 0000B3EB B90700                       mov cx,7
  9329 0000B3EE BFA40B                  	   mov di,2980
  9330 0000B3F1 268905                  F_G_51_LEVEL_3:  mov word[es:di],ax
  9331 0000B3F4 81C7A000                        add di,160
  9332 0000B3F8 E2F7                            loop F_G_51_LEVEL_3
  9333                                  
  9334 0000B3FA B90700                       mov cx,7
  9335 0000B3FD BFA60B                  	   mov di,2982
  9336 0000B400 268905                  F_G_52_LEVEL_3:  mov word[es:di],ax
  9337 0000B403 81C7A000                        add di,160
  9338 0000B407 E2F7                            loop F_G_52_LEVEL_3
  9339                                  
  9340 0000B409 B90700                       mov cx,7
  9341 0000B40C BFA80B                  	   mov di,2984
  9342 0000B40F 268905                  F_G_53_LEVEL_3:  mov word[es:di],ax
  9343 0000B412 81C7A000                        add di,160
  9344 0000B416 E2F7                            loop F_G_53_LEVEL_3
  9345                                  
  9346 0000B418 B90300                       mov cx,3
  9347 0000B41B BF2A0E                  	   mov di,3626
  9348 0000B41E 268905                  F_G_54_LEVEL_3:  mov word[es:di],ax
  9349 0000B421 81C7A000                        add di,160
  9350 0000B425 E2F7                            loop F_G_54_LEVEL_3
  9351                                  
  9352 0000B427 B90300                       mov cx,3
  9353 0000B42A BF2C0E                  	   mov di,3628
  9354 0000B42D 268905                  F_G_55_LEVEL_3:  mov word[es:di],ax
  9355 0000B430 81C7A000                        add di,160
  9356 0000B434 E2F7                            loop F_G_55_LEVEL_3
  9357                                  
  9358 0000B436 B90300                       mov cx,3
  9359 0000B439 BF2E0E                  	   mov di,3630
  9360 0000B43C 268905                  F_G_56_LEVEL_3:  mov word[es:di],ax
  9361 0000B43F 81C7A000                        add di,160
  9362 0000B443 E2F7                            loop F_G_56_LEVEL_3
  9363                                  
  9364 0000B445 B90500                       mov cx,5
  9365 0000B448 BFF00C                  	   mov di,3312
  9366 0000B44B 268905                  F_G_57_LEVEL_3:  mov word[es:di],ax
  9367 0000B44E 81C7A000                        add di,160
  9368 0000B452 E2F7                            loop F_G_57_LEVEL_3
  9369                                  
  9370 0000B454 B90500                       mov cx,5
  9371 0000B457 BFF20C                  	   mov di,3314
  9372 0000B45A 268905                  F_G_58_LEVEL_3:  mov word[es:di],ax
  9373 0000B45D 81C7A000                        add di,160
  9374 0000B461 E2F7                            loop F_G_58_LEVEL_3
  9375                                  
  9376 0000B463 B90500                       mov cx,5
  9377 0000B466 BFF40C                  	   mov di,3316
  9378 0000B469 268905                  F_G_59_LEVEL_3:  mov word[es:di],ax
  9379 0000B46C 81C7A000                        add di,160
  9380 0000B470 E2F7                            loop F_G_59_LEVEL_3
  9381                                  
  9382 0000B472 B90300                       mov cx,3
  9383 0000B475 BF360E                  	   mov di,3638
  9384 0000B478 268905                  F_G_60_LEVEL_3:  mov word[es:di],ax
  9385 0000B47B 81C7A000                        add di,160
  9386 0000B47F E2F7                            loop F_G_60_LEVEL_3
  9387                                  
  9388 0000B481 B90600                       mov cx,6
  9389 0000B484 BF580C                  	   mov di,3160
  9390 0000B487 268905                  F_G_61_LEVEL_3:  mov word[es:di],ax
  9391 0000B48A 81C7A000                        add di,160
  9392 0000B48E E2F7                            loop F_G_61_LEVEL_3
  9393                                  
  9394 0000B490 B90600                       mov cx,6
  9395 0000B493 BF5A0C                  	   mov di,3162
  9396 0000B496 268905                  F_G_62_LEVEL_3:  mov word[es:di],ax
  9397 0000B499 81C7A000                        add di,160
  9398 0000B49D E2F7                            loop F_G_62_LEVEL_3
  9399                                  
  9400 0000B49F B90600                       mov cx,6
  9401 0000B4A2 BF5C0C                  	   mov di,3164
  9402 0000B4A5 268905                  F_G_63_LEVEL_3:  mov word[es:di],ax
  9403 0000B4A8 81C7A000                        add di,160
  9404 0000B4AC E2F7                            loop F_G_63_LEVEL_3
  9405                                  
  9406 0000B4AE B90300                       mov cx,3
  9407 0000B4B1 BF3E0E                  	   mov di,3646
  9408 0000B4B4 268905                  F_G_64_LEVEL_3:  mov word[es:di],ax
  9409 0000B4B7 81C7A000                        add di,160
  9410 0000B4BB E2F7                            loop F_G_64_LEVEL_3
  9411                                  
  9412 0000B4BD B90300                       mov cx,3
  9413 0000B4C0 BFE00E                  	   mov di,3808
  9414 0000B4C3 268905                  F_G_65_LEVEL_3:  mov word[es:di],ax
  9415 0000B4C6 81C7A000                        add di,160
  9416 0000B4CA E2F7                            loop F_G_65_LEVEL_3
  9417                                  
  9418 0000B4CC B90400                       mov cx,4
  9419 0000B4CF BFA20D                  	   mov di,3490
  9420 0000B4D2 268905                  F_G_66_LEVEL_3:  mov word[es:di],ax
  9421 0000B4D5 81C7A000                        add di,160
  9422 0000B4D9 E2F7                            loop F_G_66_LEVEL_3
  9423                                  
  9424 0000B4DB B90400                       mov cx,4
  9425 0000B4DE BFA40D                  	   mov di,3492
  9426 0000B4E1 268905                  F_G_67_LEVEL_3:  mov word[es:di],ax
  9427 0000B4E4 81C7A000                        add di,160
  9428 0000B4E8 E2F7                            loop F_G_67_LEVEL_3
  9429                                  
  9430 0000B4EA B90300                       mov cx,3
  9431 0000B4ED BF460E                  	   mov di,3654
  9432 0000B4F0 268905                  F_G_68_LEVEL_3:  mov word[es:di],ax
  9433 0000B4F3 81C7A000                        add di,160
  9434 0000B4F7 E2F7                            loop F_G_68_LEVEL_3
  9435                                  
  9436 0000B4F9 B90300                       mov cx,3
  9437 0000B4FC BF480E                  	   mov di,3656
  9438 0000B4FF 268905                  F_G_69_LEVEL_3:  mov word[es:di],ax
  9439 0000B502 81C7A000                        add di,160
  9440 0000B506 E2F7                            loop F_G_69_LEVEL_3
  9441                                  
  9442 0000B508 B90600                       mov cx,6
  9443 0000B50B BF6A0C                  	   mov di,3178
  9444 0000B50E 268905                  F_G_70_LEVEL_3:  mov word[es:di],ax
  9445 0000B511 81C7A000                        add di,160
  9446 0000B515 E2F7                            loop F_G_70_LEVEL_3
  9447                                  
  9448 0000B517 B90600                       mov cx,6
  9449 0000B51A BF6C0C                  	   mov di,3180
  9450 0000B51D 268905                  F_G_71_LEVEL_3:  mov word[es:di],ax
  9451 0000B520 81C7A000                        add di,160
  9452 0000B524 E2F7                            loop F_G_71_LEVEL_3
  9453                                  
  9454 0000B526 B90600                       mov cx,6
  9455 0000B529 BF6E0C                  	   mov di,3182
  9456 0000B52C 268905                  F_G_72_LEVEL_3:  mov word[es:di],ax
  9457 0000B52F 81C7A000                        add di,160
  9458 0000B533 E2F7                            loop F_G_72_LEVEL_3
  9459                                  
  9460 0000B535 B90200                       mov cx,2
  9461 0000B538 BFF00E                  	   mov di,3824
  9462 0000B53B 268905                  F_G_73_LEVEL_3:  mov word[es:di],ax
  9463 0000B53E 81C7A000                        add di,160
  9464 0000B542 E2F7                            loop F_G_73_LEVEL_3
  9465                                  
  9466 0000B544 B90200                       mov cx,2
  9467 0000B547 BFF20E                  	   mov di,3826
  9468 0000B54A 268905                  F_G_74_LEVEL_3:  mov word[es:di],ax
  9469 0000B54D 81C7A000                        add di,160
  9470 0000B551 E2F7                            loop F_G_74_LEVEL_3
  9471                                  
  9472 0000B553 B90300                       mov cx,3
  9473 0000B556 BF520E                  	   mov di,3666
  9474 0000B559 268905                  F_G_75_LEVEL_3:  mov word[es:di],ax
  9475 0000B55C 81C7A000                        add di,160
  9476 0000B560 E2F7                            loop F_G_75_LEVEL_3
  9477                                  		
  9478 0000B562 B90300                       mov cx,3
  9479 0000B565 BF540E                  	   mov di,3668
  9480 0000B568 268905                  F_G_76_LEVEL_3:  mov word[es:di],ax
  9481 0000B56B 81C7A000                        add di,160
  9482 0000B56F E2F7                            loop F_G_76_LEVEL_3		
  9483                                  		
  9484 0000B571 B90300                       mov cx,3
  9485 0000B574 BFF60E                  	   mov di,3830
  9486 0000B577 268905                  F_G_77_LEVEL_3:  mov word[es:di],ax
  9487 0000B57A 81C7A000                        add di,160
  9488 0000B57E E2F7                            loop F_G_77_LEVEL_3		
  9489                                  		
  9490 0000B580 B90400                       mov cx,4
  9491 0000B583 BFB80D                  	   mov di,3512
  9492 0000B586 268905                  F_G_78_LEVEL_3:  mov word[es:di],ax
  9493 0000B589 81C7A000                        add di,160
  9494 0000B58D E2F7                            loop F_G_78_LEVEL_3		
  9495                                  		
  9496 0000B58F B90600                       mov cx,6
  9497 0000B592 BF7A0C                  	   mov di,3194
  9498 0000B595 268905                  F_G_79_LEVEL_3:  mov word[es:di],ax
  9499 0000B598 81C7A000                        add di,160
  9500 0000B59C E2F7                            loop F_G_79_LEVEL_3			
  9501                                  		
  9502 0000B59E B90600                       mov cx,6
  9503 0000B5A1 BF7C0C                  	   mov di,3196
  9504 0000B5A4 268905                  F_G_80_LEVEL_3:  mov word[es:di],ax
  9505 0000B5A7 81C7A000                        add di,160
  9506 0000B5AB E2F7                            loop F_G_80_LEVEL_3	
  9507                                  		
  9508 0000B5AD B90600                       mov cx,6
  9509 0000B5B0 BF7E0C                  	   mov di,3198
  9510 0000B5B3 268905                  F_G_81_LEVEL_3:  mov word[es:di],ax
  9511 0000B5B6 81C7A000                        add di,160
  9512 0000B5BA E2F7                            loop F_G_81_LEVEL_3
  9513                                  		
  9514 0000B5BC 61                             popa 
  9515 0000B5BD C3                      	   ret
  9516                                  	   
  9517                                  
  9518                                  	   
  9519 0000B5BE 60                      MOON: pusha 
  9520 0000B5BF B800B8                  mov ax,0xb800
  9521 0000B5C2 8EC0                    		 mov es,ax
  9522                                  
  9523 0000B5C4 B409                           mov ah,0x09
  9524 0000B5C6 B0DB                    		mov al,0xDB
  9525                                  		
  9526 0000B5C8 BF1C02                  		mov di,540
  9527                                  		
  9528                                  		
  9529 0000B5CB 26894512                		 mov word[es:di+18],ax
  9530 0000B5CF 26894514                		 mov word[es:di+20],ax
  9531 0000B5D3 26894516                         mov word[es:di+22],ax
  9532 0000B5D7 26894518                		mov word[es:di+24],ax
  9533 0000B5DB 2689451A                       mov word[es:di+26],ax
  9534 0000B5DF 2689451C                	   mov word[es:di+28],ax
  9535                                  	  
  9536                                  	   
  9537 0000B5E3 81C7A000                	   add di,160
  9538                                  	   
  9539                                  	  
  9540 0000B5E7 2689451A                       mov word[es:di+26],ax
  9541 0000B5EB 2689451C                	   mov word[es:di+28],ax
  9542 0000B5EF 2689451E                	   mov word[es:di+30],ax
  9543 0000B5F3 26894520                	    mov word[es:di+32],ax
  9544                                  	  
  9545                                  	   
  9546 0000B5F7 81C7A000                	      add di,160
  9547                                  	   
  9548                                  	 
  9549 0000B5FB 2689451C                	   mov word[es:di+28],ax
  9550 0000B5FF 2689451E                	   mov word[es:di+30],ax
  9551 0000B603 26894520                	     mov word[es:di+32],ax
  9552 0000B607 26894522                	   mov word[es:di+34],ax
  9553 0000B60B 26894524                	   mov word[es:di+36],ax
  9554                                  	   
  9555                                  	   
  9556 0000B60F 81C7A000                	      add di,160
  9557                                  	   
  9558                                  	
  9559 0000B613 2689451C                	   mov word[es:di+28],ax
  9560 0000B617 2689451E                	   mov word[es:di+30],ax
  9561 0000B61B 26894520                	     mov word[es:di+32],ax
  9562 0000B61F 26894522                	   mov word[es:di+34],ax
  9563 0000B623 26894524                	   mov word[es:di+36],ax
  9564 0000B627 26894526                	   mov word[es:di+38],ax
  9565 0000B62B 26894528                	   mov word[es:di+40],ax
  9566                                  	   
  9567 0000B62F 81C7A000                	      add di,160
  9568                                  	   
  9569                                  	   
  9570 0000B633 2689451E                	   mov word[es:di+30],ax
  9571 0000B637 26894520                	     mov word[es:di+32],ax
  9572 0000B63B 26894522                	   mov word[es:di+34],ax
  9573 0000B63F 26894524                	   mov word[es:di+36],ax
  9574 0000B643 26894526                	   mov word[es:di+38],ax
  9575 0000B647 26894528                	   mov word[es:di+40],ax
  9576 0000B64B 2689452A                	    mov word[es:di+42],ax
  9577 0000B64F 2689452C                		 mov word[es:di+44],ax
  9578                                  	   
  9579 0000B653 81C7A000                	      add di,160
  9580                                  	   
  9581                                  	  
  9582 0000B657 2689451E                	   mov word[es:di+30],ax
  9583 0000B65B 26894520                	     mov word[es:di+32],ax
  9584 0000B65F 26894522                	   mov word[es:di+34],ax
  9585 0000B663 26894524                	   mov word[es:di+36],ax
  9586 0000B667 26894526                	   mov word[es:di+38],ax
  9587 0000B66B 26894528                	   mov word[es:di+40],ax
  9588 0000B66F 2689452A                	    mov word[es:di+42],ax
  9589 0000B673 2689452C                		 mov word[es:di+44],ax
  9590                                  		 
  9591 0000B677 81C7A000                	      add di,160
  9592                                  	   
  9593                                  	  
  9594 0000B67B 2689451E                	   mov word[es:di+30],ax
  9595 0000B67F 26894520                	     mov word[es:di+32],ax
  9596 0000B683 26894522                	   mov word[es:di+34],ax
  9597 0000B687 26894524                	   mov word[es:di+36],ax
  9598 0000B68B 26894526                	   mov word[es:di+38],ax
  9599 0000B68F 26894528                	   mov word[es:di+40],ax
  9600 0000B693 2689452A                	    mov word[es:di+42],ax
  9601 0000B697 2689452C                		 mov word[es:di+44],ax
  9602                                  	   
  9603 0000B69B 81C7A000                	      add di,160
  9604 0000B69F 268945F6                	   mov word[es:di-8-2],ax
  9605 0000B6A3 268945F8                	   mov word[es:di-8],ax
  9606                                  		
  9607 0000B6A7 2689451C                	   mov word[es:di+28],ax
  9608 0000B6AB 2689451E                	   mov word[es:di+30],ax
  9609 0000B6AF 26894520                	     mov word[es:di+32],ax
  9610 0000B6B3 26894522                	   mov word[es:di+34],ax
  9611 0000B6B7 26894524                	   mov word[es:di+36],ax
  9612 0000B6BB 26894526                	   mov word[es:di+38],ax
  9613 0000B6BF 26894528                	   mov word[es:di+40],ax
  9614 0000B6C3 2689452A                	    mov word[es:di+42],ax
  9615 0000B6C7 2689452C                		 mov word[es:di+44],ax
  9616                                  		 
  9617 0000B6CB 81C7A000                	      add di,160
  9618 0000B6CF 268945F6                	   mov word[es:di-6-4],ax
  9619 0000B6D3 268945F8                	    mov word[es:di-6-2],ax
  9620 0000B6D7 268945FA                	    mov word[es:di-6],ax
  9621 0000B6DB 268945FC                		 mov word[es:di+2-6],ax
  9622                                  		
  9623 0000B6DF 2689451A                        mov word[es:di+26],ax
  9624 0000B6E3 2689451C                	   mov word[es:di+28],ax
  9625 0000B6E7 2689451E                	   mov word[es:di+30],ax
  9626 0000B6EB 26894520                	     mov word[es:di+32],ax
  9627 0000B6EF 26894522                	   mov word[es:di+34],ax
  9628 0000B6F3 26894524                	   mov word[es:di+36],ax
  9629 0000B6F7 26894526                	   mov word[es:di+38],ax
  9630 0000B6FB 26894528                	   mov word[es:di+40],ax
  9631 0000B6FF 2689452A                	    mov word[es:di+42],ax
  9632 0000B703 2689452C                		 mov word[es:di+44],ax
  9633                                  	   
  9634 0000B707 81C7A000                	      add di,160
  9635                                  		   
  9636 0000B70B 268945FA                	    mov word[es:di-4-2],ax
  9637 0000B70F 268945FC                	    mov word[es:di-4],ax
  9638 0000B713 268945FE                		 mov word[es:di+2-4],ax
  9639 0000B717 268905                  		 mov word[es:di+4-4],ax
  9640 0000B71A 26894502                		 mov word[es:di+2],ax
  9641                                  		
  9642 0000B71E 26894514                		 mov word[es:di+20],ax
  9643 0000B722 26894516                         mov word[es:di+22],ax
  9644 0000B726 26894518                		mov word[es:di+24],ax
  9645 0000B72A 2689451A                       mov word[es:di+26],ax
  9646 0000B72E 2689451C                	   mov word[es:di+28],ax
  9647 0000B732 2689451E                	   mov word[es:di+30],ax
  9648 0000B736 26894520                	     mov word[es:di+32],ax
  9649 0000B73A 26894522                	   mov word[es:di+34],ax
  9650 0000B73E 26894524                	   mov word[es:di+36],ax
  9651 0000B742 26894526                	   mov word[es:di+38],ax
  9652 0000B746 26894528                	   mov word[es:di+40],ax
  9653                                  	   
  9654 0000B74A 81C7A000                	      add di,160
  9655 0000B74E 268945FA                	   mov word[es:di-4-2],ax
  9656 0000B752 268945FC                	   mov word[es:di-4],ax
  9657 0000B756 268945FE                		mov word[es:di+2-4],ax
  9658 0000B75A 268905                  		 mov word[es:di+4-4],ax
  9659 0000B75D 26894502                		 mov word[es:di+6-4],ax
  9660 0000B761 26894506                		mov word[es:di+6],ax
  9661 0000B765 26894504                		 mov word[es:di+4],ax
  9662 0000B769 26894508                		 mov word[es:di+8],ax
  9663 0000B76D 2689450A                		 mov word[es:di+10],ax
  9664 0000B771 2689450C                		 mov word[es:di+12],ax
  9665 0000B775 2689450E                		 mov word[es:di+14],ax
  9666 0000B779 26894510                		 mov word[es:di+16],ax
  9667 0000B77D 26894512                		 mov word[es:di+18],ax
  9668 0000B781 26894514                		 mov word[es:di+20],ax
  9669 0000B785 26894516                         mov word[es:di+22],ax
  9670 0000B789 26894518                		mov word[es:di+24],ax
  9671 0000B78D 2689451A                       mov word[es:di+26],ax
  9672 0000B791 2689451C                	   mov word[es:di+28],ax
  9673 0000B795 2689451E                	   mov word[es:di+30],ax
  9674 0000B799 26894520                	     mov word[es:di+32],ax
  9675 0000B79D 26894522                	   mov word[es:di+34],ax
  9676 0000B7A1 26894524                	   mov word[es:di+36],ax
  9677 0000B7A5 26894526                	   mov word[es:di+38],ax
  9678 0000B7A9 26894528                	    mov word[es:di+40],ax
  9679                                  	   
  9680 0000B7AD 81C7A000                	      add di,160
  9681 0000B7B1 268945FC                	    mov word[es:di-4],ax
  9682 0000B7B5 268945FE                	    mov word[es:di-2],ax
  9683 0000B7B9 268905                  	   mov word[es:di],ax
  9684 0000B7BC 26894502                		mov word[es:di+2],ax
  9685 0000B7C0 26894504                		mov word[es:di+4],ax
  9686 0000B7C4 26894506                		mov word[es:di+6],ax
  9687 0000B7C8 26894508                		mov word[es:di+8],ax
  9688 0000B7CC 2689450A                		mov word[es:di+10],ax
  9689 0000B7D0 2689450C                		mov word[es:di+12],ax
  9690 0000B7D4 2689450E                		mov word[es:di+14],ax
  9691 0000B7D8 26894510                		mov word[es:di+16],ax
  9692 0000B7DC 26894512                		mov word[es:di+18],ax
  9693 0000B7E0 26894514                		mov word[es:di+20],ax
  9694 0000B7E4 26894516                        mov word[es:di+22],ax
  9695 0000B7E8 26894518                		mov word[es:di+24],ax
  9696 0000B7EC 2689451A                       mov word[es:di+26],ax
  9697 0000B7F0 2689451C                	   mov word[es:di+28],ax
  9698 0000B7F4 2689451E                	   mov word[es:di+30],ax
  9699 0000B7F8 26894520                	     mov word[es:di+32],ax
  9700 0000B7FC 26894522                	   mov word[es:di+34],ax
  9701 0000B800 26894524                	   mov word[es:di+36],ax
  9702                                  	    
  9703                                  	   
  9704 0000B804 81C7A000                	   	      add di,160
  9705                                  	   
  9706 0000B808 268905                  	    mov word[es:di],ax
  9707 0000B80B 26894502                		 mov word[es:di+2],ax
  9708 0000B80F 26894504                		 mov word[es:di+4],ax
  9709 0000B813 26894506                		mov word[es:di+6],ax
  9710 0000B817 26894508                		mov word[es:di+8],ax
  9711 0000B81B 2689450A                		mov word[es:di+10],ax
  9712 0000B81F 2689450C                		mov word[es:di+12],ax
  9713 0000B823 2689450E                		mov word[es:di+14],ax
  9714 0000B827 26894510                		mov word[es:di+16],ax
  9715 0000B82B 26894512                		mov word[es:di+18],ax
  9716 0000B82F 26894514                		mov word[es:di+20],ax
  9717 0000B833 26894516                        mov word[es:di+22],ax
  9718 0000B837 26894518                		mov word[es:di+24],ax
  9719 0000B83B 2689451A                       mov word[es:di+26],ax
  9720 0000B83F 2689451C                	   mov word[es:di+28],ax
  9721 0000B843 2689451E                	   mov word[es:di+30],ax
  9722 0000B847 26894520                	     mov word[es:di+32],ax
  9723                                  
  9724                                  	   
  9725 0000B84B 81C7A000                	   	      add di,160
  9726                                  	   
  9727                                  
  9728 0000B84F 26894506                		 mov word[es:di+6],ax
  9729 0000B853 26894508                		mov word[es:di+8],ax
  9730 0000B857 2689450A                		mov word[es:di+10],ax
  9731 0000B85B 2689450C                		mov word[es:di+12],ax
  9732 0000B85F 2689450E                		mov word[es:di+14],ax
  9733 0000B863 26894510                		mov word[es:di+16],ax
  9734 0000B867 26894512                		mov word[es:di+18],ax
  9735 0000B86B 26894514                		mov word[es:di+20],ax
  9736 0000B86F 26894516                        mov word[es:di+22],ax
  9737 0000B873 26894518                		mov word[es:di+24],ax
  9738 0000B877 2689451A                       mov word[es:di+26],ax
  9739                                  
  9740                                  	   
  9741 0000B87B 61                      popa
  9742 0000B87C C3                      ret			  
  9743                                  
  9744                                  
  9745 0000B87D 60                      CLOUD1_LEVEL_3:pusha 
  9746 0000B87E B800B8                  mov ax,0xb800
  9747 0000B881 8EC0                    		 mov es,ax
  9748 0000B883 B440                    mov ah,0x40
  9749 0000B885 B407                           mov ah,0x07
  9750 0000B887 B0DB                    		mov al,0xDB
  9751                                  
  9752 0000B889 8B3E[CCB0]              		mov di,[CLOUD_1_LEVEL_3_POS]
  9753                                  
  9754                                  
  9755 0000B88D 268985EC01              	    mov word[es:di+492],ax
  9756 0000B892 268985EE01              		mov word[es:di+494],ax
  9757 0000B897 268985F001              		mov word[es:di+496],ax
  9758 0000B89C 268985F601              		mov word[es:di+502],ax
  9759 0000B8A1 268985F201              		mov word[es:di+498],ax
  9760 0000B8A6 268985F401              		mov word[es:di+500],ax
  9761                                  		
  9762 0000B8AB 2689858A02              		mov word[es:di+650],ax
  9763 0000B8B0 2689859402              		mov word[es:di+660],ax
  9764 0000B8B5 2689858C02              		mov word[es:di+652],ax
  9765 0000B8BA 2689858E02              		mov word[es:di+654],ax
  9766 0000B8BF 2689859002              		mov word[es:di+656],ax
  9767 0000B8C4 2689859802              		mov word[es:di+664],ax
  9768 0000B8C9 2689859602              		mov word[es:di+662],ax
  9769 0000B8CE 2689859202              		mov word[es:di+658],ax
  9770                                  		
  9771 0000B8D3 2689852603              		mov word[es:di+806],ax
  9772 0000B8D8 2689852803              		mov word[es:di+808],ax
  9773 0000B8DD 2689852A03              		mov word[es:di+810],ax
  9774 0000B8E2 2689852C03              		mov word[es:di+812],ax
  9775 0000B8E7 2689852E03              		mov word[es:di+814],ax
  9776 0000B8EC 2689853003              		mov word[es:di+816],ax
  9777 0000B8F1 2689853203              		mov word[es:di+818],ax
  9778 0000B8F6 2689853403              		mov word[es:di+820],ax
  9779 0000B8FB 2689853603              		mov word[es:di+822],ax
  9780 0000B900 2689853603              		mov word[es:di+822],ax
  9781 0000B905 2689853803              		mov word[es:di+824],ax
  9782 0000B90A 2689853A03              		mov word[es:di+826],ax
  9783 0000B90F 2689853C03              		mov word[es:di+828],ax
  9784                                  		
  9785 0000B914 268985C403              		mov word[es:di+964],ax
  9786 0000B919 268985C603              		mov word[es:di+966],ax
  9787 0000B91E 268985CA03              		mov word[es:di+970],ax
  9788 0000B923 268985CE03              		mov word[es:di+974],ax
  9789 0000B928 268985CC03              		mov word[es:di+972],ax
  9790 0000B92D 268985C803              		mov word[es:di+968],ax
  9791 0000B932 268985D003              		mov word[es:di+976],ax
  9792 0000B937 268985D203              		mov word[es:di+978],ax
  9793 0000B93C 268985DA03              		mov word[es:di+986],ax
  9794 0000B941 268985D603              		mov word[es:di+982],ax
  9795 0000B946 268985D803              		mov word[es:di+984],ax
  9796 0000B94B 268985D403              		mov word[es:di+980],ax
  9797 0000B950 268985DC03              		mov word[es:di+988],ax
  9798 0000B955 268985DE03              		mov word[es:di+990],ax
  9799                                  
  9800                                  		  
  9801                                  
  9802 0000B95A 61                      popa
  9803 0000B95B C3                      ret	
  9804                                  
  9805                                  
  9806 0000B95C 60                      CLOUD2_LEVEL_3:pusha 
  9807 0000B95D B800B8                  mov ax,0xb800
  9808 0000B960 8EC0                    		 mov es,ax
  9809 0000B962 B440                    mov ah,0x40
  9810 0000B964 B40F                           mov ah,0x0F
  9811 0000B966 B0DB                    		mov al,0xDB
  9812                                  		
  9813 0000B968 8B3E[CEB0]              		mov di,[CLOUD_2_LEVEL_3_POS]
  9814                                  
  9815                                  
  9816 0000B96C 268985EC01              	    mov word[es:di+492],ax
  9817 0000B971 268985EE01              		mov word[es:di+494],ax
  9818 0000B976 268985F001              		mov word[es:di+496],ax
  9819 0000B97B 268985F601              		mov word[es:di+502],ax
  9820 0000B980 268985F201              		mov word[es:di+498],ax
  9821 0000B985 268985F401              		mov word[es:di+500],ax
  9822                                  		
  9823 0000B98A 2689858A02              		mov word[es:di+650],ax
  9824 0000B98F 2689859402              		mov word[es:di+660],ax
  9825 0000B994 2689858C02              		mov word[es:di+652],ax
  9826 0000B999 2689858E02              		mov word[es:di+654],ax
  9827 0000B99E 2689859002              		mov word[es:di+656],ax
  9828 0000B9A3 2689859802              		mov word[es:di+664],ax
  9829 0000B9A8 2689859602              		mov word[es:di+662],ax
  9830 0000B9AD 2689859202              		mov word[es:di+658],ax
  9831                                  		
  9832 0000B9B2 2689852603              		mov word[es:di+806],ax
  9833 0000B9B7 2689852803              		mov word[es:di+808],ax
  9834 0000B9BC 2689852A03              		mov word[es:di+810],ax
  9835 0000B9C1 2689852C03              		mov word[es:di+812],ax
  9836 0000B9C6 2689852E03              		mov word[es:di+814],ax
  9837 0000B9CB 2689853003              		mov word[es:di+816],ax
  9838 0000B9D0 2689853203              		mov word[es:di+818],ax
  9839 0000B9D5 2689853403              		mov word[es:di+820],ax
  9840 0000B9DA 2689853603              		mov word[es:di+822],ax
  9841 0000B9DF 2689853603              		mov word[es:di+822],ax
  9842 0000B9E4 2689853803              		mov word[es:di+824],ax
  9843 0000B9E9 2689853A03              		mov word[es:di+826],ax
  9844 0000B9EE 2689853C03              		mov word[es:di+828],ax
  9845                                  		
  9846 0000B9F3 268985C403              		mov word[es:di+964],ax
  9847 0000B9F8 268985C603              		mov word[es:di+966],ax
  9848 0000B9FD 268985CA03              		mov word[es:di+970],ax
  9849 0000BA02 268985CE03              		mov word[es:di+974],ax
  9850 0000BA07 268985CC03              		mov word[es:di+972],ax
  9851 0000BA0C 268985C803              		mov word[es:di+968],ax
  9852 0000BA11 268985D003              		mov word[es:di+976],ax
  9853 0000BA16 268985D203              		mov word[es:di+978],ax
  9854 0000BA1B 268985DA03              		mov word[es:di+986],ax
  9855 0000BA20 268985D603              		mov word[es:di+982],ax
  9856 0000BA25 268985D803              		mov word[es:di+984],ax
  9857 0000BA2A 268985D403              		mov word[es:di+980],ax
  9858 0000BA2F 268985DC03              		mov word[es:di+988],ax
  9859 0000BA34 268985DE03              		mov word[es:di+990],ax
  9860                                  		  
  9861                                  
  9862 0000BA39 61                      popa
  9863 0000BA3A C3                      ret	
  9864                                  
  9865 0000BA3B 60                      CLOUD3_LEVEL_3:pusha 
  9866 0000BA3C B800B8                  mov ax,0xb800
  9867 0000BA3F 8EC0                    		 mov es,ax
  9868 0000BA41 B440                    mov ah,0x40
  9869 0000BA43 B40F                           mov ah,0x0F
  9870 0000BA45 B0DB                    		mov al,0xDB
  9871                                  		
  9872 0000BA47 8B3E[D0B0]              		mov di,[CLOUD_3_LEVEL_3_POS]
  9873                                  
  9874                                  
  9875 0000BA4B 268985EC01              	    mov word[es:di+492],ax
  9876 0000BA50 268985EE01              		mov word[es:di+494],ax
  9877 0000BA55 268985F001              		mov word[es:di+496],ax
  9878 0000BA5A 268985F601              		mov word[es:di+502],ax
  9879 0000BA5F 268985F201              		mov word[es:di+498],ax
  9880 0000BA64 268985F401              		mov word[es:di+500],ax
  9881                                  		
  9882 0000BA69 2689858A02              		mov word[es:di+650],ax
  9883 0000BA6E 2689859402              		mov word[es:di+660],ax
  9884 0000BA73 2689858C02              		mov word[es:di+652],ax
  9885 0000BA78 2689858E02              		mov word[es:di+654],ax
  9886 0000BA7D 2689859002              		mov word[es:di+656],ax
  9887 0000BA82 2689859802              		mov word[es:di+664],ax
  9888 0000BA87 2689859602              		mov word[es:di+662],ax
  9889 0000BA8C 2689859202              		mov word[es:di+658],ax
  9890                                  		
  9891 0000BA91 2689852603              		mov word[es:di+806],ax
  9892 0000BA96 2689852803              		mov word[es:di+808],ax
  9893 0000BA9B 2689852A03              		mov word[es:di+810],ax
  9894 0000BAA0 2689852C03              		mov word[es:di+812],ax
  9895 0000BAA5 2689852E03              		mov word[es:di+814],ax
  9896 0000BAAA 2689853003              		mov word[es:di+816],ax
  9897 0000BAAF 2689853203              		mov word[es:di+818],ax
  9898 0000BAB4 2689853403              		mov word[es:di+820],ax
  9899 0000BAB9 2689853603              		mov word[es:di+822],ax
  9900 0000BABE 2689853603              		mov word[es:di+822],ax
  9901 0000BAC3 2689853803              		mov word[es:di+824],ax
  9902 0000BAC8 2689853A03              		mov word[es:di+826],ax
  9903 0000BACD 2689853C03              		mov word[es:di+828],ax
  9904                                  		
  9905 0000BAD2 268985C403              		mov word[es:di+964],ax
  9906 0000BAD7 268985C603              		mov word[es:di+966],ax
  9907 0000BADC 268985CA03              		mov word[es:di+970],ax
  9908 0000BAE1 268985CE03              		mov word[es:di+974],ax
  9909 0000BAE6 268985CC03              		mov word[es:di+972],ax
  9910 0000BAEB 268985C803              		mov word[es:di+968],ax
  9911 0000BAF0 268985D003              		mov word[es:di+976],ax
  9912 0000BAF5 268985D203              		mov word[es:di+978],ax
  9913 0000BAFA 268985DA03              		mov word[es:di+986],ax
  9914 0000BAFF 268985D603              		mov word[es:di+982],ax
  9915 0000BB04 268985D803              		mov word[es:di+984],ax
  9916 0000BB09 268985D403              		mov word[es:di+980],ax
  9917 0000BB0E 268985DC03              		mov word[es:di+988],ax
  9918 0000BB13 268985DE03              		mov word[es:di+990],ax
  9919                                  		
  9920                                  		  
  9921                                  
  9922 0000BB18 61                      popa
  9923 0000BB19 C3                      ret	
  9924                                  
  9925 0000BB1A 60                      CLOUD4_LEVEL_3:pusha 
  9926 0000BB1B B800B8                  mov ax,0xb800
  9927 0000BB1E 8EC0                    		 mov es,ax
  9928 0000BB20 B440                    mov ah,0x40
  9929 0000BB22 B40F                           mov ah,0x0F
  9930 0000BB24 B0DB                    		mov al,0xDB
  9931                                  		
  9932 0000BB26 8B3E[D2B0]              		mov di,[CLOUD_4_LEVEL_3_POS]
  9933                                  
  9934                                  
  9935 0000BB2A 268985EC01              	    mov word[es:di+492],ax
  9936 0000BB2F 268985EE01              		mov word[es:di+494],ax
  9937 0000BB34 268985F001              		mov word[es:di+496],ax
  9938 0000BB39 268985F601              		mov word[es:di+502],ax
  9939 0000BB3E 268985F201              		mov word[es:di+498],ax
  9940 0000BB43 268985F401              		mov word[es:di+500],ax
  9941                                  		
  9942 0000BB48 2689858A02              		mov word[es:di+650],ax
  9943 0000BB4D 2689859402              		mov word[es:di+660],ax
  9944 0000BB52 2689858C02              		mov word[es:di+652],ax
  9945 0000BB57 2689858E02              		mov word[es:di+654],ax
  9946 0000BB5C 2689859002              		mov word[es:di+656],ax
  9947 0000BB61 2689859802              		mov word[es:di+664],ax
  9948 0000BB66 2689859602              		mov word[es:di+662],ax
  9949 0000BB6B 2689859202              		mov word[es:di+658],ax
  9950                                  		
  9951 0000BB70 2689852603              		mov word[es:di+806],ax
  9952 0000BB75 2689852803              		mov word[es:di+808],ax
  9953 0000BB7A 2689852A03              		mov word[es:di+810],ax
  9954 0000BB7F 2689852C03              		mov word[es:di+812],ax
  9955 0000BB84 2689852E03              		mov word[es:di+814],ax
  9956 0000BB89 2689853003              		mov word[es:di+816],ax
  9957 0000BB8E 2689853203              		mov word[es:di+818],ax
  9958 0000BB93 2689853403              		mov word[es:di+820],ax
  9959 0000BB98 2689853603              		mov word[es:di+822],ax
  9960 0000BB9D 2689853603              		mov word[es:di+822],ax
  9961 0000BBA2 2689853803              		mov word[es:di+824],ax
  9962 0000BBA7 2689853A03              		mov word[es:di+826],ax
  9963 0000BBAC 2689853C03              		mov word[es:di+828],ax
  9964                                  		
  9965 0000BBB1 268985C403              		mov word[es:di+964],ax
  9966 0000BBB6 268985C603              		mov word[es:di+966],ax
  9967 0000BBBB 268985CA03              		mov word[es:di+970],ax
  9968 0000BBC0 268985CE03              		mov word[es:di+974],ax
  9969 0000BBC5 268985CC03              		mov word[es:di+972],ax
  9970 0000BBCA 268985C803              		mov word[es:di+968],ax
  9971 0000BBCF 268985D003              		mov word[es:di+976],ax
  9972 0000BBD4 268985D203              		mov word[es:di+978],ax
  9973 0000BBD9 268985DA03              		mov word[es:di+986],ax
  9974 0000BBDE 268985D603              		mov word[es:di+982],ax
  9975 0000BBE3 268985D803              		mov word[es:di+984],ax
  9976 0000BBE8 268985D403              		mov word[es:di+980],ax
  9977 0000BBED 268985DC03              		mov word[es:di+988],ax
  9978 0000BBF2 268985DE03              		mov word[es:di+990],ax
  9979                                  		
  9980                                  		  
  9981                                  
  9982 0000BBF7 61                      popa
  9983 0000BBF8 C3                      ret	
  9984                                  
  9985 0000BBF9 60                      CLOUD5_LEVEL_3:pusha 
  9986 0000BBFA B800B8                  mov ax,0xb800
  9987 0000BBFD 8EC0                    		 mov es,ax
  9988 0000BBFF B440                    mov ah,0x40
  9989 0000BC01 B40F                           mov ah,0x0F
  9990 0000BC03 B0DB                    		mov al,0xDB
  9991                                  
  9992 0000BC05 8B3E[D4B0]              		mov di,[CLOUD_5_LEVEL_3_POS]
  9993                                  
  9994                                  
  9995 0000BC09 268985EC01              	    mov word[es:di+492],ax
  9996 0000BC0E 268985EE01              		mov word[es:di+494],ax
  9997 0000BC13 268985F001              		mov word[es:di+496],ax
  9998 0000BC18 268985F601              		mov word[es:di+502],ax
  9999 0000BC1D 268985F201              		mov word[es:di+498],ax
 10000 0000BC22 268985F401              		mov word[es:di+500],ax
 10001                                  		
 10002 0000BC27 2689858A02              		mov word[es:di+650],ax
 10003 0000BC2C 2689859402              		mov word[es:di+660],ax
 10004 0000BC31 2689858C02              		mov word[es:di+652],ax
 10005 0000BC36 2689858E02              		mov word[es:di+654],ax
 10006 0000BC3B 2689859002              		mov word[es:di+656],ax
 10007 0000BC40 2689859802              		mov word[es:di+664],ax
 10008 0000BC45 2689859602              		mov word[es:di+662],ax
 10009 0000BC4A 2689859202              		mov word[es:di+658],ax
 10010                                  		
 10011 0000BC4F 2689852603              		mov word[es:di+806],ax
 10012 0000BC54 2689852803              		mov word[es:di+808],ax
 10013 0000BC59 2689852A03              		mov word[es:di+810],ax
 10014 0000BC5E 2689852C03              		mov word[es:di+812],ax
 10015 0000BC63 2689852E03              		mov word[es:di+814],ax
 10016 0000BC68 2689853003              		mov word[es:di+816],ax
 10017 0000BC6D 2689853203              		mov word[es:di+818],ax
 10018 0000BC72 2689853403              		mov word[es:di+820],ax
 10019 0000BC77 2689853603              		mov word[es:di+822],ax
 10020 0000BC7C 2689853603              		mov word[es:di+822],ax
 10021 0000BC81 2689853803              		mov word[es:di+824],ax
 10022 0000BC86 2689853A03              		mov word[es:di+826],ax
 10023 0000BC8B 2689853C03              		mov word[es:di+828],ax
 10024                                  		
 10025 0000BC90 268985C403              		mov word[es:di+964],ax
 10026 0000BC95 268985C603              		mov word[es:di+966],ax
 10027 0000BC9A 268985CA03              		mov word[es:di+970],ax
 10028 0000BC9F 268985CE03              		mov word[es:di+974],ax
 10029 0000BCA4 268985CC03              		mov word[es:di+972],ax
 10030 0000BCA9 268985C803              		mov word[es:di+968],ax
 10031 0000BCAE 268985D003              		mov word[es:di+976],ax
 10032 0000BCB3 268985D203              		mov word[es:di+978],ax
 10033 0000BCB8 268985DA03              		mov word[es:di+986],ax
 10034 0000BCBD 268985D603              		mov word[es:di+982],ax
 10035 0000BCC2 268985D803              		mov word[es:di+984],ax
 10036 0000BCC7 268985D403              		mov word[es:di+980],ax
 10037 0000BCCC 268985DC03              		mov word[es:di+988],ax
 10038 0000BCD1 268985DE03              		mov word[es:di+990],ax
 10039                                  		
 10040                                  		  
 10041                                  
 10042 0000BCD6 61                      popa
 10043 0000BCD7 C3                      ret	
 10044                                  
 10045 0000BCD8 60                      CLOUD6_LEVEL_3:pusha 
 10046 0000BCD9 B800B8                  mov ax,0xb800
 10047 0000BCDC 8EC0                    		 mov es,ax
 10048 0000BCDE B440                    mov ah,0x40
 10049 0000BCE0 B407                           mov ah,0x07
 10050 0000BCE2 B0DB                    		mov al,0xDB
 10051                                  		
 10052 0000BCE4 8B3E[D6B0]              		mov di,[CLOUD_6_LEVEL_3_POS]
 10053                                  
 10054                                  
 10055 0000BCE8 268985EC01              	    mov word[es:di+492],ax
 10056 0000BCED 268985EE01              		mov word[es:di+494],ax
 10057 0000BCF2 268985F001              		mov word[es:di+496],ax
 10058 0000BCF7 268985F601              		mov word[es:di+502],ax
 10059 0000BCFC 268985F201              		mov word[es:di+498],ax
 10060 0000BD01 268985F401              		mov word[es:di+500],ax
 10061                                  		
 10062 0000BD06 2689858A02              		mov word[es:di+650],ax
 10063 0000BD0B 2689859402              		mov word[es:di+660],ax
 10064 0000BD10 2689858C02              		mov word[es:di+652],ax
 10065 0000BD15 2689858E02              		mov word[es:di+654],ax
 10066 0000BD1A 2689859002              		mov word[es:di+656],ax
 10067 0000BD1F 2689859802              		mov word[es:di+664],ax
 10068 0000BD24 2689859602              		mov word[es:di+662],ax
 10069 0000BD29 2689859202              		mov word[es:di+658],ax
 10070                                  		
 10071 0000BD2E 2689852603              		mov word[es:di+806],ax
 10072 0000BD33 2689852803              		mov word[es:di+808],ax
 10073 0000BD38 2689852A03              		mov word[es:di+810],ax
 10074 0000BD3D 2689852C03              		mov word[es:di+812],ax
 10075 0000BD42 2689852E03              		mov word[es:di+814],ax
 10076 0000BD47 2689853003              		mov word[es:di+816],ax
 10077 0000BD4C 2689853203              		mov word[es:di+818],ax
 10078 0000BD51 2689853403              		mov word[es:di+820],ax
 10079 0000BD56 2689853603              		mov word[es:di+822],ax
 10080 0000BD5B 2689853603              		mov word[es:di+822],ax
 10081 0000BD60 2689853803              		mov word[es:di+824],ax
 10082 0000BD65 2689853A03              		mov word[es:di+826],ax
 10083 0000BD6A 2689853C03              		mov word[es:di+828],ax
 10084                                  		
 10085 0000BD6F 268985C403              		mov word[es:di+964],ax
 10086 0000BD74 268985C603              		mov word[es:di+966],ax
 10087 0000BD79 268985CA03              		mov word[es:di+970],ax
 10088 0000BD7E 268985CE03              		mov word[es:di+974],ax
 10089 0000BD83 268985CC03              		mov word[es:di+972],ax
 10090 0000BD88 268985C803              		mov word[es:di+968],ax
 10091 0000BD8D 268985D003              		mov word[es:di+976],ax
 10092 0000BD92 268985D203              		mov word[es:di+978],ax
 10093 0000BD97 268985DA03              		mov word[es:di+986],ax
 10094 0000BD9C 268985D603              		mov word[es:di+982],ax
 10095 0000BDA1 268985D803              		mov word[es:di+984],ax
 10096 0000BDA6 268985D403              		mov word[es:di+980],ax
 10097 0000BDAB 268985DC03              		mov word[es:di+988],ax
 10098 0000BDB0 268985DE03              		mov word[es:di+990],ax
 10099                                  		
 10100                                  		  
 10101                                  
 10102 0000BDB5 61                      popa
 10103 0000BDB6 C3                      ret	
 10104                                  
 10105 0000BDB7 60                      CLOUD7_LEVEL_3:pusha 
 10106 0000BDB8 B800B8                  mov ax,0xb800
 10107 0000BDBB 8EC0                    		 mov es,ax
 10108 0000BDBD B440                    mov ah,0x40
 10109 0000BDBF B407                           mov ah,0x07
 10110 0000BDC1 B0DB                    		mov al,0xDB
 10111                                  		
 10112 0000BDC3 8B3E[D8B0]              		mov di,[CLOUD_7_LEVEL_3_POS]
 10113                                  
 10114                                  
 10115 0000BDC7 268985EC01              	    mov word[es:di+492],ax
 10116 0000BDCC 268985EE01              		mov word[es:di+494],ax
 10117 0000BDD1 268985F001              		mov word[es:di+496],ax
 10118 0000BDD6 268985F601              		mov word[es:di+502],ax
 10119 0000BDDB 268985F201              		mov word[es:di+498],ax
 10120 0000BDE0 268985F401              		mov word[es:di+500],ax
 10121                                  		
 10122 0000BDE5 2689858A02              		mov word[es:di+650],ax
 10123 0000BDEA 2689859402              		mov word[es:di+660],ax
 10124 0000BDEF 2689858C02              		mov word[es:di+652],ax
 10125 0000BDF4 2689858E02              		mov word[es:di+654],ax
 10126 0000BDF9 2689859002              		mov word[es:di+656],ax
 10127 0000BDFE 2689859802              		mov word[es:di+664],ax
 10128 0000BE03 2689859602              		mov word[es:di+662],ax
 10129 0000BE08 2689859202              		mov word[es:di+658],ax
 10130                                  		
 10131 0000BE0D 2689852603              		mov word[es:di+806],ax
 10132 0000BE12 2689852803              		mov word[es:di+808],ax
 10133 0000BE17 2689852A03              		mov word[es:di+810],ax
 10134 0000BE1C 2689852C03              		mov word[es:di+812],ax
 10135 0000BE21 2689852E03              		mov word[es:di+814],ax
 10136 0000BE26 2689853003              		mov word[es:di+816],ax
 10137 0000BE2B 2689853203              		mov word[es:di+818],ax
 10138 0000BE30 2689853403              		mov word[es:di+820],ax
 10139 0000BE35 2689853603              		mov word[es:di+822],ax
 10140 0000BE3A 2689853603              		mov word[es:di+822],ax
 10141 0000BE3F 2689853803              		mov word[es:di+824],ax
 10142 0000BE44 2689853A03              		mov word[es:di+826],ax
 10143 0000BE49 2689853C03              		mov word[es:di+828],ax
 10144                                  		
 10145                                  	
 10146                                  		
 10147                                  		  
 10148                                  
 10149 0000BE4E 61                      popa
 10150 0000BE4F C3                      ret	
 10151                                  
 10152 0000BE50 60                      CLOUD8_LEVEL_3:pusha 
 10153 0000BE51 B800B8                  mov ax,0xb800
 10154 0000BE54 8EC0                    		 mov es,ax
 10155 0000BE56 B440                    mov ah,0x40
 10156 0000BE58 B407                           mov ah,0x07
 10157 0000BE5A B0DB                    		mov al,0xDB
 10158                                  	
 10159 0000BE5C 8B3E[DAB0]              		mov di,[CLOUD_8_LEVEL_3_POS]
 10160                                  
 10161                                  
 10162 0000BE60 268985EC01              	    mov word[es:di+492],ax
 10163 0000BE65 268985EE01              		mov word[es:di+494],ax
 10164 0000BE6A 268985F001              		mov word[es:di+496],ax
 10165 0000BE6F 268985F601              		mov word[es:di+502],ax
 10166 0000BE74 268985F201              		mov word[es:di+498],ax
 10167 0000BE79 268985F401              		mov word[es:di+500],ax
 10168                                  		
 10169 0000BE7E 2689858A02              		mov word[es:di+650],ax
 10170 0000BE83 2689859402              		mov word[es:di+660],ax
 10171 0000BE88 2689858C02              		mov word[es:di+652],ax
 10172 0000BE8D 2689858E02              		mov word[es:di+654],ax
 10173 0000BE92 2689859002              		mov word[es:di+656],ax
 10174 0000BE97 2689859802              		mov word[es:di+664],ax
 10175 0000BE9C 2689859602              		mov word[es:di+662],ax
 10176 0000BEA1 2689859202              		mov word[es:di+658],ax
 10177                                  		
 10178 0000BEA6 2689852603              		mov word[es:di+806],ax
 10179 0000BEAB 2689852803              		mov word[es:di+808],ax
 10180 0000BEB0 2689852A03              		mov word[es:di+810],ax
 10181 0000BEB5 2689852C03              		mov word[es:di+812],ax
 10182 0000BEBA 2689852E03              		mov word[es:di+814],ax
 10183 0000BEBF 2689853003              		mov word[es:di+816],ax
 10184 0000BEC4 2689853203              		mov word[es:di+818],ax
 10185 0000BEC9 2689853403              		mov word[es:di+820],ax
 10186 0000BECE 2689853603              		mov word[es:di+822],ax
 10187 0000BED3 2689853603              		mov word[es:di+822],ax
 10188 0000BED8 2689853803              		mov word[es:di+824],ax
 10189 0000BEDD 2689853A03              		mov word[es:di+826],ax
 10190 0000BEE2 2689853C03              		mov word[es:di+828],ax
 10191                                  		
 10192                                  
 10193 0000BEE7 61                      popa
 10194 0000BEE8 C3                      ret	
 10195                                  
 10196 0000BEE9 60                      CLOUD9_LEVEL_3:pusha 
 10197 0000BEEA B800B8                  mov ax,0xb800
 10198 0000BEED 8EC0                    		 mov es,ax
 10199 0000BEEF B440                    mov ah,0x40
 10200 0000BEF1 B40F                           mov ah,0x0F
 10201 0000BEF3 B0DB                    		mov al,0xDB
 10202                                  		
 10203 0000BEF5 8B3E[DCB0]              		mov di,[CLOUD_9_LEVEL_3_POS]
 10204                                  
 10205                                  
 10206 0000BEF9 268985EC01              	    mov word[es:di+492],ax
 10207 0000BEFE 268985EE01              		mov word[es:di+494],ax
 10208 0000BF03 268985F001              		mov word[es:di+496],ax
 10209 0000BF08 268985F601              		mov word[es:di+502],ax
 10210 0000BF0D 268985F201              		mov word[es:di+498],ax
 10211 0000BF12 268985F401              		mov word[es:di+500],ax
 10212                                  		
 10213 0000BF17 2689858A02              		mov word[es:di+650],ax
 10214 0000BF1C 2689859402              		mov word[es:di+660],ax
 10215 0000BF21 2689858C02              		mov word[es:di+652],ax
 10216 0000BF26 2689858E02              		mov word[es:di+654],ax
 10217 0000BF2B 2689859002              		mov word[es:di+656],ax
 10218 0000BF30 2689859802              		mov word[es:di+664],ax
 10219 0000BF35 2689859602              		mov word[es:di+662],ax
 10220 0000BF3A 2689859202              		mov word[es:di+658],ax
 10221                                  		
 10222 0000BF3F 2689852603              		mov word[es:di+806],ax
 10223 0000BF44 2689852803              		mov word[es:di+808],ax
 10224 0000BF49 2689852A03              		mov word[es:di+810],ax
 10225 0000BF4E 2689852C03              		mov word[es:di+812],ax
 10226 0000BF53 2689852E03              		mov word[es:di+814],ax
 10227 0000BF58 2689853003              		mov word[es:di+816],ax
 10228 0000BF5D 2689853203              		mov word[es:di+818],ax
 10229 0000BF62 2689853403              		mov word[es:di+820],ax
 10230 0000BF67 2689853603              		mov word[es:di+822],ax
 10231 0000BF6C 2689853603              		mov word[es:di+822],ax
 10232 0000BF71 2689853803              		mov word[es:di+824],ax
 10233 0000BF76 2689853A03              		mov word[es:di+826],ax
 10234 0000BF7B 2689853C03              		mov word[es:di+828],ax
 10235                                  		
 10236                                  		  
 10237                                  
 10238 0000BF80 61                      popa
 10239 0000BF81 C3                      ret	
 10240 0000BF82 60                      starrs_LEVEL_3: pusha 
 10241                                  
 10242 0000BF83 B800B8                           mov ax,0xb800
 10243 0000BF86 8EC0                    		 mov es,ax
 10244 0000BF88 B48F                    		 mov ah,0x8F
 10245 0000BF8A B007                    		 mov al,0x07
 10246 0000BF8C B9E803                  		 mov cx,1000
 10247 0000BF8F BF0200                  		 mov di,2
 10248 0000BF92 B007                    print_star:      mov al,0x07
 10249 0000BF94 AB                                		  stosw
 10250 0000BF95 83C71A                                 add di,26
 10251                                  			  
 10252 0000BF98 E2F8                    			   loop print_star
 10253 0000BF9A 61                      		 popa 
 10254 0000BF9B C3                      		 ret
 10255 0000BF9C 60                      starrs_1_LEVEL_3: pusha 
 10256                                  
 10257 0000BF9D B800B8                           mov ax,0xb800
 10258 0000BFA0 8EC0                    		 mov es,ax
 10259 0000BFA2 B40F                    		 mov ah,0x0F
 10260 0000BFA4 B007                    		 mov al,0x07
 10261 0000BFA6 B92C01                  		 mov cx,300
 10262 0000BFA9 BF0200                  		 mov di,2
 10263 0000BFAC B004                    print_star_1:      mov al,0x04
 10264 0000BFAE AB                                		  stosw
 10265 0000BFAF 83C760                                 add di,96
 10266                                  			  
 10267 0000BFB2 E2F8                    			   loop print_star_1
 10268 0000BFB4 61                      		 popa 
 10269 0000BFB5 C3                      		 ret		 
 10270 0000BFB6 60                      WINDOWS_FOR_LEVEL_3:pusha
 10271 0000BFB7 B800B8                  		 mov ax,0xb800
 10272 0000BFBA 8EC0                    		 mov es,ax
 10273                                  		 
 10274 0000BFBC BFA60E                  		 mov di,3750
 10275                                  		 
 10276 0000BFBF 26C705FE0E              		 mov word[es:di],0x0EFE
 10277 0000BFC4 26C785C0FEFE0E          		 mov word[es:di-320],0x0EFE
 10278 0000BFCB 26C78580FDFE0E          		 mov word[es:di-640],0x0EFE
 10279                                  		 
 10280                                  		 
 10281 0000BFD2 26C785E0FCDB0F          		  mov word[es:di-800],0x0FDB
 10282 0000BFD9 26C785DEFCDB0F          		 mov word[es:di-800-2],0x0FDB
 10283 0000BFE0 26C785E2FCDB0F          		 mov word[es:di-800+2],0x0FDB
 10284                                  		 
 10285 0000BFE7 26C785BCFEFE0E          		 mov word[es:di-320-4],0x0EFE
 10286 0000BFEE 26C745FCFE0E            		 mov word[es:di-4],0x0EFE
 10287                                  		 
 10288 0000BFF4 BF920E                  		 mov di,3730
 10289                                  		 
 10290 0000BFF7 26C74502FE0E            		 mov word[es:di+2],0x0EFE
 10291 0000BFFD 26C78566FFDB0F          		 mov word[es:di-160+6],0x0FDB
 10292                                  		 
 10293 0000C004 BF740E                  		 mov di,3700
 10294                                  		 
 10295 0000C007 26C745FCFE0E            		 mov word[es:di-4],0x0EFE
 10296 0000C00D 26C785B8FEFE0E          		 mov word[es:di-320-8],0x0EFE
 10297 0000C014 26C745F8FE0E            		 mov word[es:di-8],0x0EFE
 10298 0000C01A 26C78578FDFE0E          		 mov word[es:di-640-8],0x0EFE
 10299 0000C021 26C785D8FCDB0F          		 mov word[es:di-800-8],0x0FDB
 10300 0000C028 26C785D6FCDB0F          		 mov word[es:di-800-10],0x0FDB
 10301                                  		 
 10302 0000C02F BFBA0E                  		 mov di,3770
 10303                                  		 
 10304 0000C032 26C785C0FEFE0E          		 mov word[es:di-320],0x0EFE
 10305 0000C039 26C705FE0E              		 mov word[es:di],0x0EFE
 10306                                  		 
 10307 0000C03E BFB20E                  		 mov di,3762
 10308                                  		 
 10309 0000C041 26C785C0FEFE0E          		 mov word[es:di-320],0x0EFE
 10310 0000C048 26C705FE0E              		 mov word[es:di],0x0EFE
 10311 0000C04D 26C78520FEDB0F          		 mov word[es:di-480],0x0FDB
 10312 0000C054 26C78522FEDB0F          		 mov word[es:di-480+2],0x0FDB
 10313                                  		 
 10314 0000C05B BFC00E                  		 mov di,3776
 10315                                  		 
 10316 0000C05E 26C74504FE0E            		 mov word[es:di+4],0x0EFE
 10317                                  		 
 10318 0000C064 BFC40E                  		 mov di,3780
 10319                                  		 
 10320 0000C067 26C74508FE0E            		 mov word[es:di+8],0x0EFE
 10321 0000C06D 26C785C8FEFE0E          		 mov word[es:di+8-320],0x0EFE
 10322                                  		 
 10323 0000C074 BFCE0E                  		 mov di, 3790
 10324                                  		 
 10325 0000C077 26C7450CFE0E            		 mov word[es:di+12],0x0EFE
 10326 0000C07D 26C74510FE0E            		 mov word[es:di+16],0x0EFE
 10327 0000C083 26C785D0FEFE0E          		 mov word[es:di-320+16],0x0EFE
 10328                                  		 
 10329 0000C08A BFE20E                  		 mov di,3810
 10330                                  		 
 10331 0000C08D 26C78566FFFE0E          		 mov word[es:di+6-160],0x0EFE
 10332                                  		 
 10333 0000C094 BFF60E                  		 mov di,3830
 10334                                  		 
 10335 0000C097 26C78520FEFE0E          		 mov word[es:di-480],0x0EFE
 10336 0000C09E 26C78560FFFE0E          		 mov word[es:di-160],0x0EFE
 10337 0000C0A5 26C785BAFEFE0F          		 mov word[es:di-320-6],0x0FFE
 10338                                  		 
 10339 0000C0AC BFE80D                  		 mov di,3560
 10340                                  		 
 10341 0000C0AF 26C745FAFE0F            		 mov word[es:di-6],0x0FFE
 10342                                  
 10343 0000C0B5 61                      popa 
 10344 0000C0B6 C3                      ret		 
 10345                                  
 10346                                  ;;//////////////////////////////////////LEVEL 3 BG FUNCTION/////////////////////////////////
 10347                                  ;;/////////////////////////////////////////////////////////////////////////////////////////
 10348                                  
 10349 0000C0B7 60                      LEVEL_3_THEME:pusha
 10350 0000C0B8 E823F0                   call clscr_LEVEL_3
 10351 0000C0BB E8C4FE                   call starrs_LEVEL_3
 10352 0000C0BE E8DBFE                   call starrs_1_LEVEL_3
 10353 0000C0C1 E82FF0                         call BUILDINGS__LEVEL_3
 10354 0000C0C4 E8F7F4                  	    call MOON
 10355 0000C0C7 E8B3F7                  	     call CLOUD1_LEVEL_3
 10356 0000C0CA E88FF8                  	     call CLOUD2_LEVEL_3
 10357 0000C0CD E86BF9                  	     call CLOUD3_LEVEL_3
 10358 0000C0D0 E847FA                  	     call CLOUD4_LEVEL_3
 10359 0000C0D3 E823FB                  	     call CLOUD5_LEVEL_3
 10360 0000C0D6 E8FFFB                  	     call CLOUD6_LEVEL_3
 10361 0000C0D9 E8DBFC                  	     call CLOUD7_LEVEL_3
 10362 0000C0DC E871FD                  	     call CLOUD8_LEVEL_3
 10363 0000C0DF E807FE                  		 call CLOUD9_LEVEL_3
 10364 0000C0E2 E8D1FE                  		 call WINDOWS_FOR_LEVEL_3
 10365                                  
 10366                                  		 
 10367 0000C0E5 61                               popa 
 10368 0000C0E6 C3                      		 ret
 10369                                  		 
 10370                                  ;;/////////////////////////////////////////LEVEL SELECTION SECREEN////////////////////////////////
 10371                                  ;;///////////////////////////////////////////////////////////////////////////////////////////////
 10372                                  
 10373                                  
 10374 0000C0E7 53454C454354204120-     get_level: db 'SELECT A LEVEL'				
 10374 0000C0F0 4C4556454C         
 10375 0000C0F5 0D00                    len_level: dw 13
 10376 0000C0F7 4C4556454C203100        LEVEL_1_NAME: db 'LEVEL 1',0
 10377 0000C0FF 4C4556454C203200        LEVEL_2_NAME: db 'LEVEL 2',0
 10378 0000C107 4C4556454C203300        LEVEL_3_NAME: db 'LEVEL 3',0
 10379                                  
 10380 0000C10F 20                      LEVEL_1_NAME_COLOR: db 0x20
 10381 0000C110 70                      LEVEL_2_NAME_COLOR: db 0x70
 10382 0000C111 70                      LEVEL_3_NAME_COLOR: db 0x70
 10383                                  
 10384 0000C112 3E204C6576656C2031-     LEVEL_1_DISCRIPTION_1: db '> Level 1 is basic.',0
 10384 0000C11B 206973206261736963-
 10384 0000C124 2E00               
 10385 0000C126 3E204C6576656C2031-     LEVEL_1_DISCRIPTION_2: db '> Level 1 has a Day theme.',0
 10385 0000C12F 206861732061204461-
 10385 0000C138 79207468656D652E00 
 10386 0000C141 3E204C6576656C2031-     LEVEL_1_DISCRIPTION_3: db '> Level 1 has the same rules given in instruction.',0
 10386 0000C14A 206861732074686520-
 10386 0000C153 73616D652072756C65-
 10386 0000C15C 7320676976656E2069-
 10386 0000C165 6E20696E7374727563-
 10386 0000C16E 74696F6E2E00       
 10387 0000C174 3E204C6576656C2031-     LEVEL_1_DISCRIPTION_4: db '> Level 1 has 4 baloons.',0
 10387 0000C17D 206861732034206261-
 10387 0000C186 6C6F6F6E732E00     
 10388                                  
 10389 0000C18D 3E204C6576656C2032-     LEVEL_2_DISCRIPTION_1: db '> Level 2 has mid level difficulty .',0
 10389 0000C196 20686173206D696420-
 10389 0000C19F 6C6576656C20646966-
 10389 0000C1A8 666963756C7479202E-
 10389 0000C1B1 00                 
 10390 0000C1B2 3E204C6576656C2032-     LEVEL_2_DISCRIPTION_2: db '> Level 2 has a Sunset theme.',0
 10390 0000C1BB 206861732061205375-
 10390 0000C1C4 6E736574207468656D-
 10390 0000C1CD 652E00             
 10391 0000C1D0 3E204C6576656C2032-     LEVEL_2_DISCRIPTION_3: db '> Level 2 has the same rules but time is also ticks fast.',0
 10391 0000C1D9 206861732074686520-
 10391 0000C1E2 73616D652072756C65-
 10391 0000C1EB 73206275742074696D-
 10391 0000C1F4 6520697320616C736F-
 10391 0000C1FD 207469636B73206661-
 10391 0000C206 73742E00           
 10392 0000C20A 3E204C6576656C2032-     LEVEL_2_DISCRIPTION_4: db '> Level 2 has 5 baloons, increased speed.',0
 10392 0000C213 206861732035206261-
 10392 0000C21C 6C6F6F6E732C20696E-
 10392 0000C225 637265617365642073-
 10392 0000C22E 706565642E00       
 10393                                  
 10394 0000C234 3E204C6576656C2033-     LEVEL_3_DISCRIPTION_1: db '> Level 3 is hard.',0
 10394 0000C23D 20697320686172642E-
 10394 0000C246 00                 
 10395 0000C247 3E204C6576656C2033-     LEVEL_3_DISCRIPTION_2: db '> Level 3 has a Night theme.',0
 10395 0000C250 206861732061204E69-
 10395 0000C259 676874207468656D65-
 10395 0000C262 2E00               
 10396 0000C264 3E204C6576656C2033-     LEVEL_3_DISCRIPTION_3: db '> Level 3 has the same rules but time is also ticks fast.',0
 10396 0000C26D 206861732074686520-
 10396 0000C276 73616D652072756C65-
 10396 0000C27F 73206275742074696D-
 10396 0000C288 6520697320616C736F-
 10396 0000C291 207469636B73206661-
 10396 0000C29A 73742E00           
 10397 0000C29E 3E204C6576656C2033-     LEVEL_3_DISCRIPTION_4: db '> Level 3 has 6 baloons,increased speed .',0
 10397 0000C2A7 206861732036206261-
 10397 0000C2B0 6C6F6F6E732C696E63-
 10397 0000C2B9 726561736564207370-
 10397 0000C2C2 656564202E00       
 10398                                  
 10399 0000C2C8 0000880688068806        LEVEL_1_MSG_POSITION_WHEN_LEVEL: dw 0,1672,1672,1672
 10400 0000C2D0 0000A80928072807        LEVEL_2_MSG_POSITION_WHEN_LEVEL: dw 0,2472,1832,1832
 10401 0000C2D8 0000480A480AC807        LEVEL_3_MSG_POSITION_WHEN_LEVEL: dw 0,2632,2632,1992
 10402                                  
 10403                                  
 10404                                  
 10405 0000C2E0 0100                    CURRENT_LEVEL: dw 1
 10406                                  		
 10407                                  				
 10408 0000C2E2 06                      clearscreen_input_LEVEL_SELECTION: push ES
 10409 0000C2E3 50                      					 push AX
 10410 0000C2E4 57                      					 push di
 10411                                  					 
 10412 0000C2E5 B800B8                  				MOV		AX, 0xB800
 10413 0000C2E8 8EC0                    				MOV		ES, AX
 10414 0000C2EA BF0000                  				mov di,0
 10415                                  				
 10416 0000C2ED 26C705DB07              nextloc_input_LEVEL_SELECTION:    mov word[es:di]	,0x07DB
 10417 0000C2F2 83C702                  					add di,2
 10418 0000C2F5 81FFA00F                					cmp di,4000
 10419 0000C2F9 75F2                    					jne nextloc_input_LEVEL_SELECTION
 10420                                  
 10421                                  
 10422 0000C2FB 5F                      					pop di
 10423 0000C2FC 58                      					pop AX
 10424 0000C2FD 07                      					pop ES
 10425                                  
 10426 0000C2FE C3                      					ret	
 10427                                  print_input_LEVEL_SLECTION:
 10428 0000C2FF 60                                pusha
 10429 0000C300 B800B8                  		  	MOV		AX, 0xB800
 10430 0000C303 8EC0                    				MOV		ES, AX
 10431 0000C305 BE0000                  				mov si,0
 10432 0000C308 BF0000                  				mov di,0
 10433                                  				
 10434 0000C30B B770                    				next_input_LEVEL_SELECTION:   mov bh,0x70
 10435 0000C30D 8A9C[E7C0]                       				mov bl,[get_level+si]
 10436 0000C311 26899D0804                        				mov word[es:1032+di],bx
 10437 0000C316 83C702                  					add di,2
 10438 0000C319 83C601                  					add si,1
 10439 0000C31C 3B36[F5C0]              					cmp si,[len_level]
 10440 0000C320 7EE9                    					jle next_input_LEVEL_SELECTION
 10441                                  					
 10442 0000C322 61                      popa
 10443 0000C323 C3                      ret
 10444                                  
 10445 0000C324 60                      LEVEL_1_DISC_FUNC:pusha
 10446 0000C325 B800B8                                  mov ax,0xB800
 10447 0000C328 8EC0                    				mov es,ax
 10448 0000C32A BF0807                  								mov di,1800
 10449 0000C32D BE0000                  				mov si,0
 10450 0000C330 B771                    				mov bh,0x71
 10451 0000C332 8A9C[12C1]              L1_DISC_1:        mov bl,[LEVEL_1_DISCRIPTION_1+si] 
 10452 0000C336 26891D                                  mov word[es:di],bx
 10453 0000C339 83C702                                  add di,2
 10454 0000C33C 83C601                  				add si,1
 10455 0000C33F 80FB00                  				cmp bl,0x00
 10456 0000C342 75EE                    				jne L1_DISC_1
 10457                                  				
 10458 0000C344 BFA807                  				mov di,1960
 10459 0000C347 BE0000                  				mov si,0
 10460 0000C34A B771                    				mov bh,0x71
 10461 0000C34C 8A9C[26C1]              L1_DISC_2:        mov bl,[LEVEL_1_DISCRIPTION_2+si] 
 10462 0000C350 26891D                                  mov word[es:di],bx
 10463 0000C353 83C702                                  add di,2
 10464 0000C356 83C601                  				add si,1
 10465 0000C359 80FB00                  				cmp bl,0x00
 10466 0000C35C 75EE                    				jne L1_DISC_2				
 10467                                  				
 10468 0000C35E BF4808                  				mov di,2120
 10469 0000C361 BE0000                  				mov si,0
 10470 0000C364 B771                    				mov bh,0x71
 10471 0000C366 8A9C[41C1]              L1_DISC_3:        mov bl,[LEVEL_1_DISCRIPTION_3+si] 
 10472 0000C36A 26891D                                  mov word[es:di],bx
 10473 0000C36D 83C702                                  add di,2
 10474 0000C370 83C601                  				add si,1
 10475 0000C373 80FB00                  				cmp bl,0x00
 10476 0000C376 75EE                    				jne L1_DISC_3
 10477                                  
 10478 0000C378 BFE808                  				mov di,2280
 10479 0000C37B BE0000                  				mov si,0
 10480 0000C37E B771                    				mov bh,0x71
 10481 0000C380 8A9C[74C1]              L1_DISC_4:        mov bl,[LEVEL_1_DISCRIPTION_4+si] 
 10482 0000C384 26891D                                  mov word[es:di],bx
 10483 0000C387 83C702                                  add di,2
 10484 0000C38A 83C601                  				add si,1
 10485 0000C38D 80FB00                  				cmp bl,0x00
 10486 0000C390 75EE                    				jne L1_DISC_4
 10487                                  				
 10488 0000C392 61                      				popa 
 10489 0000C393 C3                      				ret
 10490                                  				
 10491                                  				
 10492 0000C394 60                      LEVEL_2_DISC_FUNC:pusha
 10493 0000C395 B800B8                                  mov ax,0xB800
 10494 0000C398 8EC0                    				mov es,ax
 10495 0000C39A BFA807                  								mov di,1960
 10496 0000C39D BE0000                  				mov si,0
 10497 0000C3A0 B771                    				mov bh,0x71
 10498 0000C3A2 8A9C[8DC1]              L2_DISC_1:        mov bl,[LEVEL_2_DISCRIPTION_1+si] 
 10499 0000C3A6 26891D                                  mov word[es:di],bx
 10500 0000C3A9 83C702                                  add di,2
 10501 0000C3AC 83C601                  				add si,1
 10502 0000C3AF 80FB00                  				cmp bl,0x00
 10503 0000C3B2 75EE                    				jne L2_DISC_1
 10504                                  				
 10505 0000C3B4 BF4808                  				mov di,2120
 10506 0000C3B7 BE0000                  				mov si,0
 10507 0000C3BA B771                    				mov bh,0x71
 10508 0000C3BC 8A9C[B2C1]              L2_DISC_2:        mov bl,[LEVEL_2_DISCRIPTION_2+si] 
 10509 0000C3C0 26891D                                  mov word[es:di],bx
 10510 0000C3C3 83C702                                  add di,2
 10511 0000C3C6 83C601                  				add si,1
 10512 0000C3C9 80FB00                  				cmp bl,0x00
 10513 0000C3CC 75EE                    				jne L2_DISC_2				
 10514                                  				
 10515 0000C3CE BFE808                  				mov di,2280
 10516 0000C3D1 BE0000                  				mov si,0
 10517 0000C3D4 B771                    				mov bh,0x71
 10518 0000C3D6 8A9C[D0C1]              L2_DISC_3:        mov bl,[LEVEL_2_DISCRIPTION_3+si] 
 10519 0000C3DA 26891D                                  mov word[es:di],bx
 10520 0000C3DD 83C702                                  add di,2
 10521 0000C3E0 83C601                  				add si,1
 10522 0000C3E3 80FB00                  				cmp bl,0x00
 10523 0000C3E6 75EE                    				jne L2_DISC_3
 10524                                  
 10525 0000C3E8 BF8809                  				mov di,2440
 10526 0000C3EB BE0000                  				mov si,0
 10527 0000C3EE B771                    				mov bh,0x71
 10528 0000C3F0 8A9C[0AC2]              L2_DISC_4:        mov bl,[LEVEL_2_DISCRIPTION_4+si] 
 10529 0000C3F4 26891D                                  mov word[es:di],bx
 10530 0000C3F7 83C702                                  add di,2
 10531 0000C3FA 83C601                  				add si,1
 10532 0000C3FD 80FB00                  				cmp bl,0x00
 10533 0000C400 75EE                    				jne L2_DISC_4
 10534                                  				
 10535 0000C402 61                      				popa 
 10536 0000C403 C3                      				ret				
 10537                                  				
 10538 0000C404 60                      LEVEL_3_DISC_FUNC:pusha
 10539 0000C405 B800B8                                  mov ax,0xB800
 10540 0000C408 8EC0                    				mov es,ax
 10541 0000C40A BF4808                  								mov di,2120
 10542 0000C40D BE0000                  				mov si,0
 10543 0000C410 B771                    				mov bh,0x71
 10544 0000C412 8A9C[34C2]              L3_DISC_1:        mov bl,[LEVEL_3_DISCRIPTION_1+si] 
 10545 0000C416 26891D                                  mov word[es:di],bx
 10546 0000C419 83C702                                  add di,2
 10547 0000C41C 83C601                  				add si,1
 10548 0000C41F 80FB00                  				cmp bl,0x00
 10549 0000C422 75EE                    				jne L3_DISC_1
 10550                                  				
 10551 0000C424 BFE808                  				mov di,2280
 10552 0000C427 BE0000                  				mov si,0
 10553 0000C42A B771                    				mov bh,0x71
 10554 0000C42C 8A9C[47C2]              L3_DISC_2:        mov bl,[LEVEL_3_DISCRIPTION_2+si] 
 10555 0000C430 26891D                                  mov word[es:di],bx
 10556 0000C433 83C702                                  add di,2
 10557 0000C436 83C601                  				add si,1
 10558 0000C439 80FB00                  				cmp bl,0x00
 10559 0000C43C 75EE                    				jne L3_DISC_2				
 10560                                  				
 10561 0000C43E BF8809                  				mov di,2440
 10562 0000C441 BE0000                  				mov si,0
 10563 0000C444 B771                    				mov bh,0x71
 10564 0000C446 8A9C[64C2]              L3_DISC_3:        mov bl,[LEVEL_3_DISCRIPTION_3+si] 
 10565 0000C44A 26891D                                  mov word[es:di],bx
 10566 0000C44D 83C702                                  add di,2
 10567 0000C450 83C601                  				add si,1
 10568 0000C453 80FB00                  				cmp bl,0x00
 10569 0000C456 75EE                    				jne L3_DISC_3
 10570                                  
 10571 0000C458 BF280A                  				mov di,2600
 10572 0000C45B BE0000                  				mov si,0
 10573 0000C45E B771                    				mov bh,0x71
 10574 0000C460 8A9C[9EC2]              L3_DISC_4:        mov bl,[LEVEL_3_DISCRIPTION_4+si] 
 10575 0000C464 26891D                                  mov word[es:di],bx
 10576 0000C467 83C702                                  add di,2
 10577 0000C46A 83C601                  				add si,1
 10578 0000C46D 80FB00                  				cmp bl,0x00
 10579 0000C470 75EE                    				jne L3_DISC_4
 10580                                  				
 10581 0000C472 61                      				popa 
 10582 0000C473 C3                      				ret						
 10583                                  
 10584 0000C474 60                      SELECTING_LEVEL: pusha
 10585 0000C475 E86AFE                    CHECK_LEVEL:                                         call clearscreen_input_LEVEL_SELECTION
 10586 0000C478 E884FE                  						  call print_input_LEVEL_SLECTION
 10587 0000C47B B800B8                  MOV		AX, 0xB800
 10588 0000C47E 8EC0                    				MOV		ES, AX
 10589 0000C480 B80200                  				mov ax,2
 10590 0000C483 BE0000                  				mov si,0
 10591 0000C486 8B2E[E0C2]              				mov bp,[CURRENT_LEVEL]
 10592 0000C48A F7E5                    				mul bp
 10593 0000C48C 89C5                    				mov bp,ax
 10594 0000C48E 8BBE[C8C2]              				mov di,[LEVEL_1_MSG_POSITION_WHEN_LEVEL+bp]
 10595 0000C492 8A3E[0FC1]              				mov bh,[LEVEL_1_NAME_COLOR]
 10596 0000C496 8A9C[F7C0]              LEVEL1_LOOP:				mov bl,[LEVEL_1_NAME+si]
 10597 0000C49A 26891D                  				mov word[es:di],bx
 10598 0000C49D 83C702                  				add di,2
 10599 0000C4A0 83C601                  				add si,1
 10600 0000C4A3 80FB00                  				cmp bl,0x00
 10601 0000C4A6 75EE                    				jne LEVEL1_LOOP
 10602 0000C4A8 833E[E0C2]01                            cmp word[CURRENT_LEVEL],1
 10603 0000C4AD 0F840001                				je level_1_ha
 10604                                  
 10605                                                   
 10606                                  
 10607                                  				
 10608 0000C4B1 B80200                  level_1_ho_gaya:mov ax,2
 10609 0000C4B4 BE0000                  				mov si,0
 10610 0000C4B7 8B2E[E0C2]              				mov bp,[CURRENT_LEVEL]
 10611 0000C4BB F7E5                    				mul bp
 10612 0000C4BD 89C5                    				mov bp,ax
 10613 0000C4BF 8BBE[D0C2]              				mov di,[LEVEL_2_MSG_POSITION_WHEN_LEVEL+bp]
 10614 0000C4C3 8A3E[10C1]              				mov bh,[LEVEL_2_NAME_COLOR]
 10615 0000C4C7 8A9C[FFC0]              LEVEL2_LOOP:				mov bl,[LEVEL_2_NAME+si]
 10616 0000C4CB 26891D                  				mov word[es:di],bx
 10617 0000C4CE 83C702                  				add di,2
 10618 0000C4D1 83C601                  				add si,1
 10619 0000C4D4 80FB00                  				cmp bl,0x00
 10620 0000C4D7 75EE                    				jne LEVEL2_LOOP
 10621                                  				
 10622 0000C4D9 833E[E0C2]02            				 cmp word[CURRENT_LEVEL],2
 10623 0000C4DE 0F84D500                				je level_2_ha
 10624                                  				
 10625 0000C4E2 B80200                  level_2_ho_gaya:				mov ax,2
 10626 0000C4E5 BE0000                  				mov si,0
 10627 0000C4E8 8B2E[E0C2]              				mov bp,[CURRENT_LEVEL]
 10628 0000C4EC F7E5                    				mul bp
 10629 0000C4EE 89C5                    				mov bp,ax
 10630 0000C4F0 8BBE[D8C2]              				mov di,[LEVEL_3_MSG_POSITION_WHEN_LEVEL+bp]
 10631 0000C4F4 8A3E[11C1]              				mov bh,[LEVEL_3_NAME_COLOR]
 10632                                  
 10633 0000C4F8 8A9C[07C1]              LEVEL3_LOOP:				mov bl,[LEVEL_3_NAME+si]
 10634 0000C4FC 26891D                  				mov word[es:di],bx
 10635 0000C4FF 83C702                  				add di,2
 10636 0000C502 83C601                  				add si,1
 10637 0000C505 80FB00                  				cmp bl,0x00
 10638 0000C508 75EE                    				jne LEVEL3_LOOP
 10639                                  				
 10640 0000C50A 833E[E0C2]03            				 cmp word[CURRENT_LEVEL],3
 10641 0000C50F 0F84AA00                				je level_3_ha
 10642                                  level_3_ho_gaya:				
 10643 0000C513 31C0                    				xor ax,AX
 10644 0000C515 CD16                    				int 16h
 10645 0000C517 3C0D                    				cmp al,13
 10646 0000C519 0F84A600                				je LEVEL_CHECK_END
 10647 0000C51D 3C73                    				cmp al,'s'
 10648 0000C51F 740C                    				je CHANGING_LEVEL_1
 10649 0000C521 3C53                    				cmp al,'S'
 10650 0000C523 7408                    				je CHANGING_LEVEL_1
 10651                                  				
 10652 0000C525 3C77                    				cmp al,'w'
 10653 0000C527 7442                    				je CHANGING_LEVEL_2
 10654 0000C529 3C57                    				cmp al,'W'
 10655 0000C52B 743E                    				je CHANGING_LEVEL_2
 10656                                  				
 10657 0000C52D 833E[E0C2]03            CHANGING_LEVEL_1:cmp word[CURRENT_LEVEL],3
 10658 0000C532 7434                                     je NO_MORE_CHANGE
 10659 0000C534 833E[E0C2]02            				 cmp word[CURRENT_LEVEL],2
 10660 0000C539 7418                                     je SWAP_2_and_3
 10661 0000C53B 8306[E0C2]01            				 add word[CURRENT_LEVEL],1
 10662 0000C540 8A0E[10C1]              				 mov cl,[LEVEL_2_NAME_COLOR]
 10663 0000C544 8A2E[0FC1]                          mov  ch,[LEVEL_1_NAME_COLOR]
 10664 0000C548 882E[10C1]              			mov [LEVEL_2_NAME_COLOR],ch
 10665 0000C54C 880E[0FC1]              			mov [LEVEL_1_NAME_COLOR],cl
 10666 0000C550 E922FF                  				 jmp CHECK_LEVEL
 10667                                  				 
 10668 0000C553 8A0E[10C1]              SWAP_2_and_3: mov cl,[LEVEL_2_NAME_COLOR]
 10669 0000C557 8A2E[11C1]                          mov  ch,[LEVEL_3_NAME_COLOR]
 10670 0000C55B 882E[10C1]              			mov [LEVEL_2_NAME_COLOR],ch
 10671 0000C55F 880E[11C1]              			mov [LEVEL_3_NAME_COLOR],cl
 10672 0000C563 8306[E0C2]01            			add word[CURRENT_LEVEL],1
 10673 0000C568 E90AFF                  NO_MORE_CHANGE:			jmp CHECK_LEVEL
 10674                                  
 10675                                  
 10676                                  
 10677                                  
 10678 0000C56B 833E[E0C2]03            CHANGING_LEVEL_2: cmp word[CURRENT_LEVEL],3
 10679 0000C570 7518                                      jne SWAP_3_and_2
 10680 0000C572 832E[E0C2]01            				  sub word[CURRENT_LEVEL],1
 10681 0000C577 8A0E[10C1]              				   mov cl,[LEVEL_2_NAME_COLOR]
 10682 0000C57B 8A2E[11C1]                          mov  ch,[LEVEL_3_NAME_COLOR]
 10683 0000C57F 882E[10C1]              			mov [LEVEL_2_NAME_COLOR],ch
 10684 0000C583 880E[11C1]              			mov [LEVEL_3_NAME_COLOR],cl
 10685 0000C587 E9EBFE                  			jmp CHECK_LEVEL
 10686                                  				  
 10687 0000C58A 833E[E0C2]02            SWAP_3_and_2: 	cmp word[CURRENT_LEVEL],2
 10688 0000C58F 7518                                    jne SWAP_1_2
 10689 0000C591 832E[E0C2]01            				sub word[CURRENT_LEVEL],1
 10690 0000C596 8A0E[10C1]              				 mov cl,[LEVEL_2_NAME_COLOR]
 10691 0000C59A 8A2E[0FC1]                          mov  ch,[LEVEL_1_NAME_COLOR]
 10692 0000C59E 882E[10C1]              			mov [LEVEL_2_NAME_COLOR],ch
 10693 0000C5A2 880E[0FC1]              			mov [LEVEL_1_NAME_COLOR],cl
 10694 0000C5A6 E9CCFE                  				 jmp CHECK_LEVEL
 10695                                  
 10696 0000C5A9 833E[E0C2]01            SWAP_1_2:  cmp word[CURRENT_LEVEL],1
 10697 0000C5AE E9C4FE                             jmp CHECK_LEVEL
 10698                                  
 10699 0000C5B1 E870FD                  level_1_ha: call LEVEL_1_DISC_FUNC
 10700 0000C5B4 E9FAFE                              jmp level_1_ho_gaya
 10701                                  
 10702 0000C5B7 E8DAFD                  level_2_ha: call LEVEL_2_DISC_FUNC
 10703 0000C5BA E925FF                              jmp level_2_ho_gaya
 10704                                  
 10705 0000C5BD E844FE                  level_3_ha: call LEVEL_3_DISC_FUNC
 10706 0000C5C0 E950FF                              jmp level_3_ho_gaya		   						
 10707                                  				 
 10708 0000C5C3 61                      LEVEL_CHECK_END:				popa
 10709 0000C5C4 C3                      				ret
 10710                                  ;;//////////////////////////////////MODE SELECTION///////////////////////////////////
 10711                                  ;;///////////////////////////////////////////////////////////////////////
 10712                                  
 10713 0000C5C5 3E3E3E3E3E20532045-     get_mode: db '>>>>> S E L E C T     M O D E <<<<<'				
 10713 0000C5CE 204C20452043205420-
 10713 0000C5D7 202020204D204F2044-
 10713 0000C5E0 2045203C3C3C3C3C   
 10714 0000C5E8 2200                    len_mode: dw 34
 10715 0000C5EA 535552564956414C20-     mode_1_NAME: db 'SURVIVAL MODE',0
 10715 0000C5F3 4D4F444500         
 10716 0000C5F8 454E444C455353204D-     mode_2_NAME: db 'ENDLESS MODE',0
 10716 0000C601 4F444500           
 10717 0000C605 54494D45204D4F4445-     mode_3_NAME: db 'TIME MODE',0
 10717 0000C60E 00                 
 10718                                  
 10719 0000C60F 0F                      mode_1_NAME_COLOR: db 0x0F
 10720 0000C610 1F                      mode_2_NAME_COLOR: db 0x1F
 10721 0000C611 1F                      mode_3_NAME_COLOR: db 0x1f
 10722                                  
 10723 0000C612 3E2054686973206C65-     mode_1_DISCRIPTION_1: db '> This level is a restiction.',0
 10723 0000C61B 76656C206973206120-
 10723 0000C624 72657374696374696F-
 10723 0000C62D 6E2E00             
 10724 0000C630 3E2054686973206C65-     mode_1_DISCRIPTION_2: db '> This level has a cross wire at top theme.',0
 10724 0000C639 76656C206861732061-
 10724 0000C642 2063726F7373207769-
 10724 0000C64B 726520617420746F70-
 10724 0000C654 207468656D652E00   
 10725 0000C65C 3E2054686973206C65-     mode_1_DISCRIPTION_3: db '> This level has the same rules given in instruction with no time restriction but hurdle.',0
 10725 0000C665 76656C206861732074-
 10725 0000C66E 68652073616D652072-
 10725 0000C677 756C65732067697665-
 10725 0000C680 6E20696E20696E7374-
 10725 0000C689 72756374696F6E2077-
 10725 0000C692 697468206E6F207469-
 10725 0000C69B 6D6520726573747269-
 10725 0000C6A4 6374696F6E20627574-
 10725 0000C6AD 20687572646C652E00 
 10726 0000C6B6 3E2054686973206C65-     mode_1_DISCRIPTION_4: db '> This level has 4 baloons.',0
 10726 0000C6BF 76656C206861732034-
 10726 0000C6C8 2062616C6F6F6E732E-
 10726 0000C6D1 00                 
 10727                                  
 10728 0000C6D2 3E2054686973206C65-     mode_2_DISCRIPTION_1: db '> This level is Fikar Free.',0
 10728 0000C6DB 76656C206973204669-
 10728 0000C6E4 6B617220467265652E-
 10728 0000C6ED 00                 
 10729 0000C6EE 3E2054686973206C65-     mode_2_DISCRIPTION_2: db '> This level has a CLEAN theme.',0
 10729 0000C6F7 76656C206861732061-
 10729 0000C700 20434C45414E207468-
 10729 0000C709 656D652E00         
 10730 0000C70E 3E2054686973206C65-     mode_2_DISCRIPTION_3: db '> This level has the same rules but no time restriction.',0
 10730 0000C717 76656C206861732074-
 10730 0000C720 68652073616D652072-
 10730 0000C729 756C65732062757420-
 10730 0000C732 6E6F2074696D652072-
 10730 0000C73B 65737472696374696F-
 10730 0000C744 6E2E00             
 10731 0000C747 3E2054686973206C65-     mode_2_DISCRIPTION_4: db '> This level has 4 ballons.',0
 10731 0000C750 76656C206861732034-
 10731 0000C759 2062616C6C6F6E732E-
 10731 0000C762 00                 
 10732                                  
 10733 0000C763 3E2054686973206C65-     mode_3_DISCRIPTION_1: db '> This level is time dependent.',0
 10733 0000C76C 76656C206973207469-
 10733 0000C775 6D6520646570656E64-
 10733 0000C77E 656E742E00         
 10734 0000C783 3E2054686973206C65-     mode_3_DISCRIPTION_2: db '> This level has further 3 levels.',0
 10734 0000C78C 76656C206861732066-
 10734 0000C795 757274686572203320-
 10734 0000C79E 6C6576656C732E00   
 10735 0000C7A6 3E2054686973206C65-     mode_3_DISCRIPTION_3: db '> This level has same rules and some extra rules described further.',0
 10735 0000C7AF 76656C206861732073-
 10735 0000C7B8 616D652072756C6573-
 10735 0000C7C1 20616E6420736F6D65-
 10735 0000C7CA 206578747261207275-
 10735 0000C7D3 6C6573206465736372-
 10735 0000C7DC 696265642066757274-
 10735 0000C7E5 6865722E00         
 10736 0000C7EA 3E2054686973206C65-     mode_3_DISCRIPTION_4: db '> This level has different number of ballons.',0
 10736 0000C7F3 76656C206861732064-
 10736 0000C7FC 6966666572656E7420-
 10736 0000C805 6E756D626572206F66-
 10736 0000C80E 2062616C6C6F6E732E-
 10736 0000C817 00                 
 10737                                  
 10738 0000C818 0000860686068606        mode_1_MSG_POSITION_WHEN_LEVEL: dw 0,1670,1670,1670
 10739 0000C820 0000C607C607C607        mode_2_MSG_POSITION_WHEN_LEVEL: dw 0,1990,1990,1990
 10740 0000C828 0000060906090609        mode_3_MSG_POSITION_WHEN_LEVEL: dw 0,2310,2310,2310
 10741                                  
 10742                                  
 10743                                  
 10744 0000C830 0100                    CURRENT_mode: dw 1
 10745                                  
 10746                                  				
 10747                                  				
 10748 0000C832 06                      clearscreen_input_mode: push ES
 10749 0000C833 50                      					 push AX
 10750 0000C834 57                      					 push di
 10751                                  					 
 10752 0000C835 B800B8                  				MOV		AX, 0xB800
 10753 0000C838 8EC0                    				MOV		ES, AX
 10754 0000C83A BF0000                  				mov di,0
 10755                                  				
 10756 0000C83D 26C705DB01              nextloc_input_mode:    mov word[es:di]	,0x01DB
 10757 0000C842 83C702                  					add di,2
 10758 0000C845 81FFA00F                					cmp di,4000
 10759 0000C849 75F2                    					jne nextloc_input_mode
 10760                                  
 10761                                  
 10762 0000C84B 5F                      					pop di
 10763 0000C84C 58                      					pop AX
 10764 0000C84D 07                      					pop ES
 10765                                  
 10766 0000C84E C3                      					ret	
 10767                                  print_input_mode:
 10768 0000C84F 60                                pusha
 10769 0000C850 B800B8                  		  	MOV		AX, 0xB800
 10770 0000C853 8EC0                    				MOV		ES, AX
 10771 0000C855 BE0000                  				mov si,0
 10772 0000C858 BF0000                  				mov di,0
 10773                                  				
 10774 0000C85B B710                    				mov bh,0x10
 10775                                  				next_input_mode:   
 10776 0000C85D 8A9C[C5C5]                       				mov bl,[get_mode+si]
 10777 0000C861 26899DEE03                        				mov word[es:1006+di],bx
 10778 0000C866 83C702                  					add di,2
 10779 0000C869 83C601                  					add si,1
 10780 0000C86C 83FE06                  					cmp si,6
 10781 0000C86F 740B                    					je change_the_arrow_color_1
 10782 0000C871 83FE1E                  					cmp si,30
 10783 0000C874 7D0E                    					jge change_the_arrow_color_2
 10784                                  					
 10785 0000C876 3B36[E8C5]              					cmp si,[len_mode]
 10786 0000C87A 7EE1                    					jle next_input_mode
 10787                                  
 10788 0000C87C B71F                    change_the_arrow_color_1: mov bh,0x1F
 10789 0000C87E 3B36[E8C5]                                        cmp si,[len_mode]
 10790 0000C882 7ED9                    					jle next_input_mode					
 10791 0000C884 B710                    change_the_arrow_color_2: mov bh,0x10
 10792 0000C886 3B36[E8C5]                                        cmp si,[len_mode]
 10793 0000C88A 7ED1                    					jle next_input_mode 										
 10794 0000C88C 61                      popa
 10795 0000C88D C3                      ret
 10796                                  
 10797 0000C88E 60                      mode_1_DISC_FUNC:pusha
 10798 0000C88F B800B8                                  mov ax,0xB800
 10799 0000C892 8EC0                    				mov es,ax
 10800 0000C894 BF200D                  								mov di,3360
 10801 0000C897 BE0000                  				mov si,0
 10802 0000C89A B71E                    				mov bh,0x1E
 10803 0000C89C 8A9C[12C6]              M1_DISC_1:        mov bl,[mode_1_DISCRIPTION_1+si] 
 10804 0000C8A0 26891D                                  mov word[es:di],bx
 10805 0000C8A3 83C702                                  add di,2
 10806 0000C8A6 83C601                  				add si,1
 10807 0000C8A9 80FB00                  				cmp bl,0x00
 10808 0000C8AC 75EE                    				jne M1_DISC_1
 10809                                  				
 10810 0000C8AE BFC00D                  				mov di,3520
 10811 0000C8B1 BE0000                  				mov si,0
 10812 0000C8B4 B71E                    				mov bh,0x1E
 10813 0000C8B6 8A9C[30C6]              M1_DISC_2:        mov bl,[mode_1_DISCRIPTION_2+si] 
 10814 0000C8BA 26891D                                  mov word[es:di],bx
 10815 0000C8BD 83C702                                  add di,2
 10816 0000C8C0 83C601                  				add si,1
 10817 0000C8C3 80FB00                  				cmp bl,0x00
 10818 0000C8C6 75EE                    				jne M1_DISC_2				
 10819                                  				
 10820 0000C8C8 BF600E                  				mov di,3680
 10821 0000C8CB BE0000                  				mov si,0
 10822 0000C8CE B71E                    				mov bh,0x1E
 10823 0000C8D0 8A9C[5CC6]              M1_DISC_3:        mov bl,[mode_1_DISCRIPTION_3+si] 
 10824 0000C8D4 26891D                                  mov word[es:di],bx
 10825 0000C8D7 83C702                                  add di,2
 10826 0000C8DA 83C601                  				add si,1
 10827 0000C8DD 80FB00                  				cmp bl,0x00
 10828 0000C8E0 75EE                    				jne M1_DISC_3
 10829                                  
 10830 0000C8E2 BF000F                  				mov di,3840
 10831 0000C8E5 BE0000                  				mov si,0
 10832 0000C8E8 B71E                    				mov bh,0x1E
 10833 0000C8EA 8A9C[B6C6]              M1_DISC_4:        mov bl,[mode_1_DISCRIPTION_4+si] 
 10834 0000C8EE 26891D                                  mov word[es:di],bx
 10835 0000C8F1 83C702                                  add di,2
 10836 0000C8F4 83C601                  				add si,1
 10837 0000C8F7 80FB00                  				cmp bl,0x00
 10838 0000C8FA 75EE                    				jne M1_DISC_4
 10839                                  				
 10840 0000C8FC 61                      				popa 
 10841 0000C8FD C3                      				ret
 10842                                  				
 10843                                  				
 10844 0000C8FE 60                      mode_2_DISC_FUNC:pusha
 10845 0000C8FF B800B8                                  mov ax,0xB800
 10846 0000C902 8EC0                    				mov es,ax
 10847 0000C904 BF200D                  								mov di,3360
 10848 0000C907 BE0000                  				mov si,0
 10849 0000C90A B71B                    				mov bh,0x1B
 10850 0000C90C 8A9C[D2C6]              M2_DISC_1:        mov bl,[mode_2_DISCRIPTION_1+si] 
 10851 0000C910 26891D                                  mov word[es:di],bx
 10852 0000C913 83C702                                  add di,2
 10853 0000C916 83C601                  				add si,1
 10854 0000C919 80FB00                  				cmp bl,0x00
 10855 0000C91C 75EE                    				jne M2_DISC_1
 10856                                  				
 10857 0000C91E BFC00D                  				mov di,3520
 10858 0000C921 BE0000                  				mov si,0
 10859 0000C924 B71B                    				mov bh,0x1B
 10860 0000C926 8A9C[EEC6]              M2_DISC_2:        mov bl,[mode_2_DISCRIPTION_2+si] 
 10861 0000C92A 26891D                                  mov word[es:di],bx
 10862 0000C92D 83C702                                  add di,2
 10863 0000C930 83C601                  				add si,1
 10864 0000C933 80FB00                  				cmp bl,0x00
 10865 0000C936 75EE                    				jne M2_DISC_2				
 10866                                  				
 10867 0000C938 BF600E                  				mov di,3680
 10868 0000C93B BE0000                  				mov si,0
 10869 0000C93E B71B                    				mov bh,0x1B
 10870 0000C940 8A9C[0EC7]              M2_DISC_3:        mov bl,[mode_2_DISCRIPTION_3+si] 
 10871 0000C944 26891D                                  mov word[es:di],bx
 10872 0000C947 83C702                                  add di,2
 10873 0000C94A 83C601                  				add si,1
 10874 0000C94D 80FB00                  				cmp bl,0x00
 10875 0000C950 75EE                    				jne M2_DISC_3
 10876                                  
 10877 0000C952 BF000F                  				mov di,3840
 10878 0000C955 BE0000                  				mov si,0
 10879 0000C958 B71B                    				mov bh,0x1B
 10880 0000C95A 8A9C[47C7]              M2_DISC_4:        mov bl,[mode_2_DISCRIPTION_4+si] 
 10881 0000C95E 26891D                                  mov word[es:di],bx
 10882 0000C961 83C702                                  add di,2
 10883 0000C964 83C601                  				add si,1
 10884 0000C967 80FB00                  				cmp bl,0x00
 10885 0000C96A 75EE                    				jne M2_DISC_4
 10886                                  				
 10887 0000C96C 61                      				popa 
 10888 0000C96D C3                      				ret				
 10889                                  				
 10890 0000C96E 60                      mode_3_DISC_FUNC:pusha
 10891 0000C96F B800B8                                  mov ax,0xB800
 10892 0000C972 8EC0                    				mov es,ax
 10893 0000C974 BF200D                  								mov di,3360
 10894 0000C977 BE0000                  				mov si,0
 10895 0000C97A B71D                    				mov bh,0x1D
 10896 0000C97C 8A9C[63C7]              M3_DISC_1:        mov bl,[mode_3_DISCRIPTION_1+si] 
 10897 0000C980 26891D                                  mov word[es:di],bx
 10898 0000C983 83C702                                  add di,2
 10899 0000C986 83C601                  				add si,1
 10900 0000C989 80FB00                  				cmp bl,0x00
 10901 0000C98C 75EE                    				jne M3_DISC_1
 10902                                  				
 10903 0000C98E BFC00D                  				mov di,3520
 10904 0000C991 BE0000                  				mov si,0
 10905 0000C994 B71D                    				mov bh,0x1D
 10906 0000C996 8A9C[83C7]              M3_DISC_2:        mov bl,[mode_3_DISCRIPTION_2+si] 
 10907 0000C99A 26891D                                  mov word[es:di],bx
 10908 0000C99D 83C702                                  add di,2
 10909 0000C9A0 83C601                  				add si,1
 10910 0000C9A3 80FB00                  				cmp bl,0x00
 10911 0000C9A6 75EE                    				jne M3_DISC_2				
 10912                                  				
 10913 0000C9A8 BF600E                  				mov di,3680
 10914 0000C9AB BE0000                  				mov si,0
 10915 0000C9AE B71D                    				mov bh,0x1D
 10916 0000C9B0 8A9C[A6C7]              M3_DISC_3:        mov bl,[mode_3_DISCRIPTION_3+si] 
 10917 0000C9B4 26891D                                  mov word[es:di],bx
 10918 0000C9B7 83C702                                  add di,2
 10919 0000C9BA 83C601                  				add si,1
 10920 0000C9BD 80FB00                  				cmp bl,0x00
 10921 0000C9C0 75EE                    				jne M3_DISC_3
 10922                                  
 10923 0000C9C2 BF000F                  				mov di,3840
 10924 0000C9C5 BE0000                  				mov si,0
 10925 0000C9C8 B71D                    				mov bh,0x1D
 10926 0000C9CA 8A9C[EAC7]              M3_DISC_4:        mov bl,[mode_3_DISCRIPTION_4+si] 
 10927 0000C9CE 26891D                                  mov word[es:di],bx
 10928 0000C9D1 83C702                                  add di,2
 10929 0000C9D4 83C601                  				add si,1
 10930 0000C9D7 80FB00                  				cmp bl,0x00
 10931 0000C9DA 75EE                    				jne M3_DISC_4
 10932                                  				
 10933 0000C9DC 61                      				popa 
 10934 0000C9DD C3                      				ret						
 10935                                  				
 10936                                  				
 10937                                  				
 10938                                  				
 10939                                  				
 10940                                  				
 10941                                  				
 10942                                  				
 10943                                  
 10944                                  
 10945 0000C9DE 60                      SELECTING_mode: pusha
 10946 0000C9DF E850FE                    CHECK_mode:             call clearscreen_input_mode
 10947 0000C9E2 E86AFE                  						  call print_input_mode
 10948 0000C9E5 B800B8                  MOV		AX, 0xB800
 10949 0000C9E8 8EC0                    				MOV		ES, AX
 10950 0000C9EA B80200                  				mov ax,2
 10951 0000C9ED BE0000                  				mov si,0
 10952 0000C9F0 8B2E[30C8]              				mov bp,[CURRENT_mode]
 10953 0000C9F4 F7E5                    				mul bp
 10954 0000C9F6 89C5                    				mov bp,ax
 10955 0000C9F8 8BBE[18C8]              				mov di,[mode_1_MSG_POSITION_WHEN_LEVEL+bp]
 10956 0000C9FC 8A3E[0FC6]              				mov bh,[mode_1_NAME_COLOR]
 10957 0000CA00 8A9C[EAC5]              mode1_LOOP:				mov bl,[mode_1_NAME+si]
 10958 0000CA04 26891D                  				mov word[es:di],bx
 10959 0000CA07 83C702                  				add di,2
 10960 0000CA0A 83C601                  				add si,1
 10961 0000CA0D 80FB00                  				cmp bl,0x00
 10962 0000CA10 75EE                    				jne mode1_LOOP
 10963 0000CA12 833E[30C8]01                            cmp word[CURRENT_mode],1
 10964 0000CA17 0F840001                				je mode_1_ha
 10965                                  
 10966                                                   
 10967                                  				
 10968 0000CA1B B80200                  mode_1_ho_gaya:mov ax,2
 10969 0000CA1E BE0000                  				mov si,0
 10970 0000CA21 8B2E[30C8]              				mov bp,[CURRENT_mode]
 10971 0000CA25 F7E5                    				mul bp
 10972 0000CA27 89C5                    				mov bp,ax
 10973 0000CA29 8BBE[20C8]              				mov di,[mode_2_MSG_POSITION_WHEN_LEVEL+bp]
 10974 0000CA2D 8A3E[10C6]              				mov bh,[mode_2_NAME_COLOR]
 10975 0000CA31 8A9C[F8C5]              mode2_LOOP:				mov bl,[mode_2_NAME+si]
 10976 0000CA35 26891D                  				mov word[es:di],bx
 10977 0000CA38 83C702                  				add di,2
 10978 0000CA3B 83C601                  				add si,1
 10979 0000CA3E 80FB00                  				cmp bl,0x00
 10980 0000CA41 75EE                    				jne mode2_LOOP
 10981                                  				
 10982 0000CA43 833E[30C8]02            				 cmp word[CURRENT_mode],2
 10983 0000CA48 0F84D500                				je mode_2_ha
 10984                                  				
 10985 0000CA4C B80200                  mode_2_ho_gaya:				mov ax,2
 10986 0000CA4F BE0000                  				mov si,0
 10987 0000CA52 8B2E[30C8]              				mov bp,[CURRENT_mode]
 10988 0000CA56 F7E5                    				mul bp
 10989 0000CA58 89C5                    				mov bp,ax
 10990 0000CA5A 8BBE[28C8]              				mov di,[mode_3_MSG_POSITION_WHEN_LEVEL+bp]
 10991 0000CA5E 8A3E[11C6]              				mov bh,[mode_3_NAME_COLOR]
 10992                                  
 10993 0000CA62 8A9C[05C6]              mode3_LOOP:				mov bl,[mode_3_NAME+si]
 10994 0000CA66 26891D                  				mov word[es:di],bx
 10995 0000CA69 83C702                  				add di,2
 10996 0000CA6C 83C601                  				add si,1
 10997 0000CA6F 80FB00                  				cmp bl,0x00
 10998 0000CA72 75EE                    				jne mode3_LOOP
 10999                                  				
 11000 0000CA74 833E[30C8]03            				 cmp word[CURRENT_mode],3
 11001 0000CA79 0F84AA00                				je mode_3_ha
 11002                                  mode_3_ho_gaya:				
 11003 0000CA7D 31C0                    				xor ax,AX
 11004 0000CA7F CD16                    				int 16h
 11005 0000CA81 3C0D                    				cmp al,13
 11006 0000CA83 0F84A600                				je mode_CHECK_END
 11007 0000CA87 3C73                    				cmp al,'s'
 11008 0000CA89 740C                    				je CHANGING_mode_1
 11009 0000CA8B 3C53                    				cmp al,'S'
 11010 0000CA8D 7408                    				je CHANGING_mode_1
 11011                                  				
 11012 0000CA8F 3C77                    				cmp al,'w'
 11013 0000CA91 7442                    				je CHANGING_mode_2
 11014 0000CA93 3C57                    				cmp al,'W'
 11015 0000CA95 743E                    				je CHANGING_mode_2
 11016                                  				
 11017 0000CA97 833E[30C8]03            CHANGING_mode_1:cmp word[CURRENT_mode],3
 11018 0000CA9C 7434                                     je NO_MORE_CHANGE_mode
 11019 0000CA9E 833E[30C8]02            				 cmp word[CURRENT_mode],2
 11020 0000CAA3 7418                                     je SWAP_2_and_3_mode
 11021 0000CAA5 8306[30C8]01            				 add word[CURRENT_mode],1
 11022 0000CAAA 8A0E[10C6]              				 mov cl,[mode_2_NAME_COLOR]
 11023 0000CAAE 8A2E[0FC6]                          mov  ch,[mode_1_NAME_COLOR]
 11024 0000CAB2 882E[10C6]              			mov [mode_2_NAME_COLOR],ch
 11025 0000CAB6 880E[0FC6]              			mov [mode_1_NAME_COLOR],cl
 11026 0000CABA E922FF                  				 jmp CHECK_mode
 11027                                  				 
 11028 0000CABD 8A0E[10C6]              SWAP_2_and_3_mode: mov cl,[mode_2_NAME_COLOR]
 11029 0000CAC1 8A2E[11C6]                          mov  ch,[mode_3_NAME_COLOR]
 11030 0000CAC5 882E[10C6]              			mov [mode_2_NAME_COLOR],ch
 11031 0000CAC9 880E[11C6]              			mov [mode_3_NAME_COLOR],cl
 11032 0000CACD 8306[30C8]01            			add word[CURRENT_mode],1
 11033 0000CAD2 E90AFF                  NO_MORE_CHANGE_mode:			jmp CHECK_mode
 11034                                  
 11035                                  
 11036                                  
 11037                                  
 11038 0000CAD5 833E[30C8]03            CHANGING_mode_2: cmp word[CURRENT_mode],3
 11039 0000CADA 7518                                      jne SWAP_3_and_2_mode
 11040 0000CADC 832E[30C8]01            				  sub word[CURRENT_mode],1
 11041 0000CAE1 8A0E[10C6]              				   mov cl,[mode_2_NAME_COLOR]
 11042 0000CAE5 8A2E[11C6]                          mov  ch,[mode_3_NAME_COLOR]
 11043 0000CAE9 882E[10C6]              			mov [mode_2_NAME_COLOR],ch
 11044 0000CAED 880E[11C6]              			mov [mode_3_NAME_COLOR],cl
 11045 0000CAF1 E9EBFE                  			jmp CHECK_mode
 11046                                  				  
 11047 0000CAF4 833E[30C8]02            SWAP_3_and_2_mode: 	cmp word[CURRENT_mode],2
 11048 0000CAF9 7518                                    jne SWAP_1_2_mode
 11049 0000CAFB 832E[30C8]01            				sub word[CURRENT_mode],1
 11050 0000CB00 8A0E[10C6]              				 mov cl,[mode_2_NAME_COLOR]
 11051 0000CB04 8A2E[0FC6]                          mov  ch,[mode_1_NAME_COLOR]
 11052 0000CB08 882E[10C6]              			mov [mode_2_NAME_COLOR],ch
 11053 0000CB0C 880E[0FC6]              			mov [mode_1_NAME_COLOR],cl
 11054 0000CB10 E9CCFE                  				 jmp CHECK_mode
 11055                                  
 11056 0000CB13 833E[30C8]01            SWAP_1_2_mode:  cmp word[CURRENT_mode],1
 11057 0000CB18 E9C4FE                             jmp CHECK_mode
 11058                                  
 11059 0000CB1B E870FD                  mode_1_ha: call mode_1_DISC_FUNC
 11060 0000CB1E E9FAFE                              jmp mode_1_ho_gaya
 11061                                  
 11062 0000CB21 E8DAFD                  mode_2_ha: call mode_2_DISC_FUNC
 11063 0000CB24 E925FF                              jmp mode_2_ho_gaya
 11064                                  
 11065 0000CB27 E844FE                  mode_3_ha: call mode_3_DISC_FUNC
 11066 0000CB2A E950FF                              jmp mode_3_ho_gaya		   						
 11067                                  				 
 11068 0000CB2D 61                      mode_CHECK_END:				popa
 11069 0000CB2E C3                      				ret
 11070                                  ;;////////////////////////////////////save max scores///////////////////////////////////
 11071                                  ;//////////////////////////////////////////////////////////////////////////////////////
 11072 0000CB2F 4C2045204120442045-     LEADER_BOAR_MSG: db 'L E A D E R    B O A R D ',0
 11072 0000CB38 20522020202042204F-
 11072 0000CB41 2041205220442000   
 11073                                  
 11074 0000CB49 60                      SAVE_MAX_SCORES:pusha
 11075 0000CB4A 8B1E[C33E]                              mov bx,[SCORE_BUFFER_COUNTER]
 11076 0000CB4E A0[F05C]                                mov al,[SCORE_digit_GAME+0]
 11077 0000CB51 8887[9B3E]              				mov byte[PLAYER_SCORE_BUFFER+bx],al
 11078 0000CB55 83C301                  				add bx,1
 11079 0000CB58 A0[F15C]                				mov al,[SCORE_digit_GAME+1]
 11080 0000CB5B 8887[9B3E]              				mov byte[PLAYER_SCORE_BUFFER+bx],al
 11081 0000CB5F 83C301                  				add bx,1
 11082 0000CB62 A0[F25C]                				mov al,[SCORE_digit_GAME+2]
 11083 0000CB65 8887[9B3E]              				mov byte[PLAYER_SCORE_BUFFER+bx],al
 11084 0000CB69 83C301                  				add bx,1
 11085 0000CB6C B02D                    				mov al,'-'
 11086 0000CB6E 8887[9B3E]              				mov byte[PLAYER_SCORE_BUFFER+bx],al
 11087 0000CB72 83C301                  				add bx,1
 11088 0000CB75 891E[C33E]              				mov word[SCORE_BUFFER_COUNTER],bx
 11089                                  				
 11090 0000CB79 61                      popa 
 11091 0000CB7A C3                      ret				
 11092                                  
 11093 0000CB7B 60                      DISPLAY_MAX_SCORES:pusha
 11094 0000CB7C B800B8                                     mov ax,0xB800
 11095 0000CB7F 8EC0                    				   mov es,ax
 11096 0000CB81 8B0E[C33E]                                 mov cx,[SCORE_BUFFER_COUNTER]
 11097 0000CB85 BFD800                  				   mov di,216
 11098 0000CB88 BE0000                  				   mov si,0
 11099 0000CB8B B40F                    				   mov ah,0x0f
 11100 0000CB8D B74F                    				   mov bh,0x4f
 11101 0000CB8F B329                    				   mov bl,')'
 11102 0000CB91 8A84[2FCB]              DMS_LOOP:          mov al,[LEADER_BOAR_MSG+si]
 11103 0000CB95 268905                                     mov word[es:di],AX
 11104 0000CB98 83C702                                     add di,2
 11105 0000CB9B 83C601                                     add si,1
 11106 0000CB9E 80BC[2ECB]00                               cmp byte[LEADER_BOAR_MSG+si-1],0
 11107 0000CBA3 75EC                                       jne DMS_LOOP				   
 11108                                  
 11109 0000CBA5 BF1A02                                     mov di,538
 11110 0000CBA8 B44F                    				   mov ah,0x4f
 11111 0000CBAA BE0000                  				   mov si,0
 11112 0000CBAD 88E6                    				   mov dh,ah
 11113 0000CBAF B231                    				   mov dl,'1'
 11114                                  DMS_LOOP_1:        
 11115 0000CBB1 8A84[9B3E]                                 mov al,[PLAYER_SCORE_BUFFER+si]
 11116                                  				   
 11117 0000CBB5 3C00                                       cmp al,0
 11118 0000CBB7 7428                    				   je func_ret
 11119 0000CBB9 268905                  				   mov word[es:di],AX
 11120 0000CBBC 83C601                  				    add si,1
 11121 0000CBBF 80BC[9B3E]2D            				   cmp byte[PLAYER_SCORE_BUFFER+si],'-'
 11122 0000CBC4 7407                    				   je UPDATE_MAX_CC
 11123 0000CBC6 83C702                                     add di,2
 11124 0000CBC9 E2E6                                       loop DMS_LOOP_1	
 11125 0000CBCB EB14                                       jmp func_ret				   
 11126                                  
 11127 0000CBCD 268955F6                UPDATE_MAX_CC:   mov word[es:di-10],dx
 11128 0000CBD1 26895DF8                                 mov word[es:di-8],bx 
 11129 0000CBD5 80C201                                   add dl,1
 11130 0000CBD8 83C601                                   add si,1
 11131 0000CBDB 81C73C01                                 add di,316
 11132 0000CBDF EBD0                    				 jmp DMS_LOOP_1
 11133                                  
 11134                                  
 11135 0000CBE1 61                      func_ret: popa
 11136 0000CBE2 C3                                ret
 11137                                  
 11138                                  ;;////////////////////////////////////////////////////////////////////////////////////////////
 11139                                  
 11140                                  clearscreen_LEADER: 
 11141 0000CBE3 60                      					pusha
 11142 0000CBE4 B800B8                  				MOV		AX, 0xB800
 11143 0000CBE7 8EC0                    				MOV		ES, AX
 11144 0000CBE9 BF0000                  				mov di,0
 11145                                  				
 11146 0000CBEC 26C705B94C              		 nextloc_LDR:    mov word[es:di]	,0x4CB9
 11147 0000CBF1 83C702                  					 add di,2
 11148 0000CBF4 26C705BF4C              					 mov word[es:di]	,0x4CBF
 11149 0000CBF9 83C702                  					 add di,2
 11150 0000CBFC 75EE                    					jne nextloc_LDR
 11151                                  
 11152                                  
 11153 0000CBFE 61                      					popa
 11154                                  
 11155 0000CBFF C3                      					ret			
 11156                                  ;;////////////////////////////////////////////pop sound////////////////////////////////////////////
 11157                                  ;///////////////////////////////////////////////////////////////////////////////////////////////////
 11158                                  
 11159                                  play_pop_sound:
 11160 0000CC00 50                          push ax
 11161 0000CC01 53                          push bx
 11162 0000CC02 51                          push cx
 11163                                      
 11164                                      ; Play a short high-pitched beep for pop
 11165 0000CC03 B0B6                        mov al, 0xB6
 11166 0000CC05 E643                        out 0x43, al
 11167                                      
 11168                                      ; Frequency for pop sound (higher pitch)
 11169 0000CC07 B8000A                      mov ax, 0x0A00
 11170 0000CC0A E642                        out 0x42, al
 11171 0000CC0C 88E0                        mov al, ah
 11172 0000CC0E E642                        out 0x42, al
 11173                                      
 11174                                      ; Turn on speaker
 11175 0000CC10 E461                        in al, 0x61
 11176 0000CC12 0C03                        or al, 0x03
 11177 0000CC14 E661                        out 0x61, al
 11178                                      
 11179                                      ; Short delay
 11180 0000CC16 B90010                      mov cx, 0x1000
 11181                                  sound_delay1:
 11182 0000CC19 90                          nop
 11183 0000CC1A E2FD                        loop sound_delay1
 11184                                      
 11185                                      ; Turn off speaker
 11186 0000CC1C E461                        in al, 0x61
 11187 0000CC1E 24FC                        and al, 0xFC
 11188 0000CC20 E661                        out 0x61, al
 11189                                      
 11190 0000CC22 59                          pop cx
 11191 0000CC23 5B                          pop bx
 11192 0000CC24 58                          pop ax
 11193 0000CC25 C3                          ret
 11194                                  
 11195                                  play_gameover_sound:
 11196 0000CC26 50                          push ax
 11197 0000CC27 53                          push bx
 11198 0000CC28 51                          push cx
 11199 0000CC29 52                          push dx
 11200                                      
 11201                                      ; Play a descending tone for game over
 11202 0000CC2A BA0300                      mov dx, 3  ; Number of tones
 11203                                      
 11204                                  tone_loop:
 11205 0000CC2D 52                          push dx
 11206                                      
 11207                                      ; Set up PIT for sound
 11208 0000CC2E B0B6                        mov al, 0xB6
 11209 0000CC30 E643                        out 0x43, al
 11210                                      
 11211                                      ; Calculate frequency (descending)
 11212 0000CC32 89D0                        mov ax, dx
 11213 0000CC34 BB0004                      mov bx, 0x0400
 11214 0000CC37 F7E3                        mul bx
 11215 0000CC39 050008                      add ax, 0x0800
 11216                                      
 11217 0000CC3C E642                        out 0x42, al
 11218 0000CC3E 88E0                        mov al, ah
 11219 0000CC40 E642                        out 0x42, al
 11220                                      
 11221                                      ; Turn on speaker
 11222 0000CC42 E461                        in al, 0x61
 11223 0000CC44 0C03                        or al, 0x03
 11224 0000CC46 E661                        out 0x61, al
 11225                                      
 11226                                      ; Longer delay for each tone
 11227 0000CC48 B90050                      mov cx, 0x5000
 11228                                  sound_delay2:
 11229 0000CC4B 90                          nop
 11230 0000CC4C E2FD                        loop sound_delay2
 11231                                      
 11232                                      ; Turn off speaker briefly between tones
 11233 0000CC4E E461                        in al, 0x61
 11234 0000CC50 24FC                        and al, 0xFC
 11235 0000CC52 E661                        out 0x61, al
 11236                                      
 11237 0000CC54 B90010                      mov cx, 0x1000
 11238                                  sound_delay3:
 11239 0000CC57 90                          nop
 11240 0000CC58 E2FD                        loop sound_delay3
 11241                                      
 11242 0000CC5A 5A                          pop dx
 11243 0000CC5B 4A                          dec dx
 11244 0000CC5C 75CF                        jnz tone_loop
 11245                                      
 11246 0000CC5E 5A                          pop dx
 11247 0000CC5F 59                          pop cx
 11248 0000CC60 5B                          pop bx
 11249 0000CC61 58                          pop ax
 11250 0000CC62 C3                          ret
 11251                                  
 11252                                  play_life_lost_sound:
 11253 0000CC63 50                          push ax
 11254 0000CC64 53                          push bx
 11255 0000CC65 51                          push cx
 11256 0000CC66 52                          push dx
 11257                                      
 11258                                      ; Play a warning tone for life lost
 11259 0000CC67 BA0200                      mov dx, 2  ; Number of tones
 11260                                      
 11261                                  life_tone_loop:
 11262 0000CC6A 52                          push dx
 11263                                      
 11264                                      ; Set up PIT for sound
 11265 0000CC6B B0B6                        mov al, 0xB6
 11266 0000CC6D E643                        out 0x43, al
 11267                                      
 11268                                      ; Lower frequency for warning tone
 11269 0000CC6F B80010                      mov ax, 0x1000
 11270 0000CC72 E642                        out 0x42, al
 11271 0000CC74 88E0                        mov al, ah
 11272 0000CC76 E642                        out 0x42, al
 11273                                      
 11274                                      ; Turn on speaker
 11275 0000CC78 E461                        in al, 0x61
 11276 0000CC7A 0C03                        or al, 0x03
 11277 0000CC7C E661                        out 0x61, al
 11278                                      
 11279                                      ; Medium delay
 11280 0000CC7E B90030                      mov cx, 0x3000
 11281                                  life_sound_delay:
 11282 0000CC81 90                          nop
 11283 0000CC82 E2FD                        loop life_sound_delay
 11284                                      
 11285                                      ; Turn off speaker briefly between tones
 11286 0000CC84 E461                        in al, 0x61
 11287 0000CC86 24FC                        and al, 0xFC
 11288 0000CC88 E661                        out 0x61, al
 11289                                      
 11290 0000CC8A B90010                      mov cx, 0x1000
 11291                                  life_sound_delay2:
 11292 0000CC8D 90                          nop
 11293 0000CC8E E2FD                        loop life_sound_delay2
 11294                                      
 11295 0000CC90 5A                          pop dx
 11296 0000CC91 4A                          dec dx
 11297 0000CC92 75D6                        jnz life_tone_loop
 11298                                      
 11299 0000CC94 5A                          pop dx
 11300 0000CC95 59                          pop cx
 11301 0000CC96 5B                          pop bx
 11302 0000CC97 58                          pop ax
 11303 0000CC98 C3                          ret
 11304                                  
 11305                                  stop_sound:
 11306 0000CC99 50                          push ax
 11307 0000CC9A E461                        in al, 0x61
 11308 0000CC9C 24FC                        and al, 0xFC
 11309 0000CC9E E661                        out 0x61, al
 11310 0000CCA0 58                          pop ax
 11311 0000CCA1 C3                          ret
 11312                                  	
 11313                                  	
 11314                                  	
 11315                                  	
 11316                                  	
 11317                                  
 11318                                  
 11319 0000CCA2 0000                    tickCount_: dw 0             
 11320 0000CCA4 0000                    musicNoteIndex_: dw 0          
 11321 0000CCA6 00                      pauseGame_: db 0               
 11322 0000CCA7 00                      gameOver_: db 0               
 11323 0000CCA8 00000000                oldTimerISR: dd 0           
 11324                                  
 11325                                  playBackgroundMusic:
 11326 0000CCAC 50                          push ax
 11327 0000CCAD 53                          push bx
 11328 0000CCAE 51                          push cx
 11329 0000CCAF 52                          push dx
 11330                                      
 11331                                     ; pause game 
 11332 0000CCB0 2E803E[A6CC]01              cmp byte [cs:pauseGame_], 1
 11333 0000CCB6 7445                        je skipBgMusic
 11334 0000CCB8 2E803E[A7CC]00              cmp byte [cs:gameOver_], 0
 11335 0000CCBE 753D                        jne skipBgMusic
 11336                                      
 11337 0000CCC0 2EA1[A2CC]                  mov ax, [cs:tickCount_]
 11338 0000CCC4 83E005                      and ax, 0x0005           
 11339 0000CCC7 83F800                      cmp ax, 0
 11340 0000CCCA 7531                        jne skipBgMusic
 11341                                    
 11342 0000CCCC 2E8B1E[A4CC]                mov bx, [cs:musicNoteIndex_]
 11343                                      
 11344 0000CCD1 B0B6                        mov al, 182          
 11345 0000CCD3 E643                        out 43h, al              
 11346                                      
 11347 0000CCD5 D1E3                        shl bx, 1               
 11348 0000CCD7 2E8B87[02CD]                mov ax, [cs:smoothRacingMelody + bx]
 11349                                      
 11350 0000CCDC 83F800                      cmp ax, 0
 11351 0000CCDF 750B                        jne continueMusic
 11352                                      
 11353 0000CCE1 2EC706[A4CC]0000            mov word [cs:musicNoteIndex_], 0
 11354 0000CCE8 2EA1[02CD]                  mov ax, [cs:smoothRacingMelody]
 11355                                      
 11356                                  continueMusic:
 11357 0000CCEC E642                        out 42h, al              
 11358 0000CCEE 88E0                        mov al, ah
 11359 0000CCF0 E642                        out 42h, al           
 11360                                      
 11361 0000CCF2 E461                        in al, 61h               
 11362 0000CCF4 0C03                        or al, 00000011b       
 11363 0000CCF6 E661                        out 61h, al
 11364                                      
 11365 0000CCF8 2EFF06[A4CC]                inc word [cs:musicNoteIndex_]
 11366                                      
 11367                                  skipBgMusic:
 11368 0000CCFD 5A                          pop dx
 11369 0000CCFE 59                          pop cx
 11370 0000CCFF 5B                          pop bx
 11371 0000CD00 58                          pop ax
 11372 0000CD01 C3                          ret
 11373                                  
 11374                                  smoothRacingMelody:
 11375 0000CD02 E907                        dw 2025  ; C - Low and smooth
 11376 0000CD04 E907                        dw 2025  ; Hold C
 11377 0000CD06 0D07                        dw 1805  ; D
 11378 0000CD08 0D07                        dw 1805  ; Hold D
 11379 0000CD0A 4706                        dw 1607  ; E
 11380 0000CD0C 4706                        dw 1607  ; Hold E
 11381 0000CD0E ED05                        dw 1517  ; F
 11382 0000CD10 9805                        dw 1432  ; F#
 11383 0000CD12 4706                        dw 1607  ; E
 11384 0000CD14 4706                        dw 1607  ; Hold E
 11385 0000CD16 0D07                        dw 1805  ; D
 11386 0000CD18 0D07                        dw 1805  ; Hold D
 11387 0000CD1A E907                        dw 2025  ; C
 11388 0000CD1C E907                        dw 2025  ; Hold C
 11389 0000CD1E 0D07                        dw 1805  ; D
 11390 0000CD20 A706                        dw 1703  ; D#
 11391 0000CD22 4706                        dw 1607  ; E
 11392 0000CD24 4706                        dw 1607  ; Hold E
 11393 0000CD26 ED05                        dw 1517  ; F
 11394 0000CD28 ED05                        dw 1517  ; Hold F
 11395 0000CD2A 9805                        dw 1432  ; F#
 11396 0000CD2C 4705                        dw 1351  ; G
 11397 0000CD2E FB04                        dw 1275  ; G#
 11398 0000CD30 FB04                        dw 1275  ; Hold G#
 11399 0000CD32 4705                        dw 1351  ; G
 11400 0000CD34 9805                        dw 1432  ; F#
 11401 0000CD36 ED05                        dw 1517  ; F
 11402 0000CD38 4706                        dw 1607  ; E
 11403 0000CD3A 0D07                        dw 1805  ; D
 11404 0000CD3C E907                        dw 2025  ; C
 11405 0000CD3E E907                        dw 2025  ; Hold C
 11406 0000CD40 E108                        dw 2273  ; B (lower octave)
 11407 0000CD42 0000                        dw 0     ; End marker - loop restart
 11408                                  
 11409                                  
 11410                                  timerISR:
 11411 0000CD44 50                          push ax
 11412 0000CD45 1E                          push ds
 11413                                      
 11414 0000CD46 0E                          push cs
 11415 0000CD47 1F                          pop ds
 11416                                      
 11417 0000CD48 FF06[A2CC]                  inc word [tickCount_]
 11418                                     
 11419 0000CD4C 803E[A6CC]01                cmp byte [pauseGame_], 1
 11420 0000CD51 740A                        je timerDone
 11421                                      
 11422 0000CD53 803E[A7CC]01                cmp byte [gameOver_], 1
 11423 0000CD58 7403                        je timerDone
 11424                                     
 11425 0000CD5A E84FFF                      call playBackgroundMusic
 11426                                      
 11427                                  timerDone:
 11428 0000CD5D B020                        mov al, 0x20             
 11429 0000CD5F E620                        out 0x20, al             
 11430                                      
 11431 0000CD61 1F                          pop ds
 11432 0000CD62 58                          pop ax
 11433 0000CD63 CF                          iret  
 11434                                  	
 11435                                  hookTimerInterrupt:
 11436 0000CD64 06                          push es
 11437 0000CD65 50                          push ax
 11438 0000CD66 53                          push bx
 11439                                      
 11440 0000CD67 FA                          cli                   
 11441                                      
 11442 0000CD68 31C0                        xor ax, ax
 11443 0000CD6A 8EC0                        mov es, ax
 11444                                      
 11445 0000CD6C 26A12000                    mov ax, [es:8*4]      
 11446 0000CD70 A3[A8CC]                    mov [oldTimerISR], ax
 11447 0000CD73 26A12200                    mov ax, [es:8*4+2]
 11448 0000CD77 A3[AACC]                    mov [oldTimerISR+2], ax
 11449                                      
 11450 0000CD7A 26C7062000[44CD]            mov word [es:8*4], timerISR
 11451 0000CD81 268C0E2200                  mov [es:8*4+2], cs
 11452                                      
 11453 0000CD86 FB                          sti                  
 11454                                      
 11455 0000CD87 5B                          pop bx
 11456 0000CD88 58                          pop ax
 11457 0000CD89 07                          pop es
 11458 0000CD8A C3                          ret
 11459                                  
 11460                                  unhookTimerInterrupt:
 11461 0000CD8B 06                          push es
 11462 0000CD8C 50                          push ax
 11463 0000CD8D 53                          push bx
 11464                                      
 11465 0000CD8E FA                          cli                    
 11466                                      
 11467 0000CD8F 31C0                        xor ax, ax
 11468 0000CD91 8EC0                        mov es, ax
 11469                                      
 11470 0000CD93 A1[A8CC]                    mov ax, [oldTimerISR]
 11471 0000CD96 26A32000                    mov [es:8*4], ax
 11472 0000CD9A A1[AACC]                    mov ax, [oldTimerISR+2]
 11473 0000CD9D 26A32200                    mov [es:8*4+2], ax
 11474                                      
 11475 0000CDA1 FB                          sti                    
 11476                                      
 11477 0000CDA2 5B                          pop bx
 11478 0000CDA3 58                          pop ax
 11479 0000CDA4 07                          pop es
 11480 0000CDA5 C3                          ret
 11481                                  
 11482                                  
 11483                                  stopMusic:
 11484 0000CDA6 50                          push ax
 11485                                     
 11486 0000CDA7 E461                        in al, 61h
 11487 0000CDA9 24FC                        and al, 11111100b       
 11488 0000CDAB E661                        out 61h, al
 11489                                      
 11490 0000CDAD 58                          pop ax
 11491 0000CDAE C3                          ret
 11492                                  
 11493                                  
 11494 0000CDAF 60                      PLAY_BG_SOUND_FORGAME:pusha
 11495 0000CDB0 E8B1FF                      call hookTimerInterrupt
 11496 0000CDB3 61                          popa
 11497 0000CDB4 C3                      	ret
 11498                                  
 11499                                  	
 11500                                  	
 11501                                  
 11502                                  
 11503 0000CDB5 51                      delay_: push cx
 11504 0000CDB6 B90000                  mov cx,0x0000
 11505 0000CDB9 E2FE                    l1: loop l1
 11506 0000CDBB 59                      pop cx
 11507 0000CDBC C3                      ret
 11508                                  
 11509 0000CDBD 60                      PLAY_START_SOUND:pusha
 11510 0000CDBE B90500                   mov cx, 5
 11511 0000CDC1 B0B6                    LOOP1_:         mov al, 0b6h
 11512 0000CDC3 E643                    out 43h, al
 11513                                  
 11514                                  ;load the counter 2 value for d3
 11515 0000CDC5 B8B41F                  mov ax, 1fb4h
 11516 0000CDC8 E642                    out 42h, al
 11517 0000CDCA 88E0                    mov al, ah
 11518 0000CDCC E642                    out 42h, al
 11519                                  
 11520                                  ;turn the speaker on
 11521 0000CDCE E461                    in al, 61h
 11522 0000CDD0 88C4                    mov ah,al
 11523 0000CDD2 0C03                    or al, 3h
 11524 0000CDD4 E661                    out 61h, al
 11525 0000CDD6 E8DCFF                  call delay_
 11526 0000CDD9 88E0                    mov al, ah
 11527 0000CDDB E661                    out 61h, al
 11528                                  
 11529 0000CDDD E8D5FF                  call delay_
 11530                                  
 11531                                  ;load the counter 2 value for a3
 11532 0000CDE0 B82F15                  mov ax, 152fh
 11533 0000CDE3 E642                    out 42h, al
 11534 0000CDE5 88E0                    mov al, ah
 11535 0000CDE7 E642                    out 42h, al
 11536                                  
 11537                                  ;turn the speaker on
 11538 0000CDE9 E461                    in al, 61h
 11539 0000CDEB 88C4                    mov ah,al
 11540 0000CDED 0C03                    or al, 3h
 11541 0000CDEF E661                    out 61h, al
 11542 0000CDF1 E8C1FF                  call delay_
 11543 0000CDF4 88E0                    mov al, ah
 11544 0000CDF6 E661                    out 61h, al
 11545                                  
 11546 0000CDF8 E8BAFF                  call delay_
 11547                                  	
 11548                                  ;load the counter 2 value for a4
 11549 0000CDFB B8970A                  mov ax, 0A97h
 11550 0000CDFE E642                    out 42h, al
 11551 0000CE00 88E0                    mov al, ah
 11552 0000CE02 E642                    out 42h, al
 11553                                  	
 11554                                  ;turn the speaker on
 11555 0000CE04 E461                    in al, 61h
 11556 0000CE06 88C4                    mov ah,al
 11557 0000CE08 0C03                    or al, 3h
 11558 0000CE0A E661                    out 61h, al
 11559 0000CE0C E8A6FF                  call delay_
 11560 0000CE0F 88E0                    mov al, ah
 11561 0000CE11 E661                    out 61h, al
 11562                                  
 11563 0000CE13 E89FFF                  call delay_
 11564                                   
 11565 0000CE16 E2A9                     loop LOOP1_
 11566 0000CE18 61                      popa
 11567 0000CE19 C3                      ret
